(dp0
csage.rings.polynomial.polydict
make_ETuple
p1
((dp2
I2
tp3
Rp4
csage.rings.integer
make_integer
p5
(S'-3i6ji8tb00'
p6
tp7
Rp8
sg1
((dp9
I0
I75
sI1
I1
sI2
tp10
Rp11
g5
(S'41tkh19788ls80'
p12
tp13
Rp14
sg1
((dp15
I0
I36
sI1
I2
sI2
tp16
Rp17
g5
(S'-2ol4orihd'
p18
tp19
Rp20
sg1
((dp21
I0
I25
sI1
I1
sI2
tp22
Rp23
g5
(S'6b3p8kn8qhqup3dtg'
p24
tp25
Rp26
sg1
((dp27
I0
I3
sI2
tp28
Rp29
g5
(S'-hbl6hq6q0e4ag'
p30
tp31
Rp32
sg1
((dp33
I0
I23
sI2
tp34
Rp35
g5
(S'psn8f6421s70c32no30'
p36
tp37
Rp38
sg1
((dp39
I0
I46
sI2
tp40
Rp41
g5
(S'-nrmha16i2936llj3aol0q'
p42
tp43
Rp44
sg1
((dp45
I0
I88
sI1
I1
sI2
tp46
Rp47
g5
(S'-5i'
p48
tp49
Rp50
sg1
((dp51
I0
I69
sI2
tp52
Rp53
g5
(S'-8316lqm24f35gbr3cj2'
p54
tp55
Rp56
sg1
((dp57
I0
I43
sI1
I1
sI2
tp58
Rp59
g5
(S'22n0pfrfng19aklr7o'
p60
tp61
Rp62
sg1
((dp63
I0
I4
sI1
I2
sI2
tp64
Rp65
g5
(S'dslv33a'
p66
tp67
Rp68
sg1
((dp69
I0
I20
sI1
I1
sI2
tp70
Rp71
g5
(S'-aohcsi859l2uc5c4'
p72
tp73
Rp74
sg1
((dp75
I0
I31
sI2
tp76
Rp77
g5
(S'-2l4606uqeqrrll3d9nib0'
p78
tp79
Rp80
sg1
((dp81
I0
I54
sI2
tp82
Rp83
g5
(S'-3cpmc4iq8b2bstl4ljet4'
p84
tp85
Rp86
sg1
((dp87
I0
I23
sI1
I1
sI2
tp88
Rp89
g5
(S'-2c8j3resrle1k17g0'
p90
tp91
Rp92
sg1
((dp93
I0
I65
sI1
I1
sI2
tp94
Rp95
g5
(S'4sl1almrcqldsjbou0'
p96
tp97
Rp98
sg1
((dp99
I0
I26
sI1
I2
sI2
tp100
Rp101
g5
(S'-sql0l9f9pc'
p102
tp103
Rp104
sg1
((dp105
I0
I77
sI2
tp106
Rp107
g5
(S'5dlea4sbt0daua10'
p108
tp109
Rp110
sg1
((dp111
I0
I29
sI1
I2
sI2
tp112
Rp113
g5
(S'16d3ik9sfq'
p114
tp115
Rp116
sg1
((dp117
I0
I46
sI1
I1
sI2
tp118
Rp119
g5
(S'4m6p0sa21rhj96joio'
p120
tp121
Rp122
sg1
((dp123
I0
I39
sI1
I2
sI2
tp124
Rp125
g5
(S'-d88ae2o'
p126
tp127
Rp128
sg1
((dp129
I0
I16
sI2
tp130
Rp131
g5
(S'-du4v6ve49jm4cff9i'
p132
tp133
Rp134
sg1
((dp135
I0
I39
sI2
tp136
Rp137
g5
(S'78kk7uka5mj3dj5svqsig'
p138
tp139
Rp140
sg1
((dp141
I0
I62
sI2
tp142
Rp143
g5
(S'nc2i03fkjb49dpech18s'
p144
tp145
Rp146
sg1
((dp147
I0
I26
sI1
I1
sI2
tp148
Rp149
g5
(S'-48pqeeor3ov9j449o'
p150
tp151
Rp152
sg1
((dp153
I0
I85
sI2
tp154
Rp155
g5
(S'89o2f9h1hm'
p156
tp157
Rp158
sg1
((dp159
I0
I21
sI1
I1
sI2
tp160
Rp161
g5
(S'kdgi8dae4k5u6sn0'
p162
tp163
Rp164
sg1
((dp165
I0
I1
sI2
tp166
Rp167
g5
(S'6g9u62tb7680'
p168
tp169
Rp170
sg1
((dp171
I0
I56
sI1
I1
sI2
tp172
Rp173
g5
(S'-15keuopt26hvg6k3io8'
p174
tp175
Rp176
sg1
((dp177
I0
I16
sI1
I2
sI2
tp178
Rp179
g5
(S'-c601rqq1gq'
p180
tp181
Rp182
sg1
((dp183
I0
I19
sI1
I2
sI2
tp184
Rp185
g5
(S'-qvve1eiems'
p186
tp187
Rp188
sg1
((dp189
I0
I24
sI2
tp190
Rp191
g5
(S'-3ntfj5fvc4ghu4ppfp8'
p192
tp193
Rp194
sg1
((dp195
I0
I68
sI1
I1
sI2
tp196
Rp197
g5
(S'-7s1rmm5t61veh6sj8'
p198
tp199
Rp200
sg1
((dp201
I0
I47
sI2
tp202
Rp203
g5
(S'1v032mtb1lpault8lkrpg0'
p204
tp205
Rp206
sg1
((dp207
I0
I70
sI2
tp208
Rp209
g5
(S'4c6poe84le26lv6b6c3'
p210
tp211
Rp212
sg1
((dp213
I0
I55
sI1
I1
sI2
tp214
Rp215
g5
(S'q295ef61i4tdhv8nc0'
p216
tp217
Rp218
sg1
((dp219
I0
I45
sI1
I1
sI2
tp220
Rp221
g5
(S'aal7aosjs73073hk20'
p222
tp223
Rp224
sg1
((dp225
I0
I16
sI1
I1
sI2
tp226
Rp227
g5
(S'-pa5gjk4dk9ld7gm'
p228
tp229
Rp230
sg1
((dp231
I0
I35
sI1
I1
sI2
tp232
Rp233
g5
(S'40p9o2stfh8vhkh8e0'
p234
tp235
Rp236
sg1
((dp237
I0
I7
sI1
I2
sI2
tp238
Rp239
g5
(S'avbb1o50'
p240
tp241
Rp242
sg1
((dp243
I0
I9
sI2
tp244
Rp245
g5
(S'-38f7kkv6r51ve8fq'
p246
tp247
Rp248
sg1
((dp249
I0
I3
sI1
I1
sI2
tp250
Rp251
g5
(S'17iqgcgq068'
p252
tp253
Rp254
sg1
((dp255
I0
I19
sI1
I1
sI2
tp256
Rp257
g5
(S'-3er6snddqq9t2278'
p258
tp259
Rp260
sg1
((dp261
I0
I86
sI1
I1
sI2
tp262
Rp263
g5
(S'-2gq1a'
p264
tp265
Rp266
sg1
((dp267
I0
I9
sI1
I2
sI2
tp268
Rp269
g5
(S'8eci1mvvi'
p270
tp271
Rp272
sg1
((dp273
I0
I32
sI2
tp274
Rp275
g5
(S'2f9qjivo3u8aqnc6o85c0'
p276
tp277
Rp278
sg1
((dp279
I0
I77
sI1
I1
sI2
tp280
Rp281
g5
(S'1qsh21r5ui740'
p282
tp283
Rp284
sg1
((dp285
I0
I38
sI1
I2
sI2
tp286
Rp287
g5
(S'22odhuje'
p288
tp289
Rp290
sg1
((dp291
I0
I55
sI2
tp292
Rp293
g5
(S'bivf8fqf3tdesjurnm4dg'
p294
tp295
Rp296
sg1
((dp297
I0
I78
sI2
tp298
Rp299
g5
(S'-13d4iedm73jqjnms'
p300
tp301
Rp302
sg1
((dp303
I0
I18
sI1
I1
sI2
tp304
Rp305
g5
(S'3gmans7p75bd6g00'
p306
tp307
Rp308
sg1
((dp309
I0
I58
sI1
I1
sI2
tp310
Rp311
g5
(S'-1ovmn3fs6f8n27rtnce'
p312
tp313
Rp314
sg1
((dp315
I0
I41
sI1
I2
sI2
tp316
Rp317
g5
(S'371aha'
p318
tp319
Rp320
sg1
((dp321
I0
I27
sI2
tp322
Rp323
g5
(S'240dvv3n4u8vaaq90kek'
p324
tp325
Rp326
sg1
((dp327
I0
I17
sI1
I1
sI2
tp328
Rp329
g5
(S'4q8hhuhq2birdu4'
p330
tp331
Rp332
sg1
((dp333
I0
I40
sI2
tp334
Rp335
g5
(S'-175engndiafv3n1431plup'
p336
tp337
Rp338
sg1
((dp339
I0
I63
sI2
tp340
Rp341
g5
(S'-bac2pnju39j0f1k0jpq0'
p342
tp343
Rp344
sg1
((dp345
I0
I86
sI2
tp346
Rp347
g5
(S'2pumqb7tj'
p348
tp349
Rp350
sg1
((dp351
I0
I6
sI1
I2
sI2
tp352
Rp353
g5
(S'hm63qm9b'
p354
tp355
Rp356
sg1
((dp357
I0
I67
sI1
I1
sI2
tp358
Rp359
g5
(S'o0crnlvr9hep2q3r0'
p360
tp361
Rp362
sg1
((dp363
I0
I28
sI1
I2
sI2
tp364
Rp365
g5
(S'-ld13qvgde'
p366
tp367
Rp368
sg1
((dp369
I0
I31
sI1
I2
sI2
tp370
Rp371
g5
(S'-2bs75gjpk0'
p372
tp373
Rp374
sg1
((dp375
I0
I25
sI2
tp376
Rp377
g5
(S'-2uou8ghfpnsde8inugrm'
p378
tp379
Rp380
sg1
((dp381
I0
I48
sI1
I1
sI2
tp382
Rp383
g5
(S'6626ncgvrjeb722mho'
p384
tp385
Rp386
sg1
((dp387
I0
I12
sI1
I1
sI2
tp388
Rp389
g5
(S'-dbubph385atfn2'
p390
tp391
Rp392
sg1
((dp393
I0
I48
sI2
tp394
Rp395
g5
(S'-1pbi88ttbguhgn5o40aki0'
p396
tp397
Rp398
sg1
((dp399
I0
I47
sI1
I1
sI2
tp400
Rp401
g5
(S'-bnpghmj6vjunva39o0'
p402
tp403
Rp404
sg1
((dp405
I0
I15
sI1
I1
sI2
tp406
Rp407
g5
(S'37f62nfj85l3sh0'
p408
tp409
Rp410
sg1
((dp411
I0
I71
sI2
tp412
Rp413
g5
(S'-1qb9h4jd346ecgm4lp0'
p414
tp415
Rp416
sg1
((dp417
I0
I10
sI1
I1
sI2
tp418
Rp419
g5
(S'ri5t4rij40gbu'
p420
tp421
Rp422
sg1
((dp423
I0
I8
sI1
I2
sI2
tp424
Rp425
g5
(S'-419fk15h8'
p426
tp427
Rp428
sg1
((dp429
I0
I18
sI2
tp430
Rp431
g5
(S'-9k6pn1dre0k4bicltq'
p432
tp433
Rp434
sg1
((dp435
I0
I10
sI2
tp436
Rp437
g5
(S'-1hvjec5q68j3m97b'
p438
tp439
Rp440
sg1
((dp441
I0
I8
sI2
tp442
Rp443
g5
(S'selgdgoi4fom88t'
p444
tp445
Rp446
sg1
((dp447
I0
I33
sI2
tp448
Rp449
g5
(S'2e3kqemblrlne1biv6n28'
p450
tp451
Rp452
sg1
((dp453
I0
I57
sI1
I1
sI2
tp454
Rp455
g5
(S'1fvlii47j2cmqis6gg0'
p456
tp457
Rp458
sg1
((dp459
I0
I18
sI1
I2
sI2
tp460
Rp461
g5
(S'u5d1tn062'
p462
tp463
Rp464
sg1
((dp465
I0
I17
sI2
tp466
Rp467
g5
(S'57bhatsg3qvhop8bfk'
p468
tp469
Rp470
sg1
((dp471
I0
I21
sI1
I2
sI2
tp472
Rp473
g5
(S'-o8bg9sulno'
p474
tp475
Rp476
sg1
((dp477
I0
I56
sI2
tp478
Rp479
g5
(S'-bedp50rgnk3uonfdgnlr3'
p480
tp481
Rp482
sg1
((dp483
I0
I70
sI1
I1
sI2
tp484
Rp485
g5
(S'-j5hr23lkpc3m5a7c'
p486
tp487
Rp488
sg1
((dp489
I0
I1
sI1
I2
sI2
tp490
Rp491
g5
(S'4k8m5k'
p492
tp493
Rp494
sg1
((dp495
I0
I8
sI1
I1
sI2
tp496
Rp497
g5
(S'-nri3mus29ins'
p498
tp499
Rp500
sg1
((dp501
I0
I79
sI2
tp502
Rp503
g5
(S'45v1dpvo9519ieg'
p504
tp505
Rp506
sg1
((dp507
I0
I11
sI1
I2
sI2
tp508
Rp509
g5
(S'-khq25rnpo'
p510
tp511
Rp512
sg1
((dp513
I0
I13
sI1
I1
sI2
tp514
Rp515
g5
(S'-11ggfq2oqef8fto'
p516
tp517
Rp518
sg1
((dp519
I0
I80
sI1
I1
sI2
tp520
Rp521
g5
(S'-13mao7rmae8'
p522
tp523
Rp524
sg1
((dp525
I0
I41
sI2
tp526
Rp527
g5
(S'1a9rmcvm25j5tspg17dth8'
p528
tp529
Rp530
sg1
((dp531
I0
I44
sI1
I1
sI2
tp532
Rp533
g5
(S'-ebv8dikop0dfbel1hk'
p534
tp535
Rp536
sg1
((dp537
I0
I64
sI2
tp538
Rp539
g5
(S'3rdp03b0bkol21ackook'
p540
tp541
Rp542
sg1
((dp543
I0
I79
sI1
I1
sI2
tp544
Rp545
g5
(S'fdrgo0aio40'
p546
tp547
Rp548
sg1
((dp549
I0
I40
sI1
I2
sI2
tp550
Rp551
g5
(S'f1nj6'
p552
tp553
Rp554
sg1
((dp555
I0
I87
sI2
tp556
Rp557
g5
(S'3ghut30'
p558
tp559
Rp560
sg1
((dp561
I0
I43
sI1
I2
sI2
tp562
Rp563
g5
(S'bf4'
p564
tp565
Rp566
sg1
((dp567
I0
I60
sI1
I1
sI2
tp568
Rp569
g5
(S'-1or3r9k7p7vg1ge361u'
p570
tp571
Rp572
sg1
((dp573
I0
I26
sI2
tp574
Rp575
g5
(S'51t963lg18gureeqhbj7'
p576
tp577
Rp578
sg1
((dp579
I0
I11
sI1
I1
sI2
tp580
Rp581
g5
(S'5fqbtpi72qtuk0'
p582
tp583
Rp584
sg1
((dp585
I0
I78
sI1
I1
sI2
tp586
Rp587
g5
(S'-5n84rc6jnea8'
p588
tp589
Rp590
sg1
((dp591
I0
I49
sI1
I1
sI2
tp592
Rp593
g5
(S'-2a487qjlamp5u608s0'
p594
tp595
Rp596
sg1
((dp597
I1
I2
sI2
tp598
Rp599
g5
(S'bk7ns'
p600
tp601
Rp602
sg1
((dp603
I0
I10
sI1
I2
sI2
tp604
Rp605
g5
(S'-70p8m8dfu'
p606
tp607
Rp608
sg1
((dp609
I0
I72
sI2
tp610
Rp611
g5
(S'itl91hv9aavfdb9sho'
p612
tp613
Rp614
sg1
((dp615
I0
I42
sI1
I1
sI2
tp616
Rp617
g5
(S'995tgukr8168dp8rj0'
p618
tp619
Rp620
sg1
((dp621
I0
I69
sI1
I1
sI2
tp622
Rp623
g5
(S'29kg87loicq30f2fg'
p624
tp625
Rp626
sg1
((dp627
I0
I34
sI2
tp628
Rp629
g5
(S'-8o6j17s7jlouhl5u9kefc'
p630
tp631
Rp632
sg1
((dp633
I0
I6
sI1
I1
sI2
tp634
Rp635
g5
(S'-ac76g1d1hqg'
p636
tp637
Rp638
sg1
((dp639
I0
I49
sI2
tp640
Rp641
g5
(S'hu2srsh4lk6kk5ee8b5o4'
p642
tp643
Rp644
sg1
((dp645
I0
I33
sI1
I2
sI2
tp646
Rp647
g5
(S'-bi0oku6r2'
p648
tp649
Rp650
sg1
((dp651
I0
I57
sI2
tp652
Rp653
g5
(S'7b1853vk3f381tutacnum'
p654
tp655
Rp656
sg1
((dp657
I0
I43
sI2
tp658
Rp659
g5
(S'-1ebkdamj7a4o3973ish428'
p660
tp661
Rp662
sg1
((dp663
I0
I50
sI1
I1
sI2
tp664
Rp665
g5
(S'ag1o0ofq1or4u6e9to'
p666
tp667
Rp668
sg1
((dp669
I0
I82
sI1
I1
sI2
tp670
Rp671
g5
(S'-3iviemk9m'
p672
tp673
Rp674
sg1
((dp675
I0
I9
sI1
I1
sI2
tp676
Rp677
g5
(S'-ho8078adqn7po'
p678
tp679
Rp680
sg1
((dp681
I0
I80
sI2
tp682
Rp683
g5
(S'-7efpp7qjv53hea'
p684
tp685
Rp686
sg1
((dp687
I0
I40
sI1
I1
sI2
tp688
Rp689
g5
(S'-62lm0c7l36t8m61i1e'
p690
tp691
Rp692
sg1
((dp693
I0
I29
sI1
I1
sI2
tp694
Rp695
g5
(S'cu671v2ngvfje9ans'
p696
tp697
Rp698
sg1
((dp699
I0
I19
sI2
tp700
Rp701
g5
(S'-dvj7m1gfaosnpdghjs'
p702
tp703
Rp704
sg1
((dp705
I0
I42
sI2
tp706
Rp707
g5
(S'-4ipbg1dqd5fhuqe56eatc'
p708
tp709
Rp710
sg1
((dp711
I0
I65
sI2
tp712
Rp713
g5
(S'-r3tvte9dvgc2j3svaas'
p714
tp715
Rp716
sg1
((dp717
I0
I4
sI1
I1
sI2
tp718
Rp719
g5
(S'30ipjm66j0'
p720
tp721
Rp722
sg1
((dp723
I0
I59
sI1
I1
sI2
tp724
Rp725
g5
(S'1ssuhfe4auebnkq48og'
p726
tp727
Rp728
sg1
((dp729
I0
I20
sI1
I2
sI2
tp730
Rp731
g5
(S'19qshalgp96'
p732
tp733
Rp734
sg1
((dp735
I0
I23
sI1
I2
sI2
tp736
Rp737
g5
(S'ftnh80s0n0'
p738
tp739
Rp740
sg1
((dp741
I0
I88
sI2
tp742
Rp743
g5
(S'417n'
p744
tp745
Rp746
sg1
((dp747
I0
I72
sI1
I1
sI2
tp748
Rp749
g5
(S'-td0ssnmmrtp956k'
p750
tp751
Rp752
sg1
((dp753
I0
I4
sI2
tp754
Rp755
g5
(S'4g16kum2cgfppa'
p756
tp757
Rp758
sg1
((dp759
I0
I51
sI1
I1
sI2
tp760
Rp761
g5
(S'-mcuqhvaq1hb9a84l20'
p762
tp763
Rp764
sg1
((dp765
I0
I50
sI2
tp766
Rp767
g5
(S'n7j8ccf682eq4emenkrtm'
p768
tp769
Rp770
sg1
((dp771
I0
I38
sI1
I1
sI2
tp772
Rp773
g5
(S'23n26f92jd56e1d57u'
p774
tp775
Rp776
sg1
((dp777
I0
I73
sI2
tp778
Rp779
g5
(S'-4m8nthqm2bl0gpefve'
p780
tp781
Rp782
sg1
((dp783
I0
I41
sI1
I1
sI2
tp784
Rp785
g5
(S'-51i48allk83i9dbclk'
p786
tp787
Rp788
sg1
((dp789
I0
I2
sI1
I1
sI2
tp790
Rp791
g5
(S'-61ttmt9l4k'
p792
tp793
Rp794
sg1
((dp795
I0
I30
sI1
I1
sI2
tp796
Rp797
g5
(S'-1a3hk4rsbqndne1n40'
p798
tp799
Rp800
sg1
((dp801
I0
I81
sI1
I1
sI2
tp802
Rp803
g5
(S'262509kvog'
p804
tp805
Rp806
sg1
((dp807
I0
I42
sI1
I2
sI2
tp808
Rp809
g5
(S'2lfmk'
p810
tp811
Rp812
sg1
((dp813
I0
I12
sI2
tp814
Rp815
g5
(S'-13bkbnm60801747c9'
p816
tp817
Rp818
sg1
((dp819
I0
I5
sI1
I1
sI2
tp820
Rp821
g5
(S'-1675f6u0e80c'
p822
tp823
Rp824
sg1
((dp825
I0
I13
sI1
I2
sI2
tp826
Rp827
g5
(S'-3a3j3aqbfu'
p828
tp829
Rp830
sg1
((dp831
I0
I62
sI1
I1
sI2
tp832
Rp833
g5
(S'-102k76s3ou5qdsf4cgq'
p834
tp835
Rp836
sg1
((dp837
I0
I58
sI2
tp838
Rp839
g5
(S'-30fs4p84rk5fdp0gq2t9b'
p840
tp841
Rp842
sg1
((dp843
I0
I81
sI2
tp844
Rp845
g5
(S'-9k8sp0pk11e44'
p846
tp847
Rp848
sg1
((dp849
I0
I36
sI1
I1
sI2
tp850
Rp851
g5
(S'1nn4dfqj4gbrjeqo26'
p852
tp853
Rp854
sg1
((dp855
I0
I39
sI1
I1
sI2
tp856
Rp857
g5
(S'701fug3c10hog61fhg'
p858
tp859
Rp860
sg1
((dp861
I1
I1
sI2
tp862
Rp863
g5
(S'-240hrpqi0'
p864
tp865
Rp866
sg1
((dp867
I0
I20
sI2
tp868
Rp869
g5
(S'2kknivt110g8evsl1c9'
p870
tp871
Rp872
sg1
((dp873
I0
I64
sI1
I1
sI2
tp874
Rp875
g5
(S'-addmj5q5mt5dn2sbgq'
p876
tp877
Rp878
sg1
((dp879
I0
I66
sI2
tp880
Rp881
g5
(S'7ct0llp9ige88bpdmgm'
p882
tp883
Rp884
sg1
((dp885
I0
I35
sI1
I2
sI2
tp886
Rp887
g5
(S'a5lajm2lo'
p888
tp889
Rp890
sg1
((dp891
I0
I52
sI1
I1
sI2
tp892
Rp893
g5
(S'mvqoh22cj1lk2g3r98'
p894
tp895
Rp896
sg1
((dp897
I0
I5
sI2
tp898
Rp899
g5
(S'2nbtvitotd4fpc'
p900
tp901
Rp902
sg1
((dp903
I0
I34
sI1
I1
sI2
tp904
Rp905
g5
(S'-2q9guun6mb0qu2a5pa'
p906
tp907
Rp908
sg1
((dp909
I0
I53
sI1
I1
sI2
tp910
Rp911
g5
(S'-90855scckjnh76tua0'
p912
tp913
Rp914
sg1
((dp915
I0
I28
sI2
tp916
Rp917
g5
(S'-j28k7n1ah1kg8hvul5b1'
p918
tp919
Rp920
sg1
((dp921
I0
I37
sI1
I1
sI2
tp922
Rp923
g5
(S'-6rl5a2a6k67314jfk8'
p924
tp925
Rp926
sg1
((dp927
I0
I30
sI1
I2
sI2
tp928
Rp929
g5
(S'-192h5u04p'
p930
tp931
Rp932
sg1
((dp933
I0
I51
sI2
tp934
Rp935
g5
(S'-19fa491qob8eqos8vri03o'
p936
tp937
Rp938
sg1
((dp939
I0
I74
sI2
tp940
Rp941
g5
(S'qcjd5osii73eonps3'
p942
tp943
Rp944
sg1
((dp945
I0
I1
sI1
I1
sI2
tp946
Rp947
g5
(S'pjpmktigg'
p948
tp949
Rp950
sg1
((dp951
I0
I61
sI1
I1
sI2
tp952
Rp953
g5
(S'1dsdffda2v9n3t4vta0'
p954
tp955
Rp956
sg1
((dp957
I0
I22
sI1
I2
sI2
tp958
Rp959
g5
(S'-273ehieq7k'
p960
tp961
Rp962
sg1
((dp963
I0
I13
sI2
tp964
Rp965
g5
(S'-1n4jm5gk6815evjc0'
p966
tp967
Rp968
sg1
((dp969
I0
I11
sI2
tp970
Rp971
g5
(S'oir2hcrloe5pmk8c'
p972
tp973
Rp974
sg1
((dp975
I0
I25
sI1
I2
sI2
tp976
Rp977
g5
(S'1673qi87jtk'
p978
tp979
Rp980
sg1
((dp981
I0
I71
sI1
I1
sI2
tp982
Rp983
g5
(S'4eb8e4jng81ga8u0'
p984
tp985
Rp986
sg1
((dp987
I0
I74
sI1
I1
sI2
tp988
Rp989
g5
(S'-s58m8ulg38eqgc'
p990
tp991
Rp992
sg1
((dp993
I0
I32
sI1
I1
sI2
tp994
Rp995
g5
(S'286sddb37hma8h6rrc'
p996
tp997
Rp998
sg1
((dp999
I0
I36
sI2
tp1000
Rp1001
g5
(S'60ighgapackbc3592550d'
p1002
tp1003
Rp1004
sg1
((dp1005
I0
I17
sI1
I2
sI2
tp1006
Rp1007
g5
(S'artfg7drlm'
p1008
tp1009
Rp1010
sg1
((dp1011
I0
I59
sI2
tp1012
Rp1013
g5
(S'62jh2jtvq5phqi099v9k'
p1014
tp1015
Rp1016
sg1
((dp1017
I0
I82
sI2
tp1018
Rp1019
g5
(S'2jnnvdcdd0vd2'
p1020
tp1021
Rp1022
sg1
((dp1023
I0
I5
sI1
I2
sI2
tp1024
Rp1025
g5
(S'-6rkkk55q'
p1026
tp1027
Rp1028
sg1
((dp1029
I0
I21
sI2
tp1030
Rp1031
g5
(S'-2bvhlaom0tqtdi9i7ba'
p1032
tp1033
Rp1034
sg1
((dp1035
I0
I14
sI1
I1
sI2
tp1036
Rp1037
g5
(S'3unqqfkc52mmiv6'
p1038
tp1039
Rp1040
sg1
((dp1041
I0
I83
sI1
I1
sI2
tp1042
Rp1043
g5
(S'4qmbo2ng'
p1044
tp1045
Rp1046
sg1
((dp1047
I0
I12
sI1
I2
sI2
tp1048
Rp1049
g5
(S'2op6gj7km3'
p1050
tp1051
Rp1052
sg1
((dp1053
I0
I44
sI2
tp1054
Rp1055
g5
(S'21nimfjgqtjrbn96dq97li'
p1056
tp1057
Rp1058
sg1
((dp1059
I0
I15
sI1
I2
sI2
tp1060
Rp1061
g5
(S'9192b7kr7g'
p1062
tp1063
Rp1064
sg1
((dp1065
I0
I35
sI2
tp1066
Rp1067
g5
(S'7fpf6s91aban72qdkekp4'
p1068
tp1069
Rp1070
sg1
((dp1071
I0
I67
sI2
tp1072
Rp1073
g5
(S'-9ofc5gked9efah9v50s'
p1074
tp1075
Rp1076
sg1
((dp1077
I0
I6
sI2
tp1078
Rp1079
g5
(S'-371j96um5ao5a3k'
p1080
tp1081
Rp1082
sg1
((dp1083
I0
I33
sI1
I1
sI2
tp1084
Rp1085
g5
(S'-1er0e5l89b4ppe3c38'
p1086
tp1087
Rp1088
sg1
((dp1089
I0
I87
sI1
I1
sI2
tp1090
Rp1091
g5
(S'uj0'
p1092
tp1093
Rp1094
sg1
((dp1095
I0
I29
sI2
tp1096
Rp1097
g5
(S'mgr3l8e3p81n2obh4poo'
p1098
tp1099
Rp1100
sg1
((dp1101
I0
I32
sI1
I2
sI2
tp1102
Rp1103
g5
(S'22ncikhj3a'
p1104
tp1105
Rp1106
sg1
((dp1107
I0
I52
sI2
tp1108
Rp1109
g5
(S'120kn0gb11omu6kee19sdo'
p1110
tp1111
Rp1112
sg1
((dp1113
I0
I2
sI2
tp1114
Rp1115
g5
(S'-17quv1aa63vpg'
p1116
tp1117
Rp1118
sg1
((dp1119
I0
I73
sI1
I1
sI2
tp1120
Rp1121
g5
(S'5cqrebi9v6g085g'
p1122
tp1123
Rp1124
sg1
((dp1125
I0
I34
sI1
I2
sI2
tp1126
Rp1127
g5
(S'-e2ijhio8m'
p1128
tp1129
Rp1130
sg1
((dp1131
I0
I28
sI1
I1
sI2
tp1132
Rp1133
g5
(S'hcv76eq1cesc94gsc'
p1134
tp1135
Rp1136
sg1
((dp1137
I0
I37
sI1
I2
sI2
tp1138
Rp1139
g5
(S'657o9ure'
p1140
tp1141
Rp1142
sg1
((dp1143
I0
I54
sI1
I1
sI2
tp1144
Rp1145
g5
(S'-a90lt1eue5j9c4si6o'
p1146
tp1147
Rp1148
sg1
((dp1149
I0
I37
sI2
tp1150
Rp1151
g5
(S'-llg84mof27j93okpj6uki'
p1152
tp1153
Rp1154
sg1
((dp1155
I0
I31
sI1
I1
sI2
tp1156
Rp1157
g5
(S'2g7bqv4oqg7qqdbu0'
p1158
tp1159
Rp1160
sg1
((dp1161
I0
I3
sI1
I2
sI2
tp1162
Rp1163
g5
(S'8kcss88'
p1164
tp1165
Rp1166
sg1
((dp1167
I0
I60
sI2
tp1168
Rp1169
g5
(S'vk6cpnpm8pmcjravlev9'
p1170
tp1171
Rp1172
sg1
((dp1173
I0
I83
sI2
tp1174
Rp1175
g5
(S'-4lh2boj1t954'
p1176
tp1177
Rp1178
sg1
((dp1179
I0
I22
sI2
tp1180
Rp1181
g5
(S'-92jlr8qlsobt2hvnbo9'
p1182
tp1183
Rp1184
sg1
((dp1185
I0
I84
sI1
I1
sI2
tp1186
Rp1187
g5
(S'-56108em'
p1188
tp1189
Rp1190
sg1
((dp1191
I0
I24
sI1
I2
sI2
tp1192
Rp1193
g5
(S'-s8nnreq6rq'
p1194
tp1195
Rp1196
sg1
((dp1197
I0
I45
sI2
tp1198
Rp1199
g5
(S'-123o9ggbqhedlce89hqcuk'
p1200
tp1201
Rp1202
sg1
((dp1203
I0
I27
sI1
I2
sI2
tp1204
Rp1205
g5
(S'9a0f8erc08'
p1206
tp1207
Rp1208
sg1
((dp1209
I0
I76
sI1
I1
sI2
tp1210
Rp1211
g5
(S'-gg91mgmd81e44'
p1212
tp1213
Rp1214
sg1
((dp1215
I0
I68
sI2
tp1216
Rp1217
g5
(S'atoo5n1rk24n5id2ril'
p1218
tp1219
Rp1220
sg1
((dp1221
I0
I75
sI2
tp1222
Rp1223
g5
(S'-2a0o9d0acoppgo87c'
p1224
tp1225
Rp1226
sg1
((dp1227
I0
I7
sI2
tp1228
Rp1229
g5
(S'5i9igtrqfgl0im0'
p1230
tp1231
Rp1232
sg1
((dp1233
I0
I30
sI2
tp1234
Rp1235
g5
(S'ij31mmq72bd7t8n10u24'
p1236
tp1237
Rp1238
sg1
((dp1239
I0
I2
sI1
I2
sI2
tp1240
Rp1241
g5
(S'-2bf2f02'
p1242
tp1243
Rp1244
sg1
((dp1245
I0
I53
sI2
tp1246
Rp1247
g5
(S'-e45j13k7rudvhe1ubfd94'
p1248
tp1249
Rp1250
sg1
((dp1251
I0
I63
sI1
I1
sI2
tp1252
Rp1253
g5
(S'jh25jtshc7kv43nao0'
p1254
tp1255
Rp1256
sg1
((dp1257
I0
I24
sI1
I1
sI2
tp1258
Rp1259
g5
(S'-1leb10e876uikdfk'
p1260
tp1261
Rp1262
sg1
((dp1263
I0
I85
sI1
I1
sI2
tp1264
Rp1265
g5
(S'48iosg'
p1266
tp1267
Rp1268
sg1
((dp1269
I0
I14
sI1
I2
sI2
tp1270
Rp1271
g5
(S'-1p22dl3fp8'
p1272
tp1273
Rp1274
sg1
((dp1275
I0
I76
sI2
tp1276
Rp1277
g5
(S'-a74dqmuassnj2lk1'
p1278
tp1279
Rp1280
sg1
((dp1281
I0
I27
sI1
I1
sI2
tp1282
Rp1283
g5
(S'-bs7p93nkj2db9i4do'
p1284
tp1285
Rp1286
sg1
((dp1287
I0
I66
sI1
I1
sI2
tp1288
Rp1289
g5
(S'-213e1ng8ogmj4g4t7g'
p1290
tp1291
Rp1292
sg1
((dp1293
I0
I15
sI2
tp1294
Rp1295
g5
(S'-h6u032itq6j28hv4g'
p1296
tp1297
Rp1298
sg1
((dp1299
I0
I38
sI2
tp1300
Rp1301
g5
(S'jnnpq77nqrkd2cov4vhkb'
p1302
tp1303
Rp1304
sg1
((dp1305
I0
I14
sI2
tp1306
Rp1307
g5
(S'9kaqh10unbop7lohm'
p1308
tp1309
Rp1310
sg1
((dp1311
I0
I61
sI2
tp1312
Rp1313
g5
(S'-12l56hdgr1asej99pnn64'
p1314
tp1315
Rp1316
sg1
((dp1317
I0
I7
sI1
I1
sI2
tp1318
Rp1319
g5
(S'12hc9pc9gohag'
p1320
tp1321
Rp1322
sg1
((dp1323
I0
I22
sI1
I1
sI2
tp1324
Rp1325
g5
(S'jr5phirij1olsjc4'
p1326
tp1327
Rp1328
sg1
((dp1329
I0
I84
sI2
tp1330
Rp1331
g5
(S'-10b6vs3lspt'
p1332
tp1333
Rp1334
s.