(dp0
csage.rings.polynomial.polydict
make_ETuple
p1
((dp2
I0
I1
sI2
tp3
Rp4
csage.rings.integer
make_integer
p5
(S'7dg'
p6
tp7
Rp8
sg1
((dp9
I2
tp10
Rp11
g5
(S'-27b0'
p12
tp13
Rp14
sg1
((dp15
I0
I2
sI2
tp16
Rp17
g5
(S'1uq'
p18
tp19
Rp20
sg1
((dp21
I0
I4
sI2
tp22
Rp23
g5
(S'-5'
p24
tp25
Rp26
s.