(dp0
csage.rings.polynomial.polydict
make_ETuple
p1
((dp2
I0
I1
sI2
tp3
Rp4
csage.rings.integer
make_integer
p5
(S'-cfvg'
p6
tp7
Rp8
sg1
((dp9
I2
tp10
Rp11
g5
(S'5mib'
p12
tp13
Rp14
sg1
((dp15
I0
I2
sI2
tp16
Rp17
g5
(S'-2smt'
p18
tp19
Rp20
sg1
((dp21
I0
I3
sI2
tp22
Rp23
g5
(S'5ig'
p24
tp25
Rp26
sg1
((dp27
I0
I4
sI2
tp28
Rp29
g5
(S'1np'
p30
tp31
Rp32
sg1
((dp33
I0
I6
sI2
tp34
Rp35
g5
(S'-7'
p36
tp37
Rp38
s.