(dp0
csage.rings.polynomial.polydict
make_ETuple
p1
((dp2
I2
tp3
Rp4
csage.rings.integer
make_integer
p5
(S'8pqi387unr3jen00000'
p6
tp7
Rp8
sg1
((dp9
I0
I68
sI1
I2
sI2
tp10
Rp11
g5
(S'1ab45c82d08uaa'
p12
tp13
Rp14
sg1
((dp15
I0
I71
sI1
I2
sI2
tp16
Rp17
g5
(S'b5r9o'
p18
tp19
Rp20
sg1
((dp21
I0
I56
sI1
I1
sI2
tp22
Rp23
g5
(S'g8cn09hjph0iit4k9v9bsgf0'
p24
tp25
Rp26
sg1
((dp27
I0
I8
sI1
I5
sI2
tp28
Rp29
g5
(S'-j7hg4ems'
p30
tp31
Rp32
sg1
((dp33
I0
I1
sI1
I1
sI2
tp34
Rp35
g5
(S'2chodd2fnblr3v4000'
p36
tp37
Rp38
sg1
((dp39
I0
I46
sI2
tp40
Rp41
g5
(S'8d7e4k788slq22hmof76p85u7e40'
p42
tp43
Rp44
sg1
((dp45
I0
I39
sI2
tp46
Rp47
g5
(S'tagof97lr2155ssvsn084nukofi0'
p48
tp49
Rp50
sg1
((dp51
I0
I18
sI1
I4
sI2
tp52
Rp53
g5
(S'-8n1dib7ic6cbrfo'
p54
tp55
Rp56
sg1
((dp57
I0
I23
sI1
I1
sI2
tp58
Rp59
g5
(S'-1svv4kltvllb1vmor2v7gsc1fo'
p60
tp61
Rp62
sg1
((dp63
I0
I40
sI1
I4
sI2
tp64
Rp65
g5
(S'1kb11o78s5ng'
p66
tp67
Rp68
sg1
((dp69
I0
I13
sI2
tp70
Rp71
g5
(S'26ppi7561gvi1u3bdjmk4em2o0'
p72
tp73
Rp74
sg1
((dp75
I0
I18
sI1
I3
sI2
tp76
Rp77
g5
(S'-4h7bu5go2281oetsqt00'
p78
tp79
Rp80
sg1
((dp81
I0
I32
sI2
tp82
Rp83
g5
(S'14id2rbift2eshp73ss7ke9t50r5i'
p84
tp85
Rp86
sg1
((dp87
I0
I45
sI1
I1
sI2
tp88
Rp89
g5
(S'r4ckjelh9ithqb42emlpu1ov78'
p90
tp91
Rp92
sg1
((dp93
I0
I6
sI1
I2
sI2
tp94
Rp95
g5
(S'4n598345e8mqjbhgs2o'
p96
tp97
Rp98
sg1
((dp99
I0
I21
sI1
I3
sI2
tp100
Rp101
g5
(S'2gen11isj9og09nhkftek'
p102
tp103
Rp104
sg1
((dp105
I0
I9
sI1
I2
sI2
tp106
Rp107
g5
(S'fea94iarso4tp58ihfg'
p108
tp109
Rp110
sg1
((dp111
I0
I40
sI1
I3
sI2
tp112
Rp113
g5
(S'-1i1acqfbiobub5kq6cceo'
p114
tp115
Rp116
sg1
((dp117
I0
I67
sI1
I1
sI2
tp118
Rp119
g5
(S'-p58naje7jof2k881gg'
p120
tp121
Rp122
sg1
((dp123
I0
I28
sI1
I2
sI2
tp124
Rp125
g5
(S'5ol1bkrktddqhq2cfsgjuq18'
p126
tp127
Rp128
sg1
((dp129
I0
I43
sI1
I3
sI2
tp130
Rp131
g5
(S'-12elonkuureioua6uoj50'
p132
tp133
Rp134
sg1
((dp135
I0
I31
sI1
I2
sI2
tp136
Rp137
g5
(S'1q792k76ac7g78587954aa060'
p138
tp139
Rp140
sg1
((dp141
I0
I25
sI2
tp142
Rp143
g5
(S'-9hp51h2accmtgs8rvrrok1lrcmj0'
p144
tp145
Rp146
sg1
((dp147
I0
I16
sI1
I1
sI2
tp148
Rp149
g5
(S'20ff50g692r986j9botluiu70'
p150
tp151
Rp152
sg1
((dp153
I0
I19
sI1
I5
sI2
tp154
Rp155
g5
(S'5puoh5k'
p156
tp157
Rp158
sg1
((dp159
I0
I7
sI1
I4
sI2
tp160
Rp161
g5
(S'-4nunsepbb4i3g'
p162
tp163
Rp164
sg1
((dp165
I0
I71
sI2
tp166
Rp167
g5
(S'5jm51160'
p168
tp169
Rp170
sg1
((dp171
I0
I62
sI1
I3
sI2
tp172
Rp173
g5
(S'-h9of67g4lhg0'
p174
tp175
Rp176
sg1
((dp177
I0
I50
sI1
I2
sI2
tp178
Rp179
g5
(S'94cngga0lc0erdevkff6d2o'
p180
tp181
Rp182
sg1
((dp183
I0
I65
sI1
I3
sI2
tp184
Rp185
g5
(S'-cmmk1k0ga0'
p186
tp187
Rp188
sg1
((dp189
I0
I53
sI1
I2
sI2
tp190
Rp191
g5
(S'3ktghn839fuj2oi9cp808r4'
p192
tp193
Rp194
sg1
((dp195
I0
I38
sI1
I1
sI2
tp196
Rp197
g5
(S'-4dqh8goq7chfpmr5raklsa74oc8'
p198
tp199
Rp200
sg1
((dp201
I0
I29
sI1
I4
sI2
tp202
Rp203
g5
(S'57r357t1eeu6124'
p204
tp205
Rp206
sg1
((dp207
I0
I18
sI2
tp208
Rp209
g5
(S'emfq27a5nsjn79v95thle4qb25g'
p210
tp211
Rp212
sg1
((dp213
I0
I64
sI2
tp214
Rp215
g5
(S'8bp67smsk3bafru6t4ran7m'
p216
tp217
Rp218
sg1
((dp219
I0
I60
sI1
I1
sI2
tp220
Rp221
g5
(S'-78ptshiu83om6tpm4lk244g'
p222
tp223
Rp224
sg1
((dp225
I0
I12
sI1
I5
sI2
tp226
Rp227
g5
(S'-24u3djh2k'
p228
tp229
Rp230
sg1
((dp231
I1
I4
sI2
tp232
Rp233
g5
(S'k9vkhqd8'
p234
tp235
Rp236
sg1
((dp237
I0
I5
sI1
I1
sI2
tp238
Rp239
g5
(S'-mo261h9h49q991dkldo0'
p240
tp241
Rp242
sg1
((dp243
I0
I57
sI2
tp244
Rp245
g5
(S'-3sbsc18oru2v6s66tskchi88b0'
p246
tp247
Rp248
sg1
((dp249
I0
I22
sI1
I4
sI2
tp250
Rp251
g5
(S'1r4hrssifs83fvio'
p252
tp253
Rp254
sg1
((dp255
I1
I3
sI2
tp256
Rp257
g5
(S'6ah735ggco80'
p258
tp259
Rp260
sg1
((dp261
I0
I27
sI1
I1
sI2
tp262
Rp263
g5
(S'-3b06u7cm9q5ls7okvbu1tocoho'
p264
tp265
Rp266
sg1
((dp267
I0
I3
sI1
I3
sI2
tp268
Rp269
g5
(S'1cc0kk4a8kjcl0'
p270
tp271
Rp272
sg1
((dp273
I0
I4
sI2
tp274
Rp275
g5
(S'-bn4bgb63skfriamvfm800'
p276
tp277
Rp278
sg1
((dp279
I0
I50
sI2
tp280
Rp281
g5
(S'-23jvtjud2579j1l8sc9pgr8sfdtg'
p282
tp283
Rp284
sg1
((dp285
I0
I44
sI1
I4
sI2
tp286
Rp287
g5
(S'6453k4r8'
p288
tp289
Rp290
sg1
((dp291
I0
I22
sI1
I3
sI2
tp292
Rp293
g5
(S'-1m378pcsevrtdq23g1oig'
p294
tp295
Rp296
sg1
((dp297
I0
I49
sI1
I1
sI2
tp298
Rp299
g5
(S'-6kgrdea75mu70mgs287ogdqcuc'
p300
tp301
Rp302
sg1
((dp303
I0
I10
sI1
I2
sI2
tp304
Rp305
g5
(S'1hq6lv52cq5eu799o9ruo'
p306
tp307
Rp308
sg1
((dp309
I0
I25
sI1
I3
sI2
tp310
Rp311
g5
(S'fg9l496pmob7095ifr18s'
p312
tp313
Rp314
sg1
((dp315
I0
I13
sI1
I2
sI2
tp316
Rp317
g5
(S'3l182u9sco4esu9g1a744'
p318
tp319
Rp320
sg1
((dp321
I0
I16
sI2
tp322
Rp323
g5
(S'-2v9onei1q8kqoji5037ri4rihge'
p324
tp325
Rp326
sg1
((dp327
I0
I1
sI1
I5
sI2
tp328
Rp329
g5
(S'-rqerio'
p330
tp331
Rp332
sg1
((dp333
I0
I44
sI1
I3
sI2
tp334
Rp335
g5
(S'-9b9ltgbkf54jesfef2ss'
p336
tp337
Rp338
sg1
((dp339
I0
I43
sI2
tp340
Rp341
g5
(S'-ariergke13ndurn4giar7j9imbs0'
p342
tp343
Rp344
sg1
((dp345
I0
I32
sI1
I2
sI2
tp346
Rp347
g5
(S'14llq1fshmc7mvth7h97m9f34'
p348
tp349
Rp350
sg1
((dp351
I0
I47
sI1
I3
sI2
tp352
Rp353
g5
(S'-13a1t2q93qudfrlsm5og'
p354
tp355
Rp356
sg1
((dp357
I0
I35
sI1
I2
sI2
tp358
Rp359
g5
(S'30com5j8tcq5sn2pt9a43fjms'
p360
tp361
Rp362
sg1
((dp363
I0
I20
sI1
I1
sI2
tp364
Rp365
g5
(S'oe4uvsdgq7nsq36fs4dqatgs8'
p366
tp367
Rp368
sg1
((dp369
I0
I11
sI1
I4
sI2
tp370
Rp371
g5
(S'-1ovcd8fsam4pc0'
p372
tp373
Rp374
sg1
((dp375
I0
I66
sI1
I3
sI2
tp376
Rp377
g5
(S'jk78d6r50'
p378
tp379
Rp380
sg1
((dp381
I0
I54
sI1
I2
sI2
tp382
Rp383
g5
(S'3ag1o9pi0570nmab51ta6mg'
p384
tp385
Rp386
sg1
((dp387
I0
I69
sI1
I3
sI2
tp388
Rp389
g5
(S'-5kjk24'
p390
tp391
Rp392
sg1
((dp393
I0
I57
sI1
I2
sI2
tp394
Rp395
g5
(S'-56vppj454m1g13mgjeln6o'
p396
tp397
Rp398
sg1
((dp399
I0
I42
sI1
I1
sI2
tp400
Rp401
g5
(S'-sdk2hilbdh7m2726urf358h1l8'
p402
tp403
Rp404
sg1
((dp405
I0
I36
sI2
tp406
Rp407
g5
(S'-u82rs915v3df2m9d94aea67c3j3c'
p408
tp409
Rp410
sg1
((dp411
I0
I33
sI1
I4
sI2
tp412
Rp413
g5
(S'-fp5pode8hm4c9g'
p414
tp415
Rp416
sg1
((dp417
I0
I64
sI1
I1
sI2
tp418
Rp419
g5
(S'41kkk64tkpc6c4rqsql8g'
p420
tp421
Rp422
sg1
((dp423
I0
I29
sI2
tp424
Rp425
g5
(S'-oil48927tggiaflgpguaglkcj4r0'
p426
tp427
Rp428
sg1
((dp429
I0
I16
sI1
I5
sI2
tp430
Rp431
g5
(S'-iu5g2im4'
p432
tp433
Rp434
sg1
((dp435
I0
I4
sI1
I4
sI2
tp436
Rp437
g5
(S'-aium41sp1mo'
p438
tp439
Rp440
sg1
((dp441
I0
I9
sI1
I1
sI2
tp442
Rp443
g5
(S'-dv06ojcvrf9v875hg074ng'
p444
tp445
Rp446
sg1
((dp447
I0
I26
sI1
I4
sI2
tp448
Rp449
g5
(S'12di1fd429mgmrm8'
p450
tp451
Rp452
sg1
((dp453
I0
I22
sI2
tp454
Rp455
g5
(S'4f3g4i1fbjgmq0tdedf7a9do67n0'
p456
tp457
Rp458
sg1
((dp459
I0
I4
sI1
I3
sI2
tp460
Rp461
g5
(S'-18p4dtkce883380'
p462
tp463
Rp464
sg1
((dp465
I0
I31
sI1
I1
sI2
tp466
Rp467
g5
(S'1r387ng5ku0vvpo58p7c0vkdab0'
p468
tp469
Rp470
sg1
((dp471
I0
I7
sI1
I3
sI2
tp472
Rp473
g5
(S'-sd6u8q07qgdqd4d0'
p474
tp475
Rp476
sg1
((dp477
I0
I68
sI2
tp478
Rp479
g5
(S'4a4r8fd2i3quvej1ajc'
p480
tp481
Rp482
sg1
((dp483
I0
I26
sI1
I3
sI2
tp484
Rp485
g5
(S'-71srn93nofnevidlddja0'
p486
tp487
Rp488
sg1
((dp489
I0
I53
sI1
I1
sI2
tp490
Rp491
g5
(S'-65cbammhktdl8srf9tdu6jtas'
p492
tp493
Rp494
sg1
((dp495
I0
I14
sI1
I2
sI2
tp496
Rp497
g5
(S'2jlftqp4dshg6ci99qgpjg'
p498
tp499
Rp500
sg1
((dp501
I0
I29
sI1
I3
sI2
tp502
Rp503
g5
(S'185noctme0iuhkk6s3qkb4'
p504
tp505
Rp506
sg1
((dp507
I0
I17
sI1
I2
sI2
tp508
Rp509
g5
(S'-cdo05rm3j073llscrbdi34'
p510
tp511
Rp512
sg1
((dp513
I0
I2
sI1
I1
sI2
tp514
Rp515
g5
(S'-14bm9ttqhkj5t32b000'
p516
tp517
Rp518
sg1
((dp519
I0
I5
sI1
I5
sI2
tp520
Rp521
g5
(S'-c8hms6uc'
p522
tp523
Rp524
sg1
((dp525
I0
I61
sI2
tp526
Rp527
g5
(S'90pfo0afnpsg74333jrhrsd0'
p528
tp529
Rp530
sg1
((dp531
I0
I48
sI1
I3
sI2
tp532
Rp533
g5
(S'-cvga46fiincqccnr9ng'
p534
tp535
Rp536
sg1
((dp537
I0
I36
sI1
I2
sI2
tp538
Rp539
g5
(S'33e2ki0h0uu5oviu2a9gqn4pc'
p540
tp541
Rp542
sg1
((dp543
I0
I51
sI1
I3
sI2
tp544
Rp545
g5
(S'-8f5pv9rd3usbopffu4'
p546
tp547
Rp548
sg1
((dp549
I0
I39
sI1
I2
sI2
tp550
Rp551
g5
(S'1i0nnm6c1bpnesllrvdtrmb48'
p552
tp553
Rp554
sg1
((dp555
I0
I24
sI1
I1
sI2
tp556
Rp557
g5
(S'10gfhk0r8cs0595rnk0i996as0'
p558
tp559
Rp560
sg1
((dp561
I0
I15
sI1
I4
sI2
tp562
Rp563
g5
(S'6jrnsnvd7q77870'
p564
tp565
Rp566
sg1
((dp567
I0
I8
sI2
tp568
Rp569
g5
(S'-5mpaqk9mlqli6a0btkbofmg0'
p570
tp571
Rp572
sg1
((dp573
I0
I54
sI2
tp574
Rp575
g5
(S'9b4o2crjccu6f100junsbmdve50'
p576
tp577
Rp578
sg1
((dp579
I0
I70
sI1
I3
sI2
tp580
Rp581
g5
(S'1dhn0'
p582
tp583
Rp584
sg1
((dp585
I0
I58
sI1
I2
sI2
tp586
Rp587
g5
(S'-hqg737se2dsd2rnutorrg'
p588
tp589
Rp590
sg1
((dp591
I0
I61
sI1
I2
sI2
tp592
Rp593
g5
(S'10f21rrs9928cn5c9e7do'
p594
tp595
Rp596
sg1
((dp597
I0
I46
sI1
I1
sI2
tp598
Rp599
g5
(S'sp68fu34a209u15g5an6arqkpg'
p600
tp601
Rp602
sg1
((dp603
I0
I37
sI1
I4
sI2
tp604
Rp605
g5
(S'43sd8e1drc4ko'
p606
tp607
Rp608
sg1
((dp609
I0
I1
sI2
tp610
Rp611
g5
(S'2rsbuqiecipic69g0000'
p612
tp613
Rp614
sg1
((dp615
I0
I68
sI1
I1
sI2
tp616
Rp617
g5
(S'531pdl5m0f1t5o4h8'
p618
tp619
Rp620
sg1
((dp621
I0
I47
sI2
tp622
Rp623
g5
(S'2l19st589himpmfjjf4ivjml50o0'
p624
tp625
Rp626
sg1
((dp627
I0
I20
sI1
I5
sI2
tp628
Rp629
g5
(S'5vm7rg'
p630
tp631
Rp632
sg1
((dp633
I0
I8
sI1
I4
sI2
tp634
Rp635
g5
(S'ql0sr9g05gqmq'
p636
tp637
Rp638
sg1
((dp639
I0
I13
sI1
I1
sI2
tp640
Rp641
g5
(S'-1f4sd35ktbpaot1blo9507u8'
p642
tp643
Rp644
sg1
((dp645
I0
I40
sI2
tp646
Rp647
g5
(S'60gjduh9aa5i590blpq578vpqpqu'
p648
tp649
Rp650
sg1
((dp651
I0
I8
sI1
I3
sI2
tp652
Rp653
g5
(S'1gal1hj8t8tngj0b0'
p654
tp655
Rp656
sg1
((dp657
I0
I35
sI1
I1
sI2
tp658
Rp659
g5
(S'4k60l8737ppginmjp2s3tfuj0ag'
p660
tp661
Rp662
sg1
((dp663
I0
I11
sI1
I3
sI2
tp664
Rp665
g5
(S'-9spaardv7h0dgposdg'
p666
tp667
Rp668
sg1
((dp669
I0
I71
sI1
I3
sI2
tp670
Rp671
g5
(S'-548'
p672
tp673
Rp674
sg1
((dp675
I0
I30
sI1
I3
sI2
tp676
Rp677
g5
(S'-a0mv5k2lep79okoran0g0'
p678
tp679
Rp680
sg1
((dp681
I0
I57
sI1
I1
sI2
tp682
Rp683
g5
(S'e9o16k52snv24dfkh62kjh60'
p684
tp685
Rp686
sg1
((dp687
I0
I18
sI1
I2
sI2
tp688
Rp689
g5
(S'vf0qp2pcebk9hcm771h4m8'
p690
tp691
Rp692
sg1
((dp693
I0
I33
sI1
I3
sI2
tp694
Rp695
g5
(S'1cmb1jdg2rf0tgef1p9ks0'
p696
tp697
Rp698
sg1
((dp699
I0
I21
sI1
I2
sI2
tp700
Rp701
g5
(S'-f79rp5ucc9154uleetglrgc'
p702
tp703
Rp704
sg1
((dp705
I0
I6
sI1
I1
sI2
tp706
Rp707
g5
(S'-9lecd8jenqpka0s4tlao0'
p708
tp709
Rp710
sg1
((dp711
I0
I9
sI1
I5
sI2
tp712
Rp713
g5
(S'-3oua1qa7c'
p714
tp715
Rp716
sg1
((dp717
I0
I52
sI1
I3
sI2
tp718
Rp719
g5
(S'-3irlt446t5eugmtka8'
p720
tp721
Rp722
sg1
((dp723
I0
I40
sI1
I2
sI2
tp724
Rp725
g5
(S'3aegm1qh0rnir8fma8v21f2as'
p726
tp727
Rp728
sg1
((dp729
I0
I55
sI1
I3
sI2
tp730
Rp731
g5
(S'-k3c9rd1qbv7sbloo'
p732
tp733
Rp734
sg1
((dp735
I0
I43
sI1
I2
sI2
tp736
Rp737
g5
(S'-9ta21osnb4dm9868e2a4jjn8'
p738
tp739
Rp740
sg1
((dp741
I0
I28
sI1
I1
sI2
tp742
Rp743
g5
(S'-murvl20v39d83bjji90b6rtd2g'
p744
tp745
Rp746
sg1
((dp747
I0
I26
sI2
tp748
Rp749
g5
(S'7ji95aiadgr3p3a2pic6ignvgb30'
p750
tp751
Rp752
sg1
((dp753
I0
I19
sI1
I4
sI2
tp754
Rp755
g5
(S'15mt032i7uskipao'
p756
tp757
Rp758
sg1
((dp759
I0
I72
sI2
tp760
Rp761
g5
(S'58q'
p762
tp763
Rp764
sg1
((dp765
I0
I62
sI1
I2
sI2
tp766
Rp767
g5
(S'4jtv14co34ljsbmqmmo0'
p768
tp769
Rp770
sg1
((dp771
I0
I65
sI1
I2
sI2
tp772
Rp773
g5
(S'11u43tcof3ff1n6ojc'
p774
tp775
Rp776
sg1
((dp777
I0
I50
sI1
I1
sI2
tp778
Rp779
g5
(S'jh8f9turarfull505rf6ejs90'
p780
tp781
Rp782
sg1
((dp783
I0
I41
sI1
I4
sI2
tp784
Rp785
g5
(S'4ras4tcpcs2'
p786
tp787
Rp788
sg1
((dp789
I0
I2
sI1
I5
sI2
tp790
Rp791
g5
(S'-3n7qeho'
p792
tp793
Rp794
sg1
((dp795
I0
I19
sI2
tp796
Rp797
g5
(S'-3dgl9hhrhru0ioumaitbb8ie3l0'
p798
tp799
Rp800
sg1
((dp801
I0
I65
sI2
tp802
Rp803
g5
(S'-13qbl6qh2vb9hu2r996hgqg'
p804
tp805
Rp806
sg1
((dp807
I0
I30
sI1
I1
sI2
tp808
Rp809
g5
(S'1e72rj26p1n59qvl4m47ptosmj0'
p810
tp811
Rp812
sg1
((dp813
I0
I12
sI1
I4
sI2
tp814
Rp815
g5
(S'21p8ft882jjf3js'
p816
tp817
Rp818
sg1
((dp819
I0
I17
sI1
I1
sI2
tp820
Rp821
g5
(S'-eqqhu193tolubesqi46hqgf4'
p822
tp823
Rp824
sg1
((dp825
I0
I12
sI2
tp826
Rp827
g5
(S'-1h8vqa16g443j0296krc8nepj0'
p828
tp829
Rp830
sg1
((dp831
I0
I58
sI2
tp832
Rp833
g5
(S'-2lvam6jor1llca2efcelehkkt0'
p834
tp835
Rp836
sg1
((dp837
I0
I34
sI1
I4
sI2
tp838
Rp839
g5
(S'qopv61g7mon10'
p840
tp841
Rp842
sg1
((dp843
I0
I12
sI1
I3
sI2
tp844
Rp845
g5
(S'd14prfbbcqmci6eons'
p846
tp847
Rp848
sg1
((dp849
I0
I39
sI1
I1
sI2
tp850
Rp851
g5
(S'-99l3elqj0qdj53qqv961dagvu8'
p852
tp853
Rp854
sg1
((dp855
I1
I2
sI2
tp856
Rp857
g5
(S'-1f55u2g44fdc800'
p858
tp859
Rp860
sg1
((dp861
I0
I15
sI1
I3
sI2
tp862
Rp863
g5
(S'-re2puush6deqbqlabcg'
p864
tp865
Rp866
sg1
((dp867
I0
I3
sI1
I2
sI2
tp868
Rp869
g5
(S'62aua0k5urlckt7m0'
p870
tp871
Rp872
sg1
((dp873
I0
I5
sI2
tp874
Rp875
g5
(S'1dilar9fbnocqk7ss73a000'
p876
tp877
Rp878
sg1
((dp879
I0
I51
sI2
tp880
Rp881
g5
(S'-jshqnct2fj3u047f5q4glsbnab0'
p882
tp883
Rp884
sg1
((dp885
I0
I34
sI1
I3
sI2
tp886
Rp887
g5
(S'-2usr3uhr12vduur2b590g'
p888
tp889
Rp890
sg1
((dp891
I0
I61
sI1
I1
sI2
tp892
Rp893
g5
(S'-1jbsp4sqs8uqos1umdfs9m8'
p894
tp895
Rp896
sg1
((dp897
I0
I22
sI1
I2
sI2
tp898
Rp899
g5
(S'-1hkjsjc10pqk8201hon7c0'
p900
tp901
Rp902
sg1
((dp903
I0
I37
sI1
I3
sI2
tp904
Rp905
g5
(S'kqo060ee7oq3366j3gb4g'
p906
tp907
Rp908
sg1
((dp909
I0
I25
sI1
I2
sI2
tp910
Rp911
g5
(S'-5n5nf4hb31j0hj8bm6hu1moo'
p912
tp913
Rp914
sg1
((dp915
I0
I10
sI1
I1
sI2
tp916
Rp917
g5
(S'-4tl3n6irijab81ksn1qkvfo'
p918
tp919
Rp920
sg1
((dp921
I0
I13
sI1
I5
sI2
tp922
Rp923
g5
(S'-3rtn14fpg'
p924
tp925
Rp926
sg1
((dp927
I0
I1
sI1
I4
sI2
tp928
Rp929
g5
(S'juosjnpp4'
p930
tp931
Rp932
sg1
((dp933
I0
I56
sI1
I3
sI2
tp934
Rp935
g5
(S'-506hf8jlvg7jpudg'
p936
tp937
Rp938
sg1
((dp939
I0
I44
sI1
I2
sI2
tp940
Rp941
g5
(S'183niif3sct0osg41nab4r2b2'
p942
tp943
Rp944
sg1
((dp945
I0
I59
sI1
I3
sI2
tp946
Rp947
g5
(S'-h8qssnepjibiug'
p948
tp949
Rp950
sg1
((dp951
I0
I44
sI2
tp952
Rp953
g5
(S'38t70pui3qs7i5pu8qor5npibs1g'
p954
tp955
Rp956
sg1
((dp957
I0
I47
sI1
I2
sI2
tp958
Rp959
g5
(S'-a2iqh7llb97pagojthebbub0'
p960
tp961
Rp962
sg1
((dp963
I0
I32
sI1
I1
sI2
tp964
Rp965
g5
(S'-1fuc2478buak5ke9a63cvs8flng'
p966
tp967
Rp968
sg1
((dp969
I0
I23
sI1
I4
sI2
tp970
Rp971
g5
(S'8r5vdappm3no1s0'
p972
tp973
Rp974
sg1
((dp975
I0
I15
sI2
tp976
Rp977
g5
(S'-dgnj23uk9mj2tli0h8ccu1jmo0'
p978
tp979
Rp980
sg1
((dp981
I0
I66
sI1
I2
sI2
tp982
Rp983
g5
(S'o71l6tbfbmmm3r78'
p984
tp985
Rp986
sg1
((dp987
I0
I69
sI1
I2
sI2
tp988
Rp989
g5
(S'1tj5h30dlaqc'
p990
tp991
Rp992
sg1
((dp993
I0
I54
sI1
I1
sI2
tp994
Rp995
g5
(S'-8pph8ioulmfi8flgps0j2gu48'
p996
tp997
Rp998
sg1
((dp999
I0
I37
sI2
tp1000
Rp1001
g5
(S'3g568pr8bb9jcitqvkr1aquoq30g'
p1002
tp1003
Rp1004
sg1
((dp1005
I0
I45
sI1
I4
sI2
tp1006
Rp1007
g5
(S'1cg0j3a'
p1008
tp1009
Rp1010
sg1
((dp1011
I0
I6
sI1
I5
sI2
tp1012
Rp1013
g5
(S'u53dc98'
p1014
tp1015
Rp1016
sg1
((dp1017
I0
I30
sI2
tp1018
Rp1019
g5
(S'-rgnecf5mt5s8aqvqdtv4k6qh9d00'
p1020
tp1021
Rp1022
sg1
((dp1023
I0
I16
sI1
I4
sI2
tp1024
Rp1025
g5
(S'e2t96it2rjjm11q'
p1026
tp1027
Rp1028
sg1
((dp1029
I0
I21
sI1
I1
sI2
tp1030
Rp1031
g5
(S'f5mcjtckj6krpi327fafrhh9c'
p1032
tp1033
Rp1034
sg1
((dp1035
I0
I38
sI1
I4
sI2
tp1036
Rp1037
g5
(S'1ne17tskv9tv0'
p1038
tp1039
Rp1040
sg1
((dp1041
I0
I16
sI1
I3
sI2
tp1042
Rp1043
g5
(S'ro9fcjko6bvnjteak3o'
p1044
tp1045
Rp1046
sg1
((dp1047
I0
I43
sI1
I1
sI2
tp1048
Rp1049
g5
(S'-28ma12do0tff1ev13ko5fhr26l8'
p1050
tp1051
Rp1052
sg1
((dp1053
I0
I4
sI1
I2
sI2
tp1054
Rp1055
g5
(S'-38r03ctb38fm79n2l2'
p1056
tp1057
Rp1058
sg1
((dp1059
I0
I19
sI1
I3
sI2
tp1060
Rp1061
g5
(S'-mt2hr4s0n4tmag9kjmhs'
p1062
tp1063
Rp1064
sg1
((dp1065
I0
I23
sI2
tp1066
Rp1067
g5
(S'2hc3nvgpqqpnpvfpt5m4uotb5o20'
p1068
tp1069
Rp1070
sg1
((dp1071
I0
I7
sI1
I2
sI2
tp1072
Rp1073
g5
(S'35dl52ftd5os8f2uep0'
p1074
tp1075
Rp1076
sg1
((dp1077
I0
I69
sI2
tp1078
Rp1079
g5
(S'7h1k0rb7as1q17a3g'
p1080
tp1081
Rp1082
sg1
((dp1083
I0
I38
sI1
I3
sI2
tp1084
Rp1085
g5
(S'1r2pq8136lc4q5igqkqf0'
p1086
tp1087
Rp1088
sg1
((dp1089
I0
I65
sI1
I1
sI2
tp1090
Rp1091
g5
(S'8pdgkpotlf3e1mtiige4'
p1092
tp1093
Rp1094
sg1
((dp1095
I0
I26
sI1
I2
sI2
tp1096
Rp1097
g5
(S'-1n0tdkk5cb8vuesb9ulff4f0'
p1098
tp1099
Rp1100
sg1
((dp1101
I0
I41
sI1
I3
sI2
tp1102
Rp1103
g5
(S'3ojsdg249mrp1sdp3rlku'
p1104
tp1105
Rp1106
sg1
((dp1107
I0
I29
sI1
I2
sI2
tp1108
Rp1109
g5
(S'-10gjs2bulmmd5bf2ufgq5c8b0'
p1110
tp1111
Rp1112
sg1
((dp1113
I0
I14
sI1
I1
sI2
tp1114
Rp1115
g5
(S'-c624e303dp44si48d8mdd4eg'
p1116
tp1117
Rp1118
sg1
((dp1119
I0
I17
sI1
I5
sI2
tp1120
Rp1121
g5
(S'-5r1akptk'
p1122
tp1123
Rp1124
sg1
((dp1125
I0
I5
sI1
I4
sI2
tp1126
Rp1127
g5
(S'7he5b6qgekac'
p1128
tp1129
Rp1130
sg1
((dp1131
I0
I62
sI2
tp1132
Rp1133
g5
(S'-9b8m8akrg1qvdrn3s84rof00'
p1134
tp1135
Rp1136
sg1
((dp1137
I0
I60
sI1
I3
sI2
tp1138
Rp1139
g5
(S'7rmqcgit0c1g'
p1140
tp1141
Rp1142
sg1
((dp1143
I0
I48
sI1
I2
sI2
tp1144
Rp1145
g5
(S'2rn320844gfcia0c1ovfmqq4'
p1146
tp1147
Rp1148
sg1
((dp1149
I0
I63
sI1
I3
sI2
tp1150
Rp1151
g5
(S'-9l12nc9rkc0'
p1152
tp1153
Rp1154
sg1
((dp1155
I0
I51
sI1
I2
sI2
tp1156
Rp1157
g5
(S'-11ifg27101set3bqmv5t7uck'
p1158
tp1159
Rp1160
sg1
((dp1161
I0
I36
sI1
I1
sI2
tp1162
Rp1163
g5
(S'2ourq0smstmelg6736sutliasko'
p1164
tp1165
Rp1166
sg1
((dp1167
I0
I27
sI1
I4
sI2
tp1168
Rp1169
g5
(S'-ha621rak7u11qpg'
p1170
tp1171
Rp1172
sg1
((dp1173
I0
I9
sI2
tp1174
Rp1175
g5
(S'luussv8ptckc47b9rtpn7400'
p1176
tp1177
Rp1178
sg1
((dp1179
I0
I70
sI1
I2
sI2
tp1180
Rp1181
g5
(S'c84updagg'
p1182
tp1183
Rp1184
sg1
((dp1185
I0
I55
sI2
tp1186
Rp1187
g5
(S'3mslrj47lj5qff520f0orlnu960'
p1188
tp1189
Rp1190
sg1
((dp1191
I0
I58
sI1
I1
sI2
tp1192
Rp1193
g5
(S'2u258ieka8bvjqu0uqh55v7o'
p1194
tp1195
Rp1196
sg1
((dp1197
I0
I10
sI1
I5
sI2
tp1198
Rp1199
g5
(S'1m4tjohfg'
p1200
tp1201
Rp1202
sg1
((dp1203
I0
I3
sI1
I1
sI2
tp1204
Rp1205
g5
(S'53ok6p41okvpp0gd800'
p1206
tp1207
Rp1208
sg1
((dp1209
I0
I2
sI2
tp1210
Rp1211
g5
(S'-1gjnqqc3k3cg0u6f30000'
p1212
tp1213
Rp1214
sg1
((dp1215
I0
I48
sI2
tp1216
Rp1217
g5
(S'-1re3bmee9thdmksc2kf9mghk8dkq'
p1218
tp1219
Rp1220
sg1
((dp1221
I0
I20
sI1
I4
sI2
tp1222
Rp1223
g5
(S'-lmcq1qrquurkb3o'
p1224
tp1225
Rp1226
sg1
((dp1227
I0
I25
sI1
I1
sI2
tp1228
Rp1229
g5
(S'49ufn04t5jtvcj7oe524cv5820'
p1230
tp1231
Rp1232
sg1
((dp1233
I0
I1
sI1
I3
sI2
tp1234
Rp1235
g5
(S'-4dou4kgj711r0'
p1236
tp1237
Rp1238
sg1
((dp1239
I0
I41
sI2
tp1240
Rp1241
g5
(S'-gjniccen5is374luh5i9beeadpi0'
p1242
tp1243
Rp1244
sg1
((dp1245
I0
I42
sI1
I4
sI2
tp1246
Rp1247
g5
(S'99rmj0ofkk'
p1248
tp1249
Rp1250
sg1
((dp1251
I0
I20
sI1
I3
sI2
tp1252
Rp1253
g5
(S'htfd9qj177c4spkrodag'
p1254
tp1255
Rp1256
sg1
((dp1257
I0
I47
sI1
I1
sI2
tp1258
Rp1259
g5
(S'2ihbfim699dsoeoapnc95pn51g'
p1260
tp1261
Rp1262
sg1
((dp1263
I0
I8
sI1
I2
sI2
tp1264
Rp1265
g5
(S'-3h4lqnotkosolsbjobmk'
p1266
tp1267
Rp1268
sg1
((dp1269
I0
I23
sI1
I3
sI2
tp1270
Rp1271
g5
(S'-6vengl1qfcnfpgf2slc3o'
p1272
tp1273
Rp1274
sg1
((dp1275
I0
I11
sI1
I2
sI2
tp1276
Rp1277
g5
(S'-jv46bqpmubsiu60n9dlo'
p1278
tp1279
Rp1280
sg1
((dp1281
I0
I42
sI1
I3
sI2
tp1282
Rp1283
g5
(S'q2u8v70o1sh33q78vjc0'
p1284
tp1285
Rp1286
sg1
((dp1287
I0
I69
sI1
I1
sI2
tp1288
Rp1289
g5
(S'-365oaenrcj0tqec'
p1290
tp1291
Rp1292
sg1
((dp1293
I0
I30
sI1
I2
sI2
tp1294
Rp1295
g5
(S'-g1bcv4gks4ma7hj7nqmpnee0'
p1296
tp1297
Rp1298
sg1
((dp1299
I0
I45
sI1
I3
sI2
tp1300
Rp1301
g5
(S'799brg0df2vr405srl8a'
p1302
tp1303
Rp1304
sg1
((dp1305
I0
I33
sI1
I2
sI2
tp1306
Rp1307
g5
(S'-2k99pg1a4donsev5vfrs05ctc'
p1308
tp1309
Rp1310
sg1
((dp1311
I0
I18
sI1
I1
sI2
tp1312
Rp1313
g5
(S'-83n09356vrjme9t0v8p7h58r0'
p1314
tp1315
Rp1316
sg1
((dp1317
I0
I21
sI1
I5
sI2
tp1318
Rp1319
g5
(S'1srss'
p1320
tp1321
Rp1322
sg1
((dp1323
I0
I9
sI1
I4
sI2
tp1324
Rp1325
g5
(S'15lrincbib00sa'
p1326
tp1327
Rp1328
sg1
((dp1329
I0
I64
sI1
I3
sI2
tp1330
Rp1331
g5
(S'4ld91evuiq0'
p1332
tp1333
Rp1334
sg1
((dp1335
I0
I52
sI1
I2
sI2
tp1336
Rp1337
g5
(S'-brrlsn7oalivslbvujv72jq'
p1338
tp1339
Rp1340
sg1
((dp1341
I0
I67
sI1
I3
sI2
tp1342
Rp1343
g5
(S'-jm0a7804'
p1344
tp1345
Rp1346
sg1
((dp1347
I0
I55
sI1
I2
sI2
tp1348
Rp1349
g5
(S'dia6km4pjsau7rcd6mr0fo'
p1350
tp1351
Rp1352
sg1
((dp1353
I0
I40
sI1
I1
sI2
tp1354
Rp1355
g5
(S'3dl3u49dmhe2oiepljdjaekonug'
p1356
tp1357
Rp1358
sg1
((dp1359
I0
I31
sI1
I4
sI2
tp1360
Rp1361
g5
(S'p0p8nhulqm8300'
p1362
tp1363
Rp1364
sg1
((dp1365
I0
I27
sI2
tp1366
Rp1367
g5
(S'kk9oe4jufk4jikthsre6u5hceae0'
p1368
tp1369
Rp1370
sg1
((dp1371
I0
I62
sI1
I1
sI2
tp1372
Rp1373
g5
(S'-48s9fgsu3j3o0ukqp0uke0'
p1374
tp1375
Rp1376
sg1
((dp1377
I0
I14
sI1
I5
sI2
tp1378
Rp1379
g5
(S'1im5spnq0'
p1380
tp1381
Rp1382
sg1
((dp1383
I0
I2
sI1
I4
sI2
tp1384
Rp1385
g5
(S'j36b59n6e8'
p1386
tp1387
Rp1388
sg1
((dp1389
I0
I20
sI2
tp1390
Rp1391
g5
(S'-1lnq22id3bn7gr8eh7nrm6l7o3nk'
p1392
tp1393
Rp1394
sg1
((dp1395
I0
I7
sI1
I1
sI2
tp1396
Rp1397
g5
(S'o59hh951b79520l16b280'
p1398
tp1399
Rp1400
sg1
((dp1401
I0
I66
sI2
tp1402
Rp1403
g5
(S'19hsm6vh28ufdasuia6u5g'
p1404
tp1405
Rp1406
sg1
((dp1407
I0
I11
sI2
tp1408
Rp1409
g5
(S'-87tedbjs2fgh67ardnhjikd00'
p1410
tp1411
Rp1412
sg1
((dp1413
I0
I34
sI2
tp1414
Rp1415
g5
(S'-9eue7dju3molfli6mbnn47oqiltg'
p1416
tp1417
Rp1418
sg1
((dp1419
I0
I24
sI1
I4
sI2
tp1420
Rp1421
g5
(S'-20lqhb2i00lngthg'
p1422
tp1423
Rp1424
sg1
((dp1425
I0
I2
sI1
I3
sI2
tp1426
Rp1427
g5
(S'c6n2dq9qm1vhg'
p1428
tp1429
Rp1430
sg1
((dp1431
I0
I29
sI1
I1
sI2
tp1432
Rp1433
g5
(S'-dfgrntcsjlf2mfk5jmloomdc2o'
p1434
tp1435
Rp1436
sg1
((dp1437
I0
I5
sI1
I3
sI2
tp1438
Rp1439
g5
(S'l9trdl1guc3d8ts'
p1440
tp1441
Rp1442
sg1
((dp1443
I0
I59
sI2
tp1444
Rp1445
g5
(S'-1gann8k8f5qbqb44g3d0r4ei0'
p1446
tp1447
Rp1448
sg1
((dp1449
I0
I46
sI1
I4
sI2
tp1450
Rp1451
g5
(S'2bcdg'
p1452
tp1453
Rp1454
sg1
((dp1455
I0
I24
sI1
I3
sI2
tp1456
Rp1457
g5
(S'3tqjmaperq1b5q6gr1qd8'
p1458
tp1459
Rp1460
sg1
((dp1461
I0
I51
sI1
I1
sI2
tp1462
Rp1463
g5
(S'2cg0b3ej98f8g196efot6vsd0g'
p1464
tp1465
Rp1466
sg1
((dp1467
I0
I12
sI1
I2
sI2
tp1468
Rp1469
g5
(S'-drbh0deuu3fqd51odddke'
p1470
tp1471
Rp1472
sg1
((dp1473
I0
I27
sI1
I3
sI2
tp1474
Rp1475
g5
(S'-ro2qdem3uegfppgqq20f0'
p1476
tp1477
Rp1478
sg1
((dp1479
I0
I15
sI1
I2
sI2
tp1480
Rp1481
g5
(S'hda9pe9f0jjafdjdn4h90'
p1482
tp1483
Rp1484
sg1
((dp1485
I1
I1
sI2
tp1486
Rp1487
g5
(S'3ila6eml6fa0a0000'
p1488
tp1489
Rp1490
sg1
((dp1491
I0
I3
sI1
I5
sI2
tp1492
Rp1493
g5
(S'14euj42g'
p1494
tp1495
Rp1496
sg1
((dp1497
I0
I6
sI2
tp1498
Rp1499
g5
(S'4iodbfgtin60ssldmchng00'
p1500
tp1501
Rp1502
sg1
((dp1503
I0
I52
sI2
tp1504
Rp1505
g5
(S'89do8u3nujdsiu4qdrsv9c46m3k'
p1506
tp1507
Rp1508
sg1
((dp1509
I0
I46
sI1
I3
sI2
tp1510
Rp1511
g5
(S'2b28n04om3i0ff0i5e3g'
p1512
tp1513
Rp1514
sg1
((dp1515
I0
I34
sI1
I2
sI2
tp1516
Rp1517
g5
(S'-23jhut4mg6352p4leat2fupm8'
p1518
tp1519
Rp1520
sg1
((dp1521
I0
I49
sI1
I3
sI2
tp1522
Rp1523
g5
(S'3m6gpe2vnf07uhfbaeo'
p1524
tp1525
Rp1526
sg1
((dp1527
I0
I37
sI1
I2
sI2
tp1528
Rp1529
g5
(S'-2jm3pmu9nr2hkj9vi5v5e1j60'
p1530
tp1531
Rp1532
sg1
((dp1533
I0
I22
sI1
I1
sI2
tp1534
Rp1535
g5
(S'-1gvc86gemt356tmk8ocitm3lvo'
p1536
tp1537
Rp1538
sg1
((dp1539
I0
I13
sI1
I4
sI2
tp1540
Rp1541
g5
(S'-t96lrdrsrdl45u'
p1542
tp1543
Rp1544
sg1
((dp1545
I0
I68
sI1
I3
sI2
tp1546
Rp1547
g5
(S'd3u4b48'
p1548
tp1549
Rp1550
sg1
((dp1551
I0
I56
sI1
I2
sI2
tp1552
Rp1553
g5
(S'-av8goqv6botiv5dsa5eg9o'
p1554
tp1555
Rp1556
sg1
((dp1557
I0
I45
sI2
tp1558
Rp1559
g5
(S'a6l2903q6840jkm9c8cgcu59q560'
p1560
tp1561
Rp1562
sg1
((dp1563
I0
I59
sI1
I2
sI2
tp1564
Rp1565
g5
(S'8vs8pt2k3j38lj9rfaaso'
p1566
tp1567
Rp1568
sg1
((dp1569
I0
I44
sI1
I1
sI2
tp1570
Rp1571
g5
(S'-ptq4tcvq2gg5etdtgo4b2mgqu0'
p1572
tp1573
Rp1574
sg1
((dp1575
I0
I35
sI1
I4
sI2
tp1576
Rp1577
g5
(S'-1ma3jdadrjo1g0'
p1578
tp1579
Rp1580
sg1
((dp1581
I0
I66
sI1
I1
sI2
tp1582
Rp1583
g5
(S'-47oou8pa1kudatgb3p0'
p1584
tp1585
Rp1586
sg1
((dp1587
I0
I38
sI2
tp1588
Rp1589
g5
(S'uhm5ebubg3jp0229c49n9db8q770'
p1590
tp1591
Rp1592
sg1
((dp1593
I0
I5
sI1
I2
sI2
tp1594
Rp1595
g5
(S'-8742o8rskj0e15v8p4'
p1596
tp1597
Rp1598
sg1
((dp1599
I0
I18
sI1
I5
sI2
tp1600
Rp1601
g5
(S'10svsss8'
p1602
tp1603
Rp1604
sg1
((dp1605
I0
I6
sI1
I4
sI2
tp1606
Rp1607
g5
(S'-pfuds3hvse5o'
p1608
tp1609
Rp1610
sg1
((dp1611
I0
I11
sI1
I1
sI2
tp1612
Rp1613
g5
(S'5huafeok1fuo7bnb3lp58a8'
p1614
tp1615
Rp1616
sg1
((dp1617
I0
I28
sI1
I4
sI2
tp1618
Rp1619
g5
(S'-4tqs5tfn3mln590'
p1620
tp1621
Rp1622
sg1
((dp1623
I0
I31
sI2
tp1624
Rp1625
g5
(S'5jo3hv2o55rerar3v0l1udqtf600'
p1626
tp1627
Rp1628
sg1
((dp1629
I0
I6
sI1
I3
sI2
tp1630
Rp1631
g5
(S'-l9qvlaj9i256fjg'
p1632
tp1633
Rp1634
sg1
((dp1635
I0
I33
sI1
I1
sI2
tp1636
Rp1637
g5
(S'-3p1nnf98hb8kh4efe0abl32av0k'
p1638
tp1639
Rp1640
sg1
((dp1641
I0
I9
sI1
I3
sI2
tp1642
Rp1643
g5
(S'k4inl0upi71d52l8e'
p1644
tp1645
Rp1646
sg1
((dp1647
I0
I28
sI1
I3
sI2
tp1648
Rp1649
g5
(S'9mt2rggbsbiprl3imgrhg'
p1650
tp1651
Rp1652
sg1
((dp1653
I0
I55
sI1
I1
sI2
tp1654
Rp1655
g5
(S'-28eo1d4k3uvk5idc3i7nlucg8'
p1656
tp1657
Rp1658
sg1
((dp1659
I0
I16
sI1
I2
sI2
tp1660
Rp1661
g5
(S'-av6k64svhj7ceutbgjv2qk'
p1662
tp1663
Rp1664
sg1
((dp1665
I0
I31
sI1
I3
sI2
tp1666
Rp1667
g5
(S'-1f3tev19rljprue448v860'
p1668
tp1669
Rp1670
sg1
((dp1671
I0
I19
sI1
I2
sI2
tp1672
Rp1673
g5
(S'30c75gp1he75jtd9uqem0ik'
p1674
tp1675
Rp1676
sg1
((dp1677
I0
I24
sI2
tp1678
Rp1679
g5
(S'-83k4s1j9j8p8ntq2j8fs2svdrppi'
p1680
tp1681
Rp1682
sg1
((dp1683
I0
I4
sI1
I1
sI2
tp1684
Rp1685
g5
(S'55357hivnabn4smdlb80'
p1686
tp1687
Rp1688
sg1
((dp1689
I0
I7
sI1
I5
sI2
tp1690
Rp1691
g5
(S'1m539o6g8'
p1692
tp1693
Rp1694
sg1
((dp1695
I0
I70
sI2
tp1696
Rp1697
g5
(S'1vng8ef15s7t0'
p1698
tp1699
Rp1700
sg1
((dp1701
I0
I50
sI1
I3
sI2
tp1702
Rp1703
g5
(S'1g1iidevjf8e7rllas0'
p1704
tp1705
Rp1706
sg1
((dp1707
I0
I38
sI1
I2
sI2
tp1708
Rp1709
g5
(S'-3k01ipu7irssm9qnmitlc98jo'
p1710
tp1711
Rp1712
sg1
((dp1713
I0
I53
sI1
I3
sI2
tp1714
Rp1715
g5
(S'eatmd0tm04k67tb14'
p1716
tp1717
Rp1718
sg1
((dp1719
I0
I41
sI1
I2
sI2
tp1720
Rp1721
g5
(S'-d2r9utvneghl9g1srd991bs0'
p1722
tp1723
Rp1724
sg1
((dp1725
I0
I26
sI1
I1
sI2
tp1726
Rp1727
g5
(S'5c9e70rtnb17lfkeq02hme0dl8'
p1728
tp1729
Rp1730
sg1
((dp1731
I0
I17
sI2
tp1732
Rp1733
g5
(S'1n0a3h25gba94tkujcath3armng'
p1734
tp1735
Rp1736
sg1
((dp1737
I0
I17
sI1
I4
sI2
tp1738
Rp1739
g5
(S'-l6urvglofn6svck'
p1740
tp1741
Rp1742
sg1
((dp1743
I0
I63
sI2
tp1744
Rp1745
g5
(S'6sfa5rs15bjotsuls4kou00'
p1746
tp1747
Rp1748
sg1
((dp1749
I0
I60
sI1
I2
sI2
tp1750
Rp1751
g5
(S'4ebdrdt3dej7tugtl3hp4'
p1752
tp1753
Rp1754
sg1
((dp1755
I0
I63
sI1
I2
sI2
tp1756
Rp1757
g5
(S'dt0hkqnlikg4vl9kok0'
p1758
tp1759
Rp1760
sg1
((dp1761
I0
I48
sI1
I1
sI2
tp1762
Rp1763
g5
(S'-b213enc4svsim75bnpg81lcl80'
p1764
tp1765
Rp1766
sg1
((dp1767
I0
I39
sI1
I4
sI2
tp1768
Rp1769
g5
(S'bgntq2095r00'
p1770
tp1771
Rp1772
sg1
((dp1773
I1
I5
sI2
tp1774
Rp1775
g5
(S'27o5b8'
p1776
tp1777
Rp1778
sg1
((dp1779
I0
I10
sI2
tp1780
Rp1781
g5
(S'3mijg39qr5i3sf453dcqb2n00'
p1782
tp1783
Rp1784
sg1
((dp1785
I0
I56
sI2
tp1786
Rp1787
g5
(S'lu5gaai9ug57ms4gu16bu1gdtq'
p1788
tp1789
Rp1790
sg1
((dp1791
I0
I70
sI1
I1
sI2
tp1792
Rp1793
g5
(S'189lq5a1gso8'
p1794
tp1795
Rp1796
sg1
((dp1797
I0
I22
sI1
I5
sI2
tp1798
Rp1799
g5
(S'17b8'
p1800
tp1801
Rp1802
sg1
((dp1803
I0
I10
sI1
I4
sI2
tp1804
Rp1805
g5
(S'-aacrjenql44g3s'
p1806
tp1807
Rp1808
sg1
((dp1809
I0
I15
sI1
I1
sI2
tp1810
Rp1811
g5
(S'785p52pntjpucu4j38vbtkhg'
p1812
tp1813
Rp1814
sg1
((dp1815
I0
I3
sI2
tp1816
Rp1817
g5
(S'-p8maur2ipl6m7sv2t8000'
p1818
tp1819
Rp1820
sg1
((dp1821
I0
I49
sI2
tp1822
Rp1823
g5
(S'-343gb5hn2upba1q2e54nmpftobjg'
p1824
tp1825
Rp1826
sg1
((dp1827
I0
I32
sI1
I4
sI2
tp1828
Rp1829
g5
(S'1293ns4c5vmgpdg'
p1830
tp1831
Rp1832
sg1
((dp1833
I0
I30
sI1
I4
sI2
tp1834
Rp1835
g5
(S'-34muc89c2thu260'
p1836
tp1837
Rp1838
sg1
((dp1839
I0
I10
sI1
I3
sI2
tp1840
Rp1841
g5
(S'-v396u48837kou00d0'
p1842
tp1843
Rp1844
sg1
((dp1845
I0
I37
sI1
I1
sI2
tp1846
Rp1847
g5
(S'-2v8r9r8hhfsffi6brjhu86dkd84'
p1848
tp1849
Rp1850
sg1
((dp1851
I0
I13
sI1
I3
sI2
tp1852
Rp1853
g5
(S'3ducn4gpe28n9civ9pq'
p1854
tp1855
Rp1856
sg1
((dp1857
I0
I1
sI1
I2
sI2
tp1858
Rp1859
g5
(S'-rk42aj6gq94to00'
p1860
tp1861
Rp1862
sg1
((dp1863
I0
I42
sI2
tp1864
Rp1865
g5
(S'-lovgsi45uv7iohe5tkqnrsggh9m0'
p1866
tp1867
Rp1868
sg1
((dp1869
I0
I32
sI1
I3
sI2
tp1870
Rp1871
g5
(S'791v5an962lhv4b3v9ppo'
p1872
tp1873
Rp1874
sg1
((dp1875
I0
I59
sI1
I1
sI2
tp1876
Rp1877
g5
(S'-6ii0g12r3pn0lanube93tb8'
p1878
tp1879
Rp1880
sg1
((dp1881
I0
I20
sI1
I2
sI2
tp1882
Rp1883
g5
(S'-1lgvv94h5841dsrgvtj4erq'
p1884
tp1885
Rp1886
sg1
((dp1887
I0
I35
sI1
I3
sI2
tp1888
Rp1889
g5
(S'-124ef69pj79ck06rs5jm0s'
p1890
tp1891
Rp1892
sg1
((dp1893
I0
I23
sI1
I2
sI2
tp1894
Rp1895
g5
(S'1qhi1sve30b2j4k2bs350bh8'
p1896
tp1897
Rp1898
sg1
((dp1899
I0
I8
sI1
I1
sI2
tp1900
Rp1901
g5
(S'91tdm0vpa7ehjlrm11rc6g'
p1902
tp1903
Rp1904
sg1
((dp1905
I0
I11
sI1
I5
sI2
tp1906
Rp1907
g5
(S'4t0bi8jhc'
p1908
tp1909
Rp1910
sg1
((dp1911
I0
I54
sI1
I3
sI2
tp1912
Rp1913
g5
(S'5dj1j68gfs37pj7b0'
p1914
tp1915
Rp1916
sg1
((dp1917
I0
I42
sI1
I2
sI2
tp1918
Rp1919
g5
(S'-2bikfo1475fot53a41lj77668'
p1920
tp1921
Rp1922
sg1
((dp1923
I0
I57
sI1
I3
sI2
tp1924
Rp1925
g5
(S'mn19mpd3ue66dfo'
p1926
tp1927
Rp1928
sg1
((dp1929
I0
I45
sI1
I2
sI2
tp1930
Rp1931
g5
(S'f0tjdma67424csh5496173j4'
p1932
tp1933
Rp1934
sg1
((dp1935
I0
I35
sI2
tp1936
Rp1937
g5
(S'-160klbcmhkmo030vdribh0qj3gf30'
p1938
tp1939
Rp1940
sg1
((dp1941
I0
I21
sI1
I4
sI2
tp1942
Rp1943
g5
(S'-13kairu1tn567vh4'
p1944
tp1945
Rp1946
sg1
((dp1947
I0
I64
sI1
I2
sI2
tp1948
Rp1949
g5
(S'rduvo3008lhseofpmc'
p1950
tp1951
Rp1952
sg1
((dp1953
I0
I67
sI1
I2
sI2
tp1954
Rp1955
g5
(S'8o95d1gdv8k71n4'
p1956
tp1957
Rp1958
sg1
((dp1959
I0
I52
sI1
I1
sI2
tp1960
Rp1961
g5
(S'td8uo0k44flfi91ahg120gklo'
p1962
tp1963
Rp1964
sg1
((dp1965
I0
I43
sI1
I4
sI2
tp1966
Rp1967
g5
(S'ahqomllp8'
p1968
tp1969
Rp1970
sg1
((dp1971
I0
I28
sI2
tp1972
Rp1973
g5
(S'4tc1sscv892ujqm690tm8g5ni0fo'
p1974
tp1975
Rp1976
sg1
((dp1977
I0
I4
sI1
I5
sI2
tp1978
Rp1979
g5
(S'opvm60s'
p1980
tp1981
Rp1982
sg1
((dp1983
I0
I14
sI1
I4
sI2
tp1984
Rp1985
g5
(S'-7alpo6p0301m8ig'
p1986
tp1987
Rp1988
sg1
((dp1989
I0
I21
sI2
tp1990
Rp1991
g5
(S'-77s5pks5105p4b2fgi72otpbieg'
p1992
tp1993
Rp1994
sg1
((dp1995
I0
I19
sI1
I1
sI2
tp1996
Rp1997
g5
(S'-1e8oc4a62guiq08t2utmo67ig'
p1998
tp1999
Rp2000
sg1
((dp2001
I0
I67
sI2
tp2002
Rp2003
g5
(S'pce483ahe8vjjejm0q30'
p2004
tp2005
Rp2006
sg1
((dp2007
I0
I71
sI1
I1
sI2
tp2008
Rp2009
g5
(S'-57bn59o'
p2010
tp2011
Rp2012
sg1
((dp2013
I0
I36
sI1
I4
sI2
tp2014
Rp2015
g5
(S'6uo18o18ag83g'
p2016
tp2017
Rp2018
sg1
((dp2019
I0
I14
sI1
I3
sI2
tp2020
Rp2021
g5
(S'-3tv1rn1grqncn197k2g'
p2022
tp2023
Rp2024
sg1
((dp2025
I0
I41
sI1
I1
sI2
tp2026
Rp2027
g5
(S'2fqfvfhquag08sq8fi6n0q4infg'
p2028
tp2029
Rp2030
sg1
((dp2031
I0
I2
sI1
I2
sI2
tp2032
Rp2033
g5
(S'tb8mvarj9en86f80'
p2034
tp2035
Rp2036
sg1
((dp2037
I0
I17
sI1
I3
sI2
tp2038
Rp2039
g5
(S'52f1pntlt1orjs9hqdk8'
p2040
tp2041
Rp2042
sg1
((dp2043
I0
I14
sI2
tp2044
Rp2045
g5
(S'e7njl0vtgpsd5en8n3i9ql9os0'
p2046
tp2047
Rp2048
sg1
((dp2049
I0
I60
sI2
tp2050
Rp2051
g5
(S'623m775prq7i7p5ctqetkab5o'
p2052
tp2053
Rp2054
sg1
((dp2055
I0
I36
sI1
I3
sI2
tp2056
Rp2057
g5
(S'-g2q9pujdnokj7pes7heg'
p2058
tp2059
Rp2060
sg1
((dp2061
I0
I63
sI1
I1
sI2
tp2062
Rp2063
g5
(S'd04aps3hk2igdo0od4l20'
p2064
tp2065
Rp2066
sg1
((dp2067
I0
I24
sI1
I2
sI2
tp2068
Rp2069
g5
(S'btbll8s8v5ahmajeh0e1hcg'
p2070
tp2071
Rp2072
sg1
((dp2073
I0
I39
sI1
I3
sI2
tp2074
Rp2075
g5
(S'-a1hddsinior3d8c6t2nv8'
p2076
tp2077
Rp2078
sg1
((dp2079
I0
I33
sI2
tp2080
Rp2081
g5
(S'sk5vknv2h41mcc0h3qvf63rn1q6g'
p2082
tp2083
Rp2084
sg1
((dp2085
I0
I27
sI1
I2
sI2
tp2086
Rp2087
g5
(S'eu64duegaeim1v1dcns7ja68'
p2088
tp2089
Rp2090
sg1
((dp2091
I0
I12
sI1
I1
sI2
tp2092
Rp2093
g5
(S'1lhpd7576fdolf04qlfi1i50'
p2094
tp2095
Rp2096
sg1
((dp2097
I0
I15
sI1
I5
sI2
tp2098
Rp2099
g5
(S'1i2kjh7gg'
p2100
tp2101
Rp2102
sg1
((dp2103
I0
I3
sI1
I4
sI2
tp2104
Rp2105
g5
(S'-4343b5hu1f0'
p2106
tp2107
Rp2108
sg1
((dp2109
I0
I7
sI2
tp2110
Rp2111
g5
(S'-185rq0iknq91bb5srds5p000'
p2112
tp2113
Rp2114
sg1
((dp2115
I0
I53
sI2
tp2116
Rp2117
g5
(S'e3nngivit5a3ghnad1lvb9hf5qg'
p2118
tp2119
Rp2120
sg1
((dp2121
I0
I58
sI1
I3
sI2
tp2122
Rp2123
g5
(S'2c3u90stf0op1d0'
p2124
tp2125
Rp2126
sg1
((dp2127
I0
I46
sI1
I2
sI2
tp2128
Rp2129
g5
(S'-emt4euim40lbs0rfcsrkhn7g'
p2130
tp2131
Rp2132
sg1
((dp2133
I0
I61
sI1
I3
sI2
tp2134
Rp2135
g5
(S'6nalrqdqvrrio'
p2136
tp2137
Rp2138
sg1
((dp2139
I0
I49
sI1
I2
sI2
tp2140
Rp2141
g5
(S'45o6gifap6au9vbkdlvge0p4'
p2142
tp2143
Rp2144
sg1
((dp2145
I0
I34
sI1
I1
sI2
tp2146
Rp2147
g5
(S'-25imp803uh1g8ciu1bt9dl6jd0'
p2148
tp2149
Rp2150
sg1
((dp2151
I0
I25
sI1
I4
sI2
tp2152
Rp2153
g5
(S'gdqpuhnir3m0884'
p2154
tp2155
Rp2156
s.