(dp0
csage.rings.polynomial.polydict
make_ETuple
p1
((dp2
I0
I1
sI2
tp3
Rp4
csage.rings.integer
make_integer
p5
(S'6'
p6
tp7
Rp8
sg1
((dp9
I2
tp10
Rp11
g5
(S'1eg'
p12
tp13
Rp14
sg1
((dp15
I1
I1
sI2
tp16
Rp17
g5
(S'-2'
p18
tp19
Rp20
s.