(dp0
csage.rings.polynomial.polydict
make_ETuple
p1
((dp2
I0
I14
sI1
I1
sI2
tp3
Rp4
csage.rings.integer
make_integer
p5
(S'-1vnonot0'
p6
tp7
Rp8
sg1
((dp9
I0
I4
sI1
I1
sI2
tp10
Rp11
g5
(S'220q8o0'
p12
tp13
Rp14
sg1
((dp15
I0
I27
sI1
I1
sI2
tp16
Rp17
g5
(S'-96vg'
p18
tp19
Rp20
sg1
((dp21
I0
I2
sI2
tp22
Rp23
g5
(S'-9ps00000'
p24
tp25
Rp26
sg1
((dp27
I0
I3
sI2
tp28
Rp29
g5
(S'3jr940000'
p30
tp31
Rp32
sg1
((dp33
I0
I23
sI2
tp34
Rp35
g5
(S'9p6lvrii0'
p36
tp37
Rp38
sg1
((dp39
I0
I25
sI2
tp40
Rp41
g5
(S'1kng2p2jg'
p42
tp43
Rp44
sg1
((dp45
I0
I7
sI1
I1
sI2
tp46
Rp47
g5
(S'-ejopio0'
p48
tp49
Rp50
sg1
((dp51
I0
I24
sI1
I1
sI2
tp52
Rp53
g5
(S'-pojqu'
p54
tp55
Rp56
sg1
((dp57
I2
tp58
Rp59
g5
(S'1u000000'
p60
tp61
Rp62
sg1
((dp63
I0
I12
sI1
I1
sI2
tp64
Rp65
g5
(S'347ufjmo'
p66
tp67
Rp68
sg1
((dp69
I0
I6
sI2
tp70
Rp71
g5
(S'sumjp0000'
p72
tp73
Rp74
sg1
((dp75
I0
I27
sI2
tp76
Rp77
g5
(S'bvr4h30'
p78
tp79
Rp80
sg1
((dp81
I0
I29
sI2
tp82
Rp83
g5
(S'k6kg'
p84
tp85
Rp86
sg1
((dp87
I0
I15
sI1
I1
sI2
tp88
Rp89
g5
(S'11e56220'
p90
tp91
Rp92
sg1
((dp93
I0
I10
sI1
I1
sI2
tp94
Rp95
g5
(S'-316jq2s8'
p96
tp97
Rp98
sg1
((dp99
I0
I20
sI1
I1
sI2
tp100
Rp101
g5
(S'72ane6'
p102
tp103
Rp104
sg1
((dp105
I0
I10
sI2
tp106
Rp107
g5
(S'4er1qv5g00'
p108
tp109
Rp110
sg1
((dp111
I0
I8
sI2
tp112
Rp113
g5
(S'-2dtajg4000'
p114
tp115
Rp116
sg1
((dp117
I0
I2
sI1
I1
sI2
tp118
Rp119
g5
(S'aso00'
p120
tp121
Rp122
sg1
((dp123
I0
I25
sI1
I1
sI2
tp124
Rp125
g5
(S'-l82'
p126
tp127
Rp128
sg1
((dp129
I0
I12
sI2
tp130
Rp131
g5
(S'-6elvoi2800'
p132
tp133
Rp134
sg1
((dp135
I0
I5
sI1
I1
sI2
tp136
Rp137
g5
(S'7bh1ag0'
p138
tp139
Rp140
sg1
((dp141
I0
I14
sI2
tp142
Rp143
g5
(S'7n4cp4i000'
p144
tp145
Rp146
sg1
((dp147
I0
I22
sI1
I1
sI2
tp148
Rp149
g5
(S'41c4a0'
p150
tp151
Rp152
sg1
((dp153
I0
I6
sI1
I1
sI2
tp154
Rp155
g5
(S'-h550r80'
p156
tp157
Rp158
sg1
((dp159
I0
I16
sI2
tp160
Rp161
g5
(S'-78cu99arc0'
p162
tp163
Rp164
sg1
((dp165
I0
I13
sI1
I1
sI2
tp166
Rp167
g5
(S'-17jtd80g'
p168
tp169
Rp170
sg1
((dp171
I0
I18
sI2
tp172
Rp173
g5
(S'4jkiu58g40'
p174
tp175
Rp176
sg1
((dp177
I0
I18
sI1
I1
sI2
tp178
Rp179
g5
(S'-51bp0vk'
p180
tp181
Rp182
sg1
((dp183
I1
I1
sI2
tp184
Rp185
g5
(S'-3vs00'
p186
tp187
Rp188
sg1
((dp189
I0
I20
sI2
tp190
Rp191
g5
(S'-1avtdeg910'
p192
tp193
Rp194
sg1
((dp195
I0
I22
sI2
tp196
Rp197
g5
(S'-7rlfvup6o'
p198
tp199
Rp200
sg1
((dp201
I0
I1
sI2
tp202
Rp203
g5
(S'-8e900000'
p204
tp205
Rp206
sg1
((dp207
I0
I23
sI1
I1
sI2
tp208
Rp209
g5
(S'2au758'
p210
tp211
Rp212
sg1
((dp213
I0
I3
sI1
I1
sI2
tp214
Rp215
g5
(S'-1b5c200'
p216
tp217
Rp218
sg1
((dp219
I0
I8
sI1
I1
sI2
tp220
Rp221
g5
(S'1o08sp70'
p222
tp223
Rp224
sg1
((dp225
I0
I24
sI2
tp226
Rp227
g5
(S'6981tud4o'
p228
tp229
Rp230
sg1
((dp231
I0
I28
sI1
I1
sI2
tp232
Rp233
g5
(S'qaq'
p234
tp235
Rp236
sg1
((dp237
I0
I26
sI2
tp238
Rp239
g5
(S'6og4kp5o'
p240
tp241
Rp242
sg1
((dp243
I0
I5
sI2
tp244
Rp245
g5
(S'-a820b0000'
p246
tp247
Rp248
sg1
((dp249
I0
I11
sI1
I1
sI2
tp250
Rp251
g5
(S'l5v3ej0'
p252
tp253
Rp254
sg1
((dp255
I0
I21
sI1
I1
sI2
tp256
Rp257
g5
(S'-s3e7lk'
p258
tp259
Rp260
sg1
((dp261
I0
I16
sI1
I1
sI2
tp262
Rp263
g5
(S'ogbcae6'
p264
tp265
Rp266
sg1
((dp267
I0
I4
sI2
tp268
Rp269
g5
(S'-4t5crg000'
p270
tp271
Rp272
sg1
((dp273
I0
I28
sI2
tp274
Rp275
g5
(S'4ghiu8'
p276
tp277
Rp278
sg1
((dp279
I0
I7
sI2
tp280
Rp281
g5
(S'7o3p30000'
p282
tp283
Rp284
sg1
((dp285
I0
I30
sI2
tp286
Rp287
g5
(S'v0'
p288
tp289
Rp290
sg1
((dp291
I0
I9
sI2
tp292
Rp293
g5
(S'gra0qe000'
p294
tp295
Rp296
sg1
((dp297
I0
I19
sI1
I1
sI2
tp298
Rp299
g5
(S'4vno254'
p300
tp301
Rp302
sg1
((dp303
I0
I1
sI1
I1
sI2
tp304
Rp305
g5
(S'1u3s00'
p306
tp307
Rp308
sg1
((dp309
I0
I29
sI1
I1
sI2
tp310
Rp311
g5
(S'-t2'
p312
tp313
Rp314
sg1
((dp315
I0
I13
sI2
tp316
Rp317
g5
(S'27fo72co00'
p318
tp319
Rp320
sg1
((dp321
I0
I11
sI2
tp322
Rp323
g5
(S'-1mps674000'
p324
tp325
Rp326
sg1
((dp327
I0
I26
sI1
I1
sI2
tp328
Rp329
g5
(S'1bk2s'
p330
tp331
Rp332
sg1
((dp333
I0
I9
sI1
I1
sI2
tp334
Rp335
g5
(S'5rvgqj0'
p336
tp337
Rp338
sg1
((dp339
I0
I15
sI2
tp340
Rp341
g5
(S'-12p4no2c00'
p342
tp343
Rp344
sg1
((dp345
I0
I17
sI2
tp346
Rp347
g5
(S'-15f43qb4o0'
p348
tp349
Rp350
sg1
((dp351
I0
I17
sI1
I1
sI2
tp352
Rp353
g5
(S'-ggraelk'
p354
tp355
Rp356
sg1
((dp357
I0
I19
sI2
tp358
Rp359
g5
(S'2cf1il7sk0'
p360
tp361
Rp362
sg1
((dp363
I0
I21
sI2
tp364
Rp365
g5
(S'-1i357335h0'
p366
tp367
Rp368
s.