(dp0
csage.rings.polynomial.polydict
make_ETuple
p1
((dp2
I0
I4
sI1
I1
sI2
tp3
Rp4
csage.rings.integer
make_integer
p5
(S'-jinq80'
p6
tp7
Rp8
sg1
((dp9
I0
I11
sI1
I1
sI2
tp10
Rp11
g5
(S'-96ag00'
p12
tp13
Rp14
sg1
((dp15
I0
I2
sI2
tp16
Rp17
g5
(S'p4ui00000'
p18
tp19
Rp20
sg1
((dp21
I0
I3
sI2
tp22
Rp23
g5
(S'3jidqc0000'
p24
tp25
Rp26
sg1
((dp27
I0
I7
sI1
I1
sI2
tp28
Rp29
g5
(S'njfao0'
p30
tp31
Rp32
sg1
((dp33
I0
I16
sI1
I1
sI2
tp34
Rp35
g5
(S'-1l1ki'
p36
tp37
Rp38
sg1
((dp39
I2
tp40
Rp41
g5
(S'7hg00000'
p42
tp43
Rp44
sg1
((dp45
I0
I4
sI2
tp46
Rp47
g5
(S'bsgfb2g000'
p48
tp49
Rp50
sg1
((dp51
I0
I6
sI2
tp52
Rp53
g5
(S'1qgbsiv0000'
p54
tp55
Rp56
sg1
((dp57
I0
I19
sI1
I1
sI2
tp58
Rp59
g5
(S'-2214'
p60
tp61
Rp62
sg1
((dp63
I0
I15
sI1
I1
sI2
tp64
Rp65
g5
(S'-c35q0'
p66
tp67
Rp68
sg1
((dp69
I0
I8
sI2
tp70
Rp71
g5
(S'3mjk3hh4000'
p72
tp73
Rp74
sg1
((dp75
I0
I10
sI2
tp76
Rp77
g5
(S'3b53o2qpg00'
p78
tp79
Rp80
sg1
((dp81
I0
I2
sI1
I1
sI2
tp82
Rp83
g5
(S'-hp800'
p84
tp85
Rp86
sg1
((dp87
I0
I17
sI1
I1
sI2
tp88
Rp89
g5
(S'18agg'
p90
tp91
Rp92
sg1
((dp93
I0
I12
sI2
tp94
Rp95
g5
(S'1avdgktr800'
p96
tp97
Rp98
sg1
((dp99
I0
I5
sI1
I1
sI2
tp100
Rp101
g5
(S'-oodg00'
p102
tp103
Rp104
sg1
((dp105
I0
I14
sI2
tp106
Rp107
g5
(S'72ir3kc000'
p108
tp109
Rp110
sg1
((dp111
I0
I14
sI1
I1
sI2
tp112
Rp113
g5
(S'c4pi0'
p114
tp115
Rp116
sg1
((dp117
I0
I6
sI1
I1
sI2
tp118
Rp119
g5
(S'-6cnu80'
p120
tp121
Rp122
sg1
((dp123
I0
I16
sI2
tp124
Rp125
g5
(S'cl4olbn40'
p126
tp127
Rp128
sg1
((dp129
I0
I13
sI1
I1
sI2
tp130
Rp131
g5
(S'2emok0'
p132
tp133
Rp134
sg1
((dp135
I0
I18
sI2
tp136
Rp137
g5
(S'4s364es0'
p138
tp139
Rp140
sg1
((dp141
I1
I1
sI2
tp142
Rp143
g5
(S'34k00'
p144
tp145
Rp146
sg1
((dp147
I0
I20
sI2
tp148
Rp149
g5
(S'2f9590'
p150
tp151
Rp152
sg1
((dp153
I0
I22
sI2
tp154
Rp155
g5
(S'h8'
p156
tp157
Rp158
sg1
((dp159
I0
I1
sI2
tp160
Rp161
g5
(S'3g6500000'
p162
tp163
Rp164
sg1
((dp165
I0
I12
sI1
I1
sI2
tp166
Rp167
g5
(S'3a940'
p168
tp169
Rp170
sg1
((dp171
I0
I3
sI1
I1
sI2
tp172
Rp173
g5
(S'-70qm00'
p174
tp175
Rp176
sg1
((dp177
I0
I8
sI1
I1
sI2
tp178
Rp179
g5
(S'v5qbd0'
p180
tp181
Rp182
sg1
((dp183
I0
I20
sI1
I1
sI2
tp184
Rp185
g5
(S'ac2'
p186
tp187
Rp188
sg1
((dp189
I0
I5
sI2
tp190
Rp191
g5
(S'tnsiaq0000'
p192
tp193
Rp194
sg1
((dp195
I0
I11
sI2
tp196
Rp197
g5
(S'2bar0ifa000'
p198
tp199
Rp200
sg1
((dp201
I0
I7
sI2
tp202
Rp203
g5
(S'2scs66l0000'
p204
tp205
Rp206
sg1
((dp207
I0
I9
sI2
tp208
Rp209
g5
(S'3shlousq000'
p210
tp211
Rp212
sg1
((dp213
I0
I1
sI1
I1
sI2
tp214
Rp215
g5
(S'clc00'
p216
tp217
Rp218
sg1
((dp219
I0
I21
sI1
I1
sI2
tp220
Rp221
g5
(S'-fq'
p222
tp223
Rp224
sg1
((dp225
I0
I13
sI2
tp226
Rp227
g5
(S'jl6eqepo00'
p228
tp229
Rp230
sg1
((dp231
I0
I10
sI1
I1
sI2
tp232
Rp233
g5
(S'-aiiqo8'
p234
tp235
Rp236
sg1
((dp237
I0
I9
sI1
I1
sI2
tp238
Rp239
g5
(S'9ecg90'
p240
tp241
Rp242
sg1
((dp243
I0
I15
sI2
tp244
Rp245
g5
(S'1ufm0d5s00'
p246
tp247
Rp248
sg1
((dp249
I0
I17
sI2
tp250
Rp251
g5
(S'1ogie3800'
p252
tp253
Rp254
sg1
((dp255
I0
I19
sI2
tp256
Rp257
g5
(S'6oa66s0'
p258
tp259
Rp260
sg1
((dp261
I0
I21
sI2
tp262
Rp263
g5
(S'b3p0'
p264
tp265
Rp266
s.