(dp0
csage.rings.polynomial.polydict
make_ETuple
p1
((dp2
I2
tp3
Rp4
csage.rings.integer
make_integer
p5
(S'qsvpms0000'
p6
tp7
Rp8
sg1
((dp9
I0
I11
sI1
I1
sI2
tp10
Rp11
g5
(S'-4s'
p12
tp13
Rp14
sg1
((dp15
I0
I2
sI2
tp16
Rp17
g5
(S'1lkfusph800'
p18
tp19
Rp20
sg1
((dp21
I0
I3
sI2
tp22
Rp23
g5
(S't4en1qe5c0'
p24
tp25
Rp26
sg1
((dp27
I0
I8
sI1
I1
sI2
tp28
Rp29
g5
(S'vvo'
p30
tp31
Rp32
sg1
((dp33
I0
I4
sI2
tp34
Rp35
g5
(S'a3hfeveclu'
p36
tp37
Rp38
sg1
((dp39
I0
I6
sI2
tp40
Rp41
g5
(S'bdghrsol0'
p42
tp43
Rp44
sg1
((dp45
I0
I3
sI1
I1
sI2
tp46
Rp47
g5
(S'dbe5s'
p48
tp49
Rp50
sg1
((dp51
I0
I8
sI2
tp52
Rp53
g5
(S'261flmhs'
p54
tp55
Rp56
sg1
((dp57
I0
I10
sI2
tp58
Rp59
g5
(S'oodtg'
p60
tp61
Rp62
sg1
((dp63
I0
I1
sI1
I1
sI2
tp64
Rp65
g5
(S'-47e0dc'
p66
tp67
Rp68
sg1
((dp69
I0
I12
sI2
tp70
Rp71
g5
(S'5m'
p72
tp73
Rp74
sg1
((dp75
I0
I6
sI1
I1
sI2
tp76
Rp77
g5
(S'-20810'
p78
tp79
Rp80
sg1
((dp81
I1
I1
sI2
tp82
Rp83
g5
(S'-b5k20'
p84
tp85
Rp86
sg1
((dp87
I0
I1
sI2
tp88
Rp89
g5
(S'1p65kc52000'
p90
tp91
Rp92
sg1
((dp93
I0
I7
sI1
I1
sI2
tp94
Rp95
g5
(S'-ilpg'
p96
tp97
Rp98
sg1
((dp99
I0
I4
sI1
I1
sI2
tp100
Rp101
g5
(S'1179v8'
p102
tp103
Rp104
sg1
((dp105
I0
I5
sI2
tp106
Rp107
g5
(S'2afi7ra78g'
p108
tp109
Rp110
sg1
((dp111
I0
I5
sI1
I1
sI2
tp112
Rp113
g5
(S'5vvi4'
p114
tp115
Rp116
sg1
((dp117
I0
I7
sI2
tp118
Rp119
g5
(S'14bam89u0'
p120
tp121
Rp122
sg1
((dp123
I0
I9
sI2
tp124
Rp125
g5
(S'262i62g'
p126
tp127
Rp128
sg1
((dp129
I0
I11
sI2
tp130
Rp131
g5
(S'3hb0'
p132
tp133
Rp134
sg1
((dp135
I0
I2
sI1
I1
sI2
tp136
Rp137
g5
(S'-3e138g'
p138
tp139
Rp140
sg1
((dp141
I0
I9
sI1
I1
sI2
tp142
Rp143
g5
(S'go8'
p144
tp145
Rp146
s.