(dp0
csage.rings.polynomial.polydict
make_ETuple
p1
((dp2
I2
tp3
Rp4
csage.rings.integer
make_integer
p5
(S'1aid3ndg00'
p6
tp7
Rp8
sg1
((dp9
I0
I43
sI1
I1
sI2
tp10
Rp11
g5
(S'-kg9noq'
p12
tp13
Rp14
sg1
((dp15
I0
I3
sI2
tp16
Rp17
g5
(S'90g6rtm4g00'
p18
tp19
Rp20
sg1
((dp21
I0
I23
sI2
tp22
Rp23
g5
(S'-7ej8b5ihdkn6n48'
p24
tp25
Rp26
sg1
((dp27
I0
I46
sI2
tp28
Rp29
g5
(S'fadqdpoq17iauu8'
p30
tp31
Rp32
sg1
((dp33
I0
I24
sI1
I1
sI2
tp34
Rp35
g5
(S'2oos26qqf0c'
p36
tp37
Rp38
sg1
((dp39
I0
I69
sI2
tp40
Rp41
g5
(S'29b6pofovktfqu'
p42
tp43
Rp44
sg1
((dp45
I0
I27
sI1
I1
sI2
tp46
Rp47
g5
(S'-5ot0uo6vsqs'
p48
tp49
Rp50
sg1
((dp51
I0
I92
sI2
tp52
Rp53
g5
(S'kndi528k'
p54
tp55
Rp56
sg1
((dp57
I0
I8
sI2
tp58
Rp59
g5
(S'-nblqp5eu4ev0'
p60
tp61
Rp62
sg1
((dp63
I0
I31
sI2
tp64
Rp65
g5
(S'-al1i94vha22gamg'
p66
tp67
Rp68
sg1
((dp69
I0
I54
sI2
tp70
Rp71
g5
(S'-893s2engk1cd550'
p72
tp73
Rp74
sg1
((dp75
I0
I33
sI1
I1
sI2
tp76
Rp77
g5
(S'3699hli9g6'
p78
tp79
Rp80
sg1
((dp81
I0
I77
sI2
tp82
Rp83
g5
(S'sl23ud5ghr2a'
p84
tp85
Rp86
sg1
((dp87
I0
I46
sI1
I1
sI2
tp88
Rp89
g5
(S'-6p620'
p90
tp91
Rp92
sg1
((dp93
I0
I100
sI2
tp94
Rp95
g5
(S'6a'
p96
tp97
Rp98
sg1
((dp99
I0
I16
sI2
tp100
Rp101
g5
(S'1u4grffpbk7k9e0'
p102
tp103
Rp104
sg1
((dp105
I0
I39
sI2
tp106
Rp107
g5
(S'-168904bsvatd2i30'
p108
tp109
Rp110
sg1
((dp111
I0
I62
sI2
tp112
Rp113
g5
(S'-12jf5r8hl0cioc8'
p114
tp115
Rp116
sg1
((dp117
I0
I85
sI2
tp118
Rp119
g5
(S'2bemn05jmga'
p120
tp121
Rp122
sg1
((dp123
I0
I1
sI2
tp124
Rp125
g5
(S'i4pjt9ig00'
p126
tp127
Rp128
sg1
((dp129
I0
I23
sI1
I1
sI2
tp130
Rp131
g5
(S'-hldgm5eisoe'
p132
tp133
Rp134
sg1
((dp135
I0
I24
sI2
tp136
Rp137
g5
(S'-2687uk6cr4q6rqhm'
p138
tp139
Rp140
sg1
((dp141
I0
I36
sI1
I1
sI2
tp142
Rp143
g5
(S'bcrhh1lc8'
p144
tp145
Rp146
sg1
((dp147
I0
I47
sI2
tp148
Rp149
g5
(S'eo7mdeeo5912puo'
p150
tp151
Rp152
sg1
((dp153
I0
I70
sI2
tp154
Rp155
g5
(S'-php421pvge030'
p156
tp157
Rp158
sg1
((dp159
I0
I13
sI1
I1
sI2
tp160
Rp161
g5
(S'j1ghc696go'
p162
tp163
Rp164
sg1
((dp165
I0
I16
sI1
I1
sI2
tp166
Rp167
g5
(S'7qs7pkc38io'
p168
tp169
Rp170
sg1
((dp171
I0
I93
sI2
tp172
Rp173
g5
(S'-33iotovk'
p174
tp175
Rp176
sg1
((dp177
I0
I9
sI2
tp178
Rp179
g5
(S'-1lu71dnls0m80'
p180
tp181
Rp182
sg1
((dp183
I0
I3
sI1
I1
sI2
tp184
Rp185
g5
(S'21ad8tk0'
p186
tp187
Rp188
sg1
((dp189
I0
I19
sI1
I1
sI2
tp190
Rp191
g5
(S'-h0khiu8kq8a'
p192
tp193
Rp194
sg1
((dp195
I0
I32
sI2
tp196
Rp197
g5
(S'1r8i1nf92j8fuhh4'
p198
tp199
Rp200
sg1
((dp201
I0
I45
sI1
I1
sI2
tp202
Rp203
g5
(S'1e7v4c'
p204
tp205
Rp206
sg1
((dp207
I0
I55
sI2
tp208
Rp209
g5
(S'80p4t7adeovsabg'
p210
tp211
Rp212
sg1
((dp213
I0
I78
sI2
tp214
Rp215
g5
(S'-3sd4lo5jj8ho'
p216
tp217
Rp218
sg1
((dp219
I0
I26
sI1
I1
sI2
tp220
Rp221
g5
(S'-1gn1vvktgis'
p222
tp223
Rp224
sg1
((dp225
I0
I101
sI2
tp226
Rp227
g5
(S'-2'
p228
tp229
Rp230
sg1
((dp231
I0
I17
sI2
tp232
Rp233
g5
(S'2e105hmi1dk52rk'
p234
tp235
Rp236
sg1
((dp237
I0
I40
sI2
tp238
Rp239
g5
(S'ealkr4rj6nbole2'
p240
tp241
Rp242
sg1
((dp243
I0
I63
sI2
tp244
Rp245
g5
(S'8v2osjb34r6hp8'
p246
tp247
Rp248
sg1
((dp249
I0
I86
sI2
tp250
Rp251
g5
(S'-anobv8f1qc'
p252
tp253
Rp254
sg1
((dp255
I0
I35
sI1
I1
sI2
tp256
Rp257
g5
(S'-5j5jrifv2'
p258
tp259
Rp260
sg1
((dp261
I0
I2
sI2
tp262
Rp263
g5
(S'36f96oaes00'
p264
tp265
Rp266
sg1
((dp267
I0
I25
sI2
tp268
Rp269
g5
(S'-1m7gl0mhjlv1q1dq'
p270
tp271
Rp272
sg1
((dp273
I0
I48
sI1
I1
sI2
tp274
Rp275
g5
(S'-rq2'
p276
tp277
Rp278
sg1
((dp279
I0
I12
sI1
I1
sI2
tp280
Rp281
g5
(S'1hn6909fh5e'
p282
tp283
Rp284
sg1
((dp285
I0
I48
sI2
tp286
Rp287
g5
(S'-soflre05j5o6q26'
p288
tp289
Rp290
sg1
((dp291
I0
I15
sI1
I1
sI2
tp292
Rp293
g5
(S'-3ltkfasulr6'
p294
tp295
Rp296
sg1
((dp297
I0
I71
sI2
tp298
Rp299
g5
(S'-7i9tfd3eh6tso'
p300
tp301
Rp302
sg1
((dp303
I0
I94
sI2
tp304
Rp305
g5
(S'c5l2s68'
p306
tp307
Rp308
sg1
((dp309
I0
I10
sI2
tp310
Rp311
g5
(S'4aobtg6sj95rg'
p312
tp313
Rp314
sg1
((dp315
I0
I1
sI1
I1
sI2
tp316
Rp317
g5
(S'-bpfo80'
p318
tp319
Rp320
sg1
((dp321
I0
I33
sI2
tp322
Rp323
g5
(S'ujo7mvnnh5ghr6e'
p324
tp325
Rp326
sg1
((dp327
I0
I25
sI1
I1
sI2
tp328
Rp329
g5
(S'bimf7iqcsbg'
p330
tp331
Rp332
sg1
((dp333
I0
I56
sI2
tp334
Rp335
g5
(S'-2d11for79co0dck'
p336
tp337
Rp338
sg1
((dp339
I0
I38
sI1
I1
sI2
tp340
Rp341
g5
(S'-u19n9m8m'
p342
tp343
Rp344
sg1
((dp345
I0
I79
sI2
tp346
Rp347
g5
(S'-53g0i1ur4veg'
p348
tp349
Rp350
sg1
((dp351
I0
I18
sI2
tp352
Rp353
g5
(S'-3cuv1ka1ehqv5dg'
p354
tp355
Rp356
sg1
((dp357
I0
I41
sI2
tp358
Rp359
g5
(S'vrab1e86u61b7bc'
p360
tp361
Rp362
sg1
((dp363
I0
I64
sI2
tp364
Rp365
g5
(S'98v7q4drl80rsg'
p366
tp367
Rp368
sg1
((dp369
I0
I47
sI1
I1
sI2
tp370
Rp371
g5
(S'i83a'
p372
tp373
Rp374
sg1
((dp375
I0
I87
sI2
tp376
Rp377
g5
(S'-4if2970ups'
p378
tp379
Rp380
sg1
((dp381
I0
I8
sI1
I1
sI2
tp382
Rp383
g5
(S'1c6pg4eoj0'
p384
tp385
Rp386
sg1
((dp387
I0
I28
sI1
I1
sI2
tp388
Rp389
g5
(S'ur7m6i02m2'
p390
tp391
Rp392
sg1
((dp393
I0
I26
sI2
tp394
Rp395
g5
(S'1c5sr10sv1m5egre'
p396
tp397
Rp398
sg1
((dp399
I0
I11
sI1
I1
sI2
tp400
Rp401
g5
(S'422b3l7mfe'
p402
tp403
Rp404
sg1
((dp405
I0
I49
sI2
tp406
Rp407
g5
(S'g2c3ged0k728lco'
p408
tp409
Rp410
sg1
((dp411
I0
I17
sI1
I1
sI2
tp412
Rp413
g5
(S'9v0282ph70u'
p414
tp415
Rp416
sg1
((dp417
I0
I72
sI2
tp418
Rp419
g5
(S'foptanofibi32'
p420
tp421
Rp422
sg1
((dp423
I0
I95
sI2
tp424
Rp425
g5
(S'-16idfb8'
p426
tp427
Rp428
sg1
((dp429
I0
I37
sI1
I1
sI2
tp430
Rp431
g5
(S'-1nnf852ne'
p432
tp433
Rp434
sg1
((dp435
I0
I34
sI2
tp436
Rp437
g5
(S'h3kg3ha5caak2gu'
p438
tp439
Rp440
sg1
((dp441
I0
I6
sI1
I1
sI2
tp442
Rp443
g5
(S'-1puqeu7po'
p444
tp445
Rp446
sg1
((dp447
I0
I57
sI2
tp448
Rp449
g5
(S'-2p5mg4g7q7i7jos'
p450
tp451
Rp452
sg1
((dp453
I0
I18
sI1
I1
sI2
tp454
Rp455
g5
(S'-9pkam64021u'
p456
tp457
Rp458
sg1
((dp459
I0
I9
sI1
I1
sI2
tp460
Rp461
g5
(S'-2qhbn3pqfg'
p462
tp463
Rp464
sg1
((dp465
I0
I80
sI2
tp466
Rp467
g5
(S'4iqjncpqkh0m'
p468
tp469
Rp470
sg1
((dp471
I0
I91
sI2
tp472
Rp473
g5
(S'-3gacqovrc'
p474
tp475
Rp476
sg1
((dp477
I0
I10
sI1
I1
sI2
tp478
Rp479
g5
(S'-b7fq9o49k8'
p480
tp481
Rp482
sg1
((dp483
I0
I19
sI2
tp484
Rp485
g5
(S'-bsnagsie7cctk8s'
p486
tp487
Rp488
sg1
((dp489
I0
I42
sI2
tp490
Rp491
g5
(S'-19fcvppeo0p4oo4e'
p492
tp493
Rp494
sg1
((dp495
I0
I65
sI2
tp496
Rp497
g5
(S'-cfds39tsg5e4to'
p498
tp499
Rp500
sg1
((dp501
I0
I4
sI1
I1
sI2
tp502
Rp503
g5
(S'-3kkn4ejg'
p504
tp505
Rp506
sg1
((dp507
I0
I30
sI1
I1
sI2
tp508
Rp509
g5
(S'-heeoh52ua8'
p510
tp511
Rp512
sg1
((dp513
I0
I88
sI2
tp514
Rp515
g5
(S'3t23adu0os'
p516
tp517
Rp518
sg1
((dp519
I0
I40
sI1
I1
sI2
tp520
Rp521
g5
(S'-i2g6bba'
p522
tp523
Rp524
sg1
((dp525
I0
I4
sI2
tp526
Rp527
g5
(S'acki5d78sg0'
p528
tp529
Rp530
sg1
((dp531
I0
I27
sI2
tp532
Rp533
g5
(S'3a33nnlcat5cbl2s'
p534
tp535
Rp536
sg1
((dp537
I0
I50
sI2
tp538
Rp539
g5
(S'70biviorkf4rpsc'
p540
tp541
Rp542
sg1
((dp543
I0
I73
sI2
tp544
Rp545
g5
(S'-9o2ibcfgec3g2'
p546
tp547
Rp548
sg1
((dp549
I0
I2
sI1
I1
sI2
tp550
Rp551
g5
(S'8iebem0'
p552
tp553
Rp554
sg1
((dp555
I0
I96
sI2
tp556
Rp557
g5
(S'31juag'
p558
tp559
Rp560
sg1
((dp561
I0
I49
sI1
I1
sI2
tp562
Rp563
g5
(S'iu'
p564
tp565
Rp566
sg1
((dp567
I0
I12
sI2
tp568
Rp569
g5
(S'ojhcegnn1arac'
p570
tp571
Rp572
sg1
((dp573
I0
I5
sI1
I1
sI2
tp574
Rp575
g5
(S'-1qc48dqqg'
p576
tp577
Rp578
sg1
((dp579
I0
I35
sI2
tp580
Rp581
g5
(S'-21ocvhdufcp9sbc'
p582
tp583
Rp584
sg1
((dp585
I0
I58
sI2
tp586
Rp587
g5
(S'408s48v9kl3hvco'
p588
tp589
Rp590
sg1
((dp591
I0
I81
sI2
tp592
Rp593
g5
(S'-1rd7rjd9gr5e'
p594
tp595
Rp596
sg1
((dp597
I1
I1
sI2
tp598
Rp599
g5
(S'-1najg0'
p600
tp601
Rp602
sg1
((dp603
I0
I20
sI2
tp604
Rp605
g5
(S'-56ocsv2alpnl470'
p606
tp607
Rp608
sg1
((dp609
I0
I39
sI1
I1
sI2
tp610
Rp611
g5
(S'cpsm1m3q'
p612
tp613
Rp614
sg1
((dp615
I0
I66
sI2
tp616
Rp617
g5
(S'6dvkm7kagpff94'
p618
tp619
Rp620
sg1
((dp621
I0
I89
sI2
tp622
Rp623
g5
(S'-1jomahfjuk'
p624
tp625
Rp626
sg1
((dp627
I0
I20
sI1
I1
sI2
tp628
Rp629
g5
(S'8he1tsi06h0'
p630
tp631
Rp632
sg1
((dp633
I0
I5
sI2
tp634
Rp635
g5
(S'-563bejtf900'
p636
tp637
Rp638
sg1
((dp639
I0
I11
sI2
tp640
Rp641
g5
(S'runfia7n6ue00'
p642
tp643
Rp644
sg1
((dp645
I0
I28
sI2
tp646
Rp647
g5
(S'1git6s5g1e1gvvbs'
p648
tp649
Rp650
sg1
((dp651
I0
I51
sI2
tp652
Rp653
g5
(S'-i2eav39ptqi9sfk'
p654
tp655
Rp656
sg1
((dp657
I0
I74
sI2
tp658
Rp659
g5
(S'23s06cm980c30'
p660
tp661
Rp662
sg1
((dp663
I0
I97
sI2
tp664
Rp665
g5
(S'-60ud8'
p666
tp667
Rp668
sg1
((dp669
I0
I29
sI1
I1
sI2
tp670
Rp671
g5
(S'25f2o7inmd2'
p672
tp673
Rp674
sg1
((dp675
I0
I13
sI2
tp676
Rp677
g5
(S'-4kntcdmqjp2v3k'
p678
tp679
Rp680
sg1
((dp681
I0
I42
sI1
I1
sI2
tp682
Rp683
g5
(S'7dl68pe'
p684
tp685
Rp686
sg1
((dp687
I0
I32
sI1
I1
sI2
tp688
Rp689
g5
(S'78qfb767tu'
p690
tp691
Rp692
sg1
((dp693
I0
I36
sI2
tp694
Rp695
g5
(S'-1b4b1c9u5q0auu5s'
p696
tp697
Rp698
sg1
((dp699
I0
I59
sI2
tp700
Rp701
g5
(S'-21c7a7abm98u848'
p702
tp703
Rp704
sg1
((dp705
I0
I82
sI2
tp706
Rp707
g5
(S'5f5vk19vuks'
p708
tp709
Rp710
sg1
((dp711
I0
I21
sI2
tp712
Rp713
g5
(S'n6ft4g05hso8nt6'
p714
tp715
Rp716
sg1
((dp717
I0
I14
sI1
I1
sI2
tp718
Rp719
g5
(S'-496hbnaagee'
p720
tp721
Rp722
sg1
((dp723
I0
I34
sI1
I1
sI2
tp724
Rp725
g5
(S'-21kq7na6jk'
p726
tp727
Rp728
sg1
((dp729
I0
I44
sI2
tp730
Rp731
g5
(S'p9jks3v2a4gugt4'
p732
tp733
Rp734
sg1
((dp735
I0
I67
sI2
tp736
Rp737
g5
(S'1pg3r6la531tk'
p738
tp739
Rp740
sg1
((dp741
I0
I90
sI2
tp742
Rp743
g5
(S'f90c6kel4'
p744
tp745
Rp746
sg1
((dp747
I0
I6
sI2
tp748
Rp749
g5
(S'-k6ja4ms55g0'
p750
tp751
Rp752
sg1
((dp753
I0
I43
sI2
tp754
Rp755
g5
(S'aea3j2b17c0mkgc'
p756
tp757
Rp758
sg1
((dp759
I0
I29
sI2
tp760
Rp761
g5
(S'-26hjcuns81nb0k36'
p762
tp763
Rp764
sg1
((dp765
I1
I2
sI2
tp766
Rp767
g5
(S'c'
p768
tp769
Rp770
sg1
((dp771
I0
I52
sI2
tp772
Rp773
g5
(S'c5l7ds8jco7pa96'
p774
tp775
Rp776
sg1
((dp777
I0
I41
sI1
I1
sI2
tp778
Rp779
g5
(S'-p5009m8'
p780
tp781
Rp782
sg1
((dp783
I0
I98
sI2
tp784
Rp785
g5
(S'8v70'
p786
tp787
Rp788
sg1
((dp789
I0
I14
sI2
tp790
Rp791
g5
(S'-cs2o8oscmte472'
p792
tp793
Rp794
sg1
((dp795
I0
I22
sI1
I1
sI2
tp796
Rp797
g5
(S'-5c9kic94tok'
p798
tp799
Rp800
sg1
((dp801
I0
I37
sI2
tp802
Rp803
g5
(S'7rkc2rdqfqjbt4q'
p804
tp805
Rp806
sg1
((dp807
I0
I60
sI2
tp808
Rp809
g5
(S'-ajronjjh08p0j4'
p810
tp811
Rp812
sg1
((dp813
I0
I83
sI2
tp814
Rp815
g5
(S'900b3avlddc'
p816
tp817
Rp818
sg1
((dp819
I0
I22
sI2
tp820
Rp821
g5
(S'14n6a11jprhko81e'
p822
tp823
Rp824
sg1
((dp825
I0
I31
sI1
I1
sI2
tp826
Rp827
g5
(S'-ionjd166h0'
p828
tp829
Rp830
sg1
((dp831
I0
I45
sI2
tp832
Rp833
g5
(S'-12tdevgcnola3uqs'
p834
tp835
Rp836
sg1
((dp837
I0
I44
sI1
I1
sI2
tp838
Rp839
g5
(S'-3u316e'
p840
tp841
Rp842
sg1
((dp843
I0
I68
sI2
tp844
Rp845
g5
(S'-2okma76425cvbu'
p846
tp847
Rp848
sg1
((dp849
I0
I75
sI2
tp850
Rp851
g5
(S'1ikqjf85vcpgg'
p852
tp853
Rp854
sg1
((dp855
I0
I7
sI2
tp856
Rp857
g5
(S'-2rmoia52s1g0'
p858
tp859
Rp860
sg1
((dp861
I0
I30
sI2
tp862
Rp863
g5
(S'-39hf9etvp7k8uv8i'
p864
tp865
Rp866
sg1
((dp867
I0
I53
sI2
tp868
Rp869
g5
(S'8fn8ms7i3kutg2'
p870
tp871
Rp872
sg1
((dp873
I0
I21
sI1
I1
sI2
tp874
Rp875
g5
(S'k8lu574n5lm'
p876
tp877
Rp878
sg1
((dp879
I0
I76
sI2
tp880
Rp881
g5
(S'-1r6fh18q0s4nq'
p882
tp883
Rp884
sg1
((dp885
I0
I99
sI2
tp886
Rp887
g5
(S'-9f0'
p888
tp889
Rp890
sg1
((dp891
I0
I15
sI2
tp892
Rp893
g5
(S'2sbbsusi8es5r4'
p894
tp895
Rp896
sg1
((dp897
I0
I38
sI2
tp898
Rp899
g5
(S'nt21esh9l7qmt8s'
p900
tp901
Rp902
sg1
((dp903
I0
I61
sI2
tp904
Rp905
g5
(S'1c02n1341mj81mk'
p906
tp907
Rp908
sg1
((dp909
I0
I7
sI1
I1
sI2
tp910
Rp911
g5
(S'j9g7aiqqs'
p912
tp913
Rp914
sg1
((dp915
I0
I84
sI2
tp916
Rp917
g5
(S'-6igmhj3tji2'
p918
tp919
Rp920
s.