(dp0
csage.rings.polynomial.polydict
make_ETuple
p1
((dp2
I2
tp3
Rp4
csage.rings.integer
make_integer
p5
(S'35recj96kn29sjp16h3ip9n40000000000000000000'
p6
tp7
Rp8
sg1
((dp9
I0
I107
sI1
I1
sI2
tp10
Rp11
g5
(S'-sabg3anfhevr6icu2a6h6dqm5ntqbrdm6q1ghs1pd9rsr2bf34mqritboi2h9bknqjrot2'
p12
tp13
Rp14
sg1
((dp15
I0
I59
sI1
I5
sI2
tp16
Rp17
g5
(S'-fhium77ftqg612bmae7ud8lv8utmh80emsbkqr0a3a3ljaakgoqc2'
p18
tp19
Rp20
sg1
((dp21
I0
I175
sI1
I4
sI2
tp22
Rp23
g5
(S'-j0q8cb8crmvfdci34u62e31si7fdga8o'
p24
tp25
Rp26
sg1
((dp27
I0
I11
sI1
I9
sI2
tp28
Rp29
g5
(S'2l1rhif4dtbldi'
p30
tp31
Rp32
sg1
((dp33
I0
I129
sI1
I1
sI2
tp34
Rp35
g5
(S'-2hl1ajsqr946mlg0g396f7qpscj5e0lsinvq5cvg7v971uprsas3vho5gcroumcasssg'
p36
tp37
Rp38
sg1
((dp39
I0
I184
sI2
tp40
Rp41
g5
(S'2fruphdcfqr9gbadmu0ptoqfc1pkfuv1u68hamtlmkus'
p42
tp43
Rp44
sg1
((dp45
I0
I81
sI1
I5
sI2
tp46
Rp47
g5
(S'-fps98ld683on6kfs63pr2lqcaskqsfq1ekgtnrtpk82lrnch6k3kc'
p48
tp49
Rp50
sg1
((dp51
I0
I197
sI1
I4
sI2
tp52
Rp53
g5
(S'-u'
p54
tp55
Rp56
sg1
((dp57
I0
I18
sI1
I4
sI2
tp58
Rp59
g5
(S'4ggb36ck4g5sntmfre1b04nl7nfm21i6p7cm20can4k1dvjk'
p60
tp61
Rp62
sg1
((dp63
I0
I85
sI2
tp64
Rp65
g5
(S'-2l1s1dc0pliataiemc6epgiug0vtc8b2gjti9u6tljguq832ravpb3n96p1m3eldvdcr38ipi7s'
p66
tp67
Rp68
sg1
((dp69
I0
I151
sI1
I1
sI2
tp70
Rp71
g5
(S'-ibo8rqofhpnvr2tcg401d0ctkbu0ljhhprqv662s03q78pccrr3iqlrshhrf4'
p72
tp73
Rp74
sg1
((dp75
I0
I103
sI1
I5
sI2
tp76
Rp77
g5
(S'-1lg6994v5hdg88jh35pelp9k8kr89vq7vkrptapovto0l36nfa2'
p78
tp79
Rp80
sg1
((dp81
I0
I40
sI1
I4
sI2
tp82
Rp83
g5
(S'6oq1ptdtii96gcpe7jdmb3rimbp15qah01tnact3huvh52jkb4jrqpos'
p84
tp85
Rp86
sg1
((dp87
I0
I173
sI1
I1
sI2
tp88
Rp89
g5
(S'14ffte2l4m8q1fqpabrkb2mhk0midgp8eomlde5c6samnlu79f0'
p90
tp91
Rp92
sg1
((dp93
I0
I9
sI1
I2
sI2
tp94
Rp95
g5
(S'-7ds75uljlbophbq37qou1r4m6vseedf1tqrd75400000000'
p96
tp97
Rp98
sg1
((dp99
I0
I125
sI1
I5
sI2
tp100
Rp101
g5
(S'-f25kj1latrm08v7eav9g4d2bt73k1fkjb399ubqbur88'
p102
tp103
Rp104
sg1
((dp105
I0
I62
sI1
I4
sI2
tp106
Rp107
g5
(S'-18g01q8m9pv10dfe6tilbt07c0kmqm0ajtg89r3fmqq1mc31gsem4a3egu5i'
p108
tp109
Rp110
sg1
((dp111
I0
I170
sI2
tp112
Rp113
g5
(S'1e22j8ke13i5h43g72btpp5ruserb6ao0rgu4t46jirl1spn0dlp4lq'
p114
tp115
Rp116
sg1
((dp117
I0
I195
sI1
I1
sI2
tp118
Rp119
g5
(S'40ijsg04r6ed0hfj2ttjme'
p120
tp121
Rp122
sg1
((dp123
I0
I31
sI1
I2
sI2
tp124
Rp125
g5
(S'-pjeqtouf9939a5f0h62rsngmt1hs81an3t7lkcu1rrio57h0o1g3rm6ed730'
p126
tp127
Rp128
sg1
((dp129
I0
I16
sI1
I1
sI2
tp130
Rp131
g5
(S'-dnodmjgu3nbmlfsdtuv6rftv49e58ebpnfsqpenv5vd4k3g0000000'
p132
tp133
Rp134
sg1
((dp135
I0
I147
sI1
I5
sI2
tp136
Rp137
g5
(S'-1b6erjseavp5ughd74gbnkolm4k9nd4'
p138
tp139
Rp140
sg1
((dp141
I0
I71
sI2
tp142
Rp143
g5
(S'-33vvsl7mcg7pls4ebvq016msqhtd7utird1rd6asjudv7d6esnb4c806itorcpjjcgp6e5pl54'
p144
tp145
Rp146
sg1
((dp147
I0
I84
sI1
I4
sI2
tp148
Rp149
g5
(S'5hurhssj75u57cc3nrqv3g49pvvua8hkmle641iu2jhqp7kqcum68r36pdvj6'
p150
tp151
Rp152
sg1
((dp153
I0
I36
sI1
I8
sI2
tp154
Rp155
g5
(S'1qstp0qnjnjco6ammskmn3uvos'
p156
tp157
Rp158
sg1
((dp159
I0
I53
sI1
I2
sI2
tp160
Rp161
g5
(S'-84b9ibhb3uoon91n1n1u1oba96jdqrkr2uiqatoqsqbumv016ushsdlvb2d8h6gdto0'
p162
tp163
Rp164
sg1
((dp165
I0
I38
sI1
I1
sI2
tp166
Rp167
g5
(S'-14835br035670fpvig92u8jnu4qigbkjorhq12k12rf1rdsokd3m8p9r0ccqcblka0'
p168
tp169
Rp170
sg1
((dp171
I0
I5
sI1
I6
sI2
tp172
Rp173
g5
(S'-4t6fs756n7voo5io043mr5og6jj6hj0'
p174
tp175
Rp176
sg1
((dp177
I0
I106
sI1
I4
sI2
tp178
Rp179
g5
(S'-159816ktpgu4vfbq08pj6jinh6881sevv32bmpj5qb8sohe9u8snq1ta70ism'
p180
tp181
Rp182
sg1
((dp183
I0
I75
sI1
I2
sI2
tp184
Rp185
g5
(S'-2oecjrr84pt9uevsr9l8h97qktd92p2hiqgm40qp9i7ujlrbtmji8p67tf7mru7jeah4f4'
p186
tp187
Rp188
sg1
((dp189
I0
I60
sI1
I1
sI2
tp190
Rp191
g5
(S'-1iuhbjivkcgmhtonc3g1vsdmtkbtoh7vmon46cpva6hhgroh7lclp9dgnud2urb64f1lqjq'
p192
tp193
Rp194
sg1
((dp195
I0
I27
sI1
I6
sI2
tp196
Rp197
g5
(S'-133dsldj3r9f0q4gahb26u8io664en62m7tshld31n8'
p198
tp199
Rp200
sg1
((dp201
I0
I156
sI2
tp202
Rp203
g5
(S'itv7khdl8o3f343887mrc5q4nto44523gfigb2jofvpudqln92fir50pftdua'
p204
tp205
Rp206
sg1
((dp207
I0
I12
sI1
I5
sI2
tp208
Rp209
g5
(S'3jlheqbipg1i0hqhe35s537d7s3b3ec3o3np0vvo'
p210
tp211
Rp212
sg1
((dp213
I0
I128
sI1
I4
sI2
tp214
Rp215
g5
(S'30dltcebuh17fcag3klspaem8bmevn6kj9s2dhl595o0sbmmnhkbbv80s2'
p216
tp217
Rp218
sg1
((dp219
I0
I97
sI1
I2
sI2
tp220
Rp221
g5
(S'-bss8pr7l4red5d40qo2l68jmmittunqd1pg4mgsbisj2obupao473cv79avlo3hpel8n0'
p222
tp223
Rp224
sg1
((dp225
I0
I57
sI2
tp226
Rp227
g5
(S'-7dmmmbo53rb718e6o6kq51pc1t3avhema4lv9lts32683n83ih1c7ntkklh8tl8qpijfqebg'
p228
tp229
Rp230
sg1
((dp231
I0
I82
sI1
I1
sI2
tp232
Rp233
g5
(S'-e6iruamico44ef9rtkcgt9ifhj302f4dpg3guueg2efeo75tr3l6kf8ntabm280c46672rm'
p234
tp235
Rp236
sg1
((dp237
I0
I49
sI1
I6
sI2
tp238
Rp239
g5
(S'-3nsgm6m66068vj5kshico9k5aue2u1kkhcm8ij1qhq1838'
p240
tp241
Rp242
sg1
((dp243
I0
I34
sI1
I5
sI2
tp244
Rp245
g5
(S'-r1bvdnonvojojtsvum0pp03lhjotiiqagqt5egjlusla6g12o'
p246
tp247
Rp248
sg1
((dp249
I0
I150
sI1
I4
sI2
tp250
Rp251
g5
(S'4hameuuhjjq1ikq8rhvo6msbfhqnkvur6ukfgg86elvr5qhgrk'
p252
tp253
Rp254
sg1
((dp255
I0
I3
sI1
I3
sI2
tp256
Rp257
g5
(S'lfcl8eagjonico15mj4ogoreecdjve000000000'
p258
tp259
Rp260
sg1
((dp261
I0
I119
sI1
I2
sI2
tp262
Rp263
g5
(S'-l9oqigl1pd2l14tlctualsoc79agfl4ajf4dempcmuhvfh8g1qu4usb7me5ra37jk'
p264
tp265
Rp266
sg1
((dp267
I0
I104
sI1
I1
sI2
tp268
Rp269
g5
(S'4c502l1e2db0rjcil09ds5ske3t3rtrjsa64apj34dfb782520up5v4lap6p0spehdeheba'
p270
tp271
Rp272
sg1
((dp273
I0
I5
sI1
I8
sI2
tp274
Rp275
g5
(S'-8k1bfdq9s9f1u8frfu42mg'
p276
tp277
Rp278
sg1
((dp279
I0
I71
sI1
I6
sI2
tp280
Rp281
g5
(S'-cll3cc4dqs7oadtqghib3kl1emh7mepcuu61fu258heg'
p282
tp283
Rp284
sg1
((dp285
I0
I56
sI1
I5
sI2
tp286
Rp287
g5
(S'-5b9uuuiqjrdl81cmdn9bkiha8bbj260m6ce14vlpvf137t03eib5g'
p288
tp289
Rp290
sg1
((dp291
I0
I172
sI1
I4
sI2
tp292
Rp293
g5
(S'9hnu747hc4r40he8tll5j1eoosme39lom48'
p294
tp295
Rp296
sg1
((dp297
I0
I8
sI1
I9
sI2
tp298
Rp299
g5
(S'19p2j2rb790ep2'
p300
tp301
Rp302
sg1
((dp303
I0
I10
sI1
I2
sI2
tp304
Rp305
g5
(S'3hl3qa75u6m3spheruepkg2bp33v25fmlfo2a24400000000'
p306
tp307
Rp308
sg1
((dp309
I0
I25
sI1
I3
sI2
tp310
Rp311
g5
(S'-jig7bavruh405njqt2epq6h78ea3bfs4shq9hlo7904t9fe0eoqqg'
p312
tp313
Rp314
sg1
((dp315
I0
I141
sI1
I2
sI2
tp316
Rp317
g5
(S'-8fqe25oa99ieoa0cdd0a7nlmmd5agtfal1aq1h2203bpo7huautbq2ti54ahh4'
p318
tp319
Rp320
sg1
((dp321
I0
I126
sI1
I1
sI2
tp322
Rp323
g5
(S'imrljcg3ra82ki6igvgiibfie9mcpubt8qgim93vin5h3glqh2cbvsb17so7j111c86u'
p324
tp325
Rp326
sg1
((dp327
I0
I93
sI1
I6
sI2
tp328
Rp329
g5
(S'-1ht0en4emg2qccp4r3dr2cs5ltus9upb5dg2is6o'
p330
tp331
Rp332
sg1
((dp333
I0
I78
sI1
I5
sI2
tp334
Rp335
g5
(S'16sclf1voglmdu59g2s2fqavrfu0evf5pf7srtujbn956llsqonbku'
p336
tp337
Rp338
sg1
((dp339
I0
I194
sI1
I4
sI2
tp340
Rp341
g5
(S'v5v1cd8'
p342
tp343
Rp344
sg1
((dp345
I0
I43
sI2
tp346
Rp347
g5
(S'-6h5oo4hks1ni7movieiv7hucmg5dia5i92qrruovdihls4ouitfhp8dcbqvpmcegj5o00'
p348
tp349
Rp350
sg1
((dp351
I0
I32
sI1
I2
sI2
tp352
Rp353
g5
(S'3c2ia8krivg7agt078u25hvdjorla93gk3vs5vkgrjfjmmie4gn94uj4q4v10'
p354
tp355
Rp356
sg1
((dp357
I0
I47
sI1
I3
sI2
tp358
Rp359
g5
(S'3dfq9nbfeltgg6b6g72jsdo1hb0a011db7a62hk2dctejigogs5o0jpkr0a55o'
p360
tp361
Rp362
sg1
((dp363
I0
I163
sI1
I2
sI2
tp364
Rp365
g5
(S'-3c02u2kn1nfnhf7fp5gqa3bvkpcopdiadg7qdvqq8jegb35u8haur8'
p366
tp367
Rp368
sg1
((dp369
I0
I148
sI1
I1
sI2
tp370
Rp371
g5
(S'lrsp7j5te0mq2mmle35s2rv601v229fpg44im74f93usd3blna641e1he492ma'
p372
tp373
Rp374
sg1
((dp375
I0
I49
sI1
I8
sI2
tp376
Rp377
g5
(S'-kjbs7h5904ivs30aulfmc'
p378
tp379
Rp380
sg1
((dp381
I0
I115
sI1
I6
sI2
tp382
Rp383
g5
(S'-q5as7da4e2s0rlikk20toqljsqle0'
p384
tp385
Rp386
sg1
((dp387
I0
I100
sI1
I5
sI2
tp388
Rp389
g5
(S'hi2fokb573kqjt1iloc67j6qf6a5savn5gqlkr31tabcjpd40o'
p390
tp391
Rp392
sg1
((dp393
I0
I54
sI1
I2
sI2
tp394
Rp395
g5
(S'g80tk3h5h9rc7k64707b9un2slsm6nhdc2v09cm4vlisjq03lvfgl0qarcdmidv3ibc'
p396
tp397
Rp398
sg1
((dp399
I0
I69
sI1
I3
sI2
tp400
Rp401
g5
(S'3jrtnang4t9pb739uj9b5focf8fdov5iqq543c418142lbbjho2lc3sbt3vbd0s64'
p402
tp403
Rp404
sg1
((dp405
I0
I185
sI1
I2
sI2
tp406
Rp407
g5
(S'-2og2ploqsgp05scd2vfnh09j6djj14befmf8l0'
p408
tp409
Rp410
sg1
((dp411
I0
I170
sI1
I1
sI2
tp412
Rp413
g5
(S'-45fnc8de90j0bio9v88a91e01cssoffkb04i0f0hkh6atc06des8'
p414
tp415
Rp416
sg1
((dp417
I0
I6
sI1
I6
sI2
tp418
Rp419
g5
(S'ne4sdu3m42449ha1u05eqdn8b6p9afo'
p420
tp421
Rp422
sg1
((dp423
I0
I21
sI1
I7
sI2
tp424
Rp425
g5
(S'-k6k4u2a7mn5d66276s002cf1o06bs6qar8'
p426
tp427
Rp428
sg1
((dp429
I0
I122
sI1
I5
sI2
tp430
Rp431
g5
(S'15ijn7qb24cn3etrds4d6bnensirbtcubgmcqvbinra0ie'
p432
tp433
Rp434
sg1
((dp435
I0
I128
sI2
tp436
Rp437
g5
(S'mcvj0cle4i6p71ivik7do5u5rahapu4ggag1dafj29mjdt1om471i96or2ol5b7qojv9vi'
p438
tp439
Rp440
sg1
((dp441
I0
I76
sI1
I2
sI2
tp442
Rp443
g5
(S'36ckkvetaq45m77e0ar7pfprdaia165gim4puhb9i3l7911sv8p205073jk83css2vgnc0'
p444
tp445
Rp446
sg1
((dp447
I0
I91
sI1
I3
sI2
tp448
Rp449
g5
(S'juddulbv7qsu7ssuod1s1vvv02hje25leabpq6s7rhc2la98sbs2h8orr31s8n2j4'
p450
tp451
Rp452
sg1
((dp453
I0
I192
sI1
I1
sI2
tp454
Rp455
g5
(S'mrr3ecnm5m59fdqaq8uigar05cnjt8q'
p456
tp457
Rp458
sg1
((dp459
I0
I28
sI1
I6
sI2
tp460
Rp461
g5
(S'30l6omgbvlm7vt4ejj6sg4krbd2aotkec45034ks0ko'
p462
tp463
Rp464
sg1
((dp465
I0
I43
sI1
I7
sI2
tp466
Rp467
g5
(S'8iu4bkbju0n8ovhflbp130ifa1p1tfovhocg'
p468
tp469
Rp470
sg1
((dp471
I0
I29
sI2
tp472
Rp473
g5
(S'-8gq852u3k17ces2rmqp52g49dcc1ndtpbt67ufmfsobito4c1kmn969h6ik00000'
p474
tp475
Rp476
sg1
((dp477
I0
I144
sI1
I5
sI2
tp478
Rp479
g5
(S'-43cel9gs5tfh61jrmvc45oegkn07bsjui'
p480
tp481
Rp482
sg1
((dp483
I0
I98
sI1
I2
sI2
tp484
Rp485
g5
(S'8bor5irh6mot4t1akccabesdoibb5u5b6oa2s4p6nq5c9a10nhj97cqpdgl6f1achb1ig'
p486
tp487
Rp488
sg1
((dp489
I0
I113
sI1
I3
sI2
tp490
Rp491
g5
(S'-48bj0osnbdd9a2h283pdbrr1l1nr4kmmjd05l846k20nk89ro55cm4atn6hc6nco'
p492
tp493
Rp494
sg1
((dp495
I0
I50
sI1
I6
sI2
tp496
Rp497
g5
(S'3vsa2r1v5mgsj7ff203p5khn5smj3b1hon1f9kvjf37700'
p498
tp499
Rp500
sg1
((dp501
I0
I65
sI1
I7
sI2
tp502
Rp503
g5
(S'bs6kiibvuqnde3rtcvvehphcgaa7q1og'
p504
tp505
Rp506
sg1
((dp507
I0
I4
sI1
I3
sI2
tp508
Rp509
g5
(S'-aerhqllv59drn1d0frc335bqsbb8k5u000000000'
p510
tp511
Rp512
sg1
((dp513
I0
I120
sI1
I2
sI2
tp514
Rp515
g5
(S'mech05tc94t7jajftjv4q3bii4qejrdpc80603dgk7s4ip7erus795rbgcstd4ts'
p516
tp517
Rp518
sg1
((dp519
I0
I135
sI1
I3
sI2
tp520
Rp521
g5
(S'21tt6703idfndhvfmn1bm37s0q87uot58012rla8q2m7l0spc7e60s95r9vk'
p522
tp523
Rp524
sg1
((dp525
I0
I21
sI1
I9
sI2
tp526
Rp527
g5
(S'2eqmre0ik9rai'
p528
tp529
Rp530
sg1
((dp531
I0
I72
sI1
I6
sI2
tp532
Rp533
g5
(S'1j6009b34en7oisq3305ivnon77ca023103k8pc01lfo'
p534
tp535
Rp536
sg1
((dp537
I0
I87
sI1
I7
sI2
tp538
Rp539
g5
(S'adbg4csqq19b6ir3gjk9g0'
p540
tp541
Rp542
sg1
((dp543
I0
I114
sI2
tp544
Rp545
g5
(S'8t46pep5qncf7pouibve04vkdbhngsc5g9re6css2l1ubu4hul536vluf46f90eg3b4akp4mi'
p546
tp547
Rp548
sg1
((dp549
I0
I26
sI1
I3
sI2
tp550
Rp551
g5
(S'-urr5g682cao96pl6dqi2ocqg6f9sk2uqnh894g67o1poq7skead8o0'
p552
tp553
Rp554
sg1
((dp555
I0
I142
sI1
I2
sI2
tp556
Rp557
g5
(S'3d3pbmc5l11o50q9cee67ibihji0vel29j847k3opcjvtjhfl5eti8ep8hg1es'
p558
tp559
Rp560
sg1
((dp561
I0
I157
sI1
I3
sI2
tp562
Rp563
g5
(S'3j2dg8i963unes4gqdim1ndt1606agu7os4tkclf7dck2vn827po'
p564
tp565
Rp566
sg1
((dp567
I0
I79
sI1
I7
sI2
tp568
Rp569
g5
(S'-stc9r2umi8fnikdp9sj64db9vqo'
p570
tp571
Rp572
sg1
((dp573
I0
I15
sI2
tp574
Rp575
g5
(S'4nopi97gdpauv99preec5ckmjbktqabekisrikhvom6m100000000000'
p576
tp577
Rp578
sg1
((dp579
I0
I94
sI1
I6
sI2
tp580
Rp581
g5
(S'l75l0qfvr7v8u14dj3ksttgafmlro88pk9ntbgo'
p582
tp583
Rp584
sg1
((dp585
I0
I48
sI1
I3
sI2
tp586
Rp587
g5
(S'-5f3s43lre31emrjnq0ifjplq3ej5f0a2q20an5n7435os6shcgbnik8ra2ker8'
p588
tp589
Rp590
sg1
((dp591
I0
I164
sI1
I2
sI2
tp592
Rp593
g5
(S'i2rrkhpnnht5suq01vhk2n24ed04oav8l0cm1qv7pt8khg5tl1v30'
p594
tp595
Rp596
sg1
((dp597
I0
I179
sI1
I3
sI2
tp598
Rp599
g5
(S'-86dakr54pn61dhkq93qmsr90e5nmmt30v2k4'
p600
tp601
Rp602
sg1
((dp603
I1
I7
sI2
tp604
Rp605
g5
(S'f1mqsr6v4vd5hbg3th05s0'
p606
tp607
Rp608
sg1
((dp609
I0
I116
sI1
I6
sI2
tp610
Rp611
g5
(S'20l92uk1u8ipvr7ocra9n98n320qo'
p612
tp613
Rp614
sg1
((dp615
I0
I15
sI1
I4
sI2
tp616
Rp617
g5
(S'-9484la85o0fooj4pad5n5uqdmp85q7h2pc2qp9bicio4g0'
p618
tp619
Rp620
sg1
((dp621
I0
I2
sI1
I8
sI2
tp622
Rp623
g5
(S'b5m83pro8lk85095neq2'
p624
tp625
Rp626
sg1
((dp627
I0
I70
sI1
I3
sI2
tp628
Rp629
g5
(S'-5g304stc6rq8lucn8llmgqgi48fseiup9tvqhg1dqbtaam9s4vgal9i3gkk5vbth8'
p630
tp631
Rp632
sg1
((dp633
I0
I186
sI1
I2
sI2
tp634
Rp635
g5
(S'1r0ct998044n2qbohb6eiclu3ml0e81i2obro'
p636
tp637
Rp638
sg1
((dp639
I0
I22
sI1
I7
sI2
tp640
Rp641
g5
(S'1ok77qq47ldm35lobhl70r2v44ts48ofm50'
p642
tp643
Rp644
sg1
((dp645
I0
I100
sI2
tp646
Rp647
g5
(S'18v0mq0ij4699d1qmqska72d97dmn3dsudp0iih7lv8486ll6c5ekjojqj92607eae5utmeu3mg'
p648
tp649
Rp650
sg1
((dp651
I0
I37
sI1
I4
sI2
tp652
Rp653
g5
(S'-jt935822f67t866fm3sr5bfmsktibq62vgt2depicumuc1664iaalmu'
p654
tp655
Rp656
sg1
((dp657
I0
I92
sI1
I3
sI2
tp658
Rp659
g5
(S'-l65bsmvj3tus0n7dtb0umsblkjkmkouo312dmkjatjfvifqiffkprrgeqe2s0err4'
p660
tp661
Rp662
sg1
((dp663
I0
I44
sI1
I7
sI2
tp664
Rp665
g5
(S'1tlv6b0hlh1brolmjcp8riie4gqg2o5ja2vg'
p666
tp667
Rp668
sg1
((dp669
I0
I59
sI1
I4
sI2
tp670
Rp671
g5
(S'530kdi95dk538ur5kvoqucgis198rri0tbihknlg2bhc5cn1qah3amlskea'
p672
tp673
Rp674
sg1
((dp675
I0
I46
sI1
I8
sI2
tp676
Rp677
g5
(S'25k1spl9d1qj8q2vfr1sckq'
p678
tp679
Rp680
sg1
((dp681
I0
I11
sI1
I8
sI2
tp682
Rp683
g5
(S'-1carsftv2g594dceleh0u3d2k'
p684
tp685
Rp686
sg1
((dp687
I0
I114
sI1
I3
sI2
tp688
Rp689
g5
(S'2f8igsr9vrqdch3a9f1qs48c9qn6dabolhspsb02ag7oqp8pckhc6vmrvlgime5s'
p690
tp691
Rp692
sg1
((dp693
I0
I13
sI1
I1
sI2
tp694
Rp695
g5
(S'-f9tlier9bekkdti20p11u76nst77r0kas4g81eseihpg00000000'
p696
tp697
Rp698
sg1
((dp699
I0
I185
sI2
tp700
Rp701
g5
(S'-4bv8oc7d3u5pfhp207ft5mrgm0rkn8l2327el3i7vsu'
p702
tp703
Rp704
sg1
((dp705
I0
I66
sI1
I7
sI2
tp706
Rp707
g5
(S'2qnm35akkl9cvkutrm8cc44c0q9hr2ug'
p708
tp709
Rp710
sg1
((dp711
I0
I81
sI1
I4
sI2
tp712
Rp713
g5
(S'-1nt3udtp6t4jmbiv3e25ge8tbh12rmcboiihp50oflquifi1e3tg82oqhutti'
p714
tp715
Rp716
sg1
((dp717
I0
I86
sI2
tp718
Rp719
g5
(S'2tpa8s2e1mmfeiul1rstj17aasisnfa1m8fng7f2qbko4fg39td57vs741jk7pv9nmh28o70is4'
p720
tp721
Rp722
sg1
((dp723
I0
I136
sI1
I3
sI2
tp724
Rp725
g5
(S'-v9a8io4d3eacvro1vt1db0o72mt8o5utuu7urt2cao92kadu9hhujua10mo'
p726
tp727
Rp728
sg1
((dp729
I0
I35
sI1
I1
sI2
tp730
Rp731
g5
(S'ujhmbsbbt30cqhehg2so9qh049484g2uhnsfv988123tbudovlegpkss6uet4300'
p732
tp733
Rp734
sg1
((dp735
I0
I88
sI1
I7
sI2
tp736
Rp737
g5
(S'-s6i93q5nvpvabcaqtqoh8'
p738
tp739
Rp740
sg1
((dp741
I0
I103
sI1
I4
sI2
tp742
Rp743
g5
(S'dodesjg29ts09c47lp4c801bl2k5i22h2lfbtege1jjpd2q4rqh2vrqhkf5c'
p744
tp745
Rp746
sg1
((dp747
I0
I55
sI1
I8
sI2
tp748
Rp749
g5
(S'-3egdu5415ckfr7kmdm'
p750
tp751
Rp752
sg1
((dp753
I0
I158
sI1
I3
sI2
tp754
Rp755
g5
(S'-hejih4g2k3idequaemf11kl2gvp3s756sfgpr6aocdnbd7o7ij8'
p756
tp757
Rp758
sg1
((dp759
I0
I57
sI1
I1
sI2
tp760
Rp761
g5
(S'admsinqmd1oi53d51hdmdbdim1kovac4ooj9thcji1rfv9iccgqg2j1g9272nn4m9qcmpk'
p762
tp763
Rp764
sg1
((dp765
I0
I9
sI1
I5
sI2
tp766
Rp767
g5
(S'fi56cjlm2evo6pu1mi5ju1kbo8e09rb1fpoc0'
p768
tp769
Rp770
sg1
((dp771
I0
I125
sI1
I4
sI2
tp772
Rp773
g5
(S'-tk1pukr39s37u4fevn6p1ps4d240fe0gl49l6ujfcb0rlsmsf8fatinp6i'
p774
tp775
Rp776
sg1
((dp777
I0
I180
sI1
I3
sI2
tp778
Rp779
g5
(S'3ra9h5mhqujr0uibhe2u8qu69imhkslh29og'
p780
tp781
Rp782
sg1
((dp783
I0
I79
sI1
I1
sI2
tp784
Rp785
g5
(S'2qecvi0m0ellaqhv6o12kg4t90tjb6851k1g4975k9185o39cd45d46trtm318ujkno9e2fi'
p786
tp787
Rp788
sg1
((dp789
I0
I31
sI1
I5
sI2
tp790
Rp791
g5
(S'49qopgq1m943r0qrrn3ljup8l2sdhekc55s2qdobq9honncpk'
p792
tp793
Rp794
sg1
((dp795
I0
I147
sI1
I4
sI2
tp796
Rp797
g5
(S'-iva8oi5g43gqmlve87u1s4cg48qo27p96m0afresn43v78sq3r8'
p798
tp799
Rp800
sg1
((dp801
I0
I18
sI1
I9
sI2
tp802
Rp803
g5
(S'-3aj8eg5pdalq24'
p804
tp805
Rp806
sg1
((dp807
I0
I72
sI2
tp808
Rp809
g5
(S'4bjcko7pr7jro2h0vnd45fjbsdb6g6vc311vcb328mfrrfppi67ogk92p9i7cg9un7o5jiuntu'
p810
tp811
Rp812
sg1
((dp813
I0
I101
sI1
I1
sI2
tp814
Rp815
g5
(S'-gdeq7v387o0a97ea2lg7ostk3tlpj0s1iio0044m79fipfk5om2v0kml6uv0v9m8grcr1f6'
p816
tp817
Rp818
sg1
((dp819
I0
I53
sI1
I5
sI2
tp820
Rp821
g5
(S'5o7ed903pfoe5heb3j8h16lhhdo1s8otfbfsstfp9ee17aj2v159u'
p822
tp823
Rp824
sg1
((dp825
I0
I169
sI1
I4
sI2
tp826
Rp827
g5
(S'-268jb6ahkr51f96hf8iutoniss5lal9hb20i4u'
p828
tp829
Rp830
sg1
((dp831
I0
I123
sI1
I1
sI2
tp832
Rp833
g5
(S'-38772p43b3o4gatf68c21klspkehj1hi15dkf2t60rqs7etm1atfmqg86hrpkkr3s27sm'
p834
tp835
Rp836
sg1
((dp837
I0
I75
sI1
I5
sI2
tp838
Rp839
g5
(S'-g9odfplvvfuvflpfddpheub711t5paad5o3nqladt460bjla7250g'
p840
tp841
Rp842
sg1
((dp843
I0
I191
sI1
I4
sI2
tp844
Rp845
g5
(S'-12ai896qlt574'
p846
tp847
Rp848
sg1
((dp849
I0
I157
sI2
tp850
Rp851
g5
(S'-418fkcdoau1t2bjlfitefvib15mvsnvfq0p2cnoj1cnklkodmasan1tf6h9nq'
p852
tp853
Rp854
sg1
((dp855
I0
I12
sI1
I4
sI2
tp856
Rp857
g5
(S'6d403n4htnfqn16jamnrnlcre7iq084p9op5oqkq5680'
p858
tp859
Rp860
sg1
((dp861
I0
I27
sI1
I9
sI2
tp862
Rp863
g5
(S'-f49jpj5oui'
p864
tp865
Rp866
sg1
((dp867
I0
I145
sI1
I1
sI2
tp868
Rp869
g5
(S'-n6e4r4o8fsido98jr5vekens45mqrv1jbfnodb71ugkfr70f41mcl6p87m7hplc'
p870
tp871
Rp872
sg1
((dp873
I0
I58
sI2
tp874
Rp875
g5
(S'csio8jc162rm5mih9nj8dvhp05c5bp941frf63r1e891c4ju8hnr4g5nfutvr0jb5bsiqdrs'
p876
tp877
Rp878
sg1
((dp879
I0
I97
sI1
I5
sI2
tp880
Rp881
g5
(S'1kro172rkuh11cfmvrac8mla5d0urdukkpnaqr12dqmaf6ooiv3k'
p882
tp883
Rp884
sg1
((dp885
I0
I34
sI1
I4
sI2
tp886
Rp887
g5
(S'14mej3h93bpd2b3hk74kpdqovggm75attft8l035cbqa83690cobi4m'
p888
tp889
Rp890
sg1
((dp891
I0
I167
sI1
I1
sI2
tp892
Rp893
g5
(S'-5lsqiev5j9vnrmqqset70t94cieeo6hpvemurb6595kmonsqj8ifq6'
p894
tp895
Rp896
sg1
((dp897
I0
I3
sI1
I2
sI2
tp898
Rp899
g5
(S'-65isctfes4nm50fqn8lq3kst6576g1000000000000'
p900
tp901
Rp902
sg1
((dp903
I0
I119
sI1
I5
sI2
tp904
Rp905
g5
(S'-8q4511m7qqpbgok42549epguerl7i46brtk3rhbgj4nn0o'
p906
tp907
Rp908
sg1
((dp909
I0
I56
sI1
I4
sI2
tp910
Rp911
g5
(S'24j148hu6u8n7trjtg381hiaffq1a0dp7ak0ek8cgt56570smcboqf9s3og'
p912
tp913
Rp914
sg1
((dp915
I0
I189
sI1
I1
sI2
tp916
Rp917
g5
(S'2ctg52klo7rbpa31ftifaps6di5mm873u9lk'
p918
tp919
Rp920
sg1
((dp921
I0
I8
sI1
I8
sI2
tp922
Rp923
g5
(S'135pmnm2cefllgd3jqime34q'
p924
tp925
Rp926
sg1
((dp927
I0
I25
sI1
I2
sI2
tp928
Rp929
g5
(S'-1he4lt11kome8fdphjljrojm2dbnvi24b781u0ta7h3u327eo4cset8uo0'
p930
tp931
Rp932
sg1
((dp933
I0
I10
sI1
I1
sI2
tp934
Rp935
g5
(S'-4g7hmbadll1s9uguk2igs9vb43trp4mmej4hkkq00000000000'
p936
tp937
Rp938
sg1
((dp939
I0
I141
sI1
I5
sI2
tp940
Rp941
g5
(S'7ojfjmtd5k6oe81q4ai9sjtgpfbum9q4k08'
p942
tp943
Rp944
sg1
((dp945
I0
I78
sI1
I4
sI2
tp946
Rp947
g5
(S'-29jo1bpfbrp8uid4tcp33bl3o73pholea4mib453nhs2qrigr7i032abmdcfu'
p948
tp949
Rp950
sg1
((dp951
I0
I44
sI2
tp952
Rp953
g5
(S'gpgjegioj9eani3q8c2uf3k37gbo1ghme69p19uto3083fv5tfkhd070e1clr73udeg00'
p954
tp955
Rp956
sg1
((dp957
I0
I47
sI1
I2
sI2
tp958
Rp959
g5
(S'-28jbngbjttjo2upvlff7sci5kn7116g3d2bv4oucrc1h0ibghk2rvb5u4oua5oc0ko'
p960
tp961
Rp962
sg1
((dp963
I0
I32
sI1
I1
sI2
tp964
Rp965
g5
(S'-hu02t9cd0bds68evsm9sfo7jtldk5okposv7upsf15gsnbg74shc28sishqo000'
p966
tp967
Rp968
sg1
((dp969
I0
I163
sI1
I5
sI2
tp970
Rp971
g5
(S'9qmbe5u'
p972
tp973
Rp974
sg1
((dp975
I0
I100
sI1
I4
sI2
tp976
Rp977
g5
(S'2mfs845s1ple3veka2710e667q1rgb8pvie9l172hv4liclss822bjr7tdjq0'
p978
tp979
Rp980
sg1
((dp981
I0
I30
sI1
I6
sI2
tp982
Rp983
g5
(S'jemcetgfh6odngoh6k58hncccgkp22a73cj5bvpkhmo'
p984
tp985
Rp986
sg1
((dp987
I0
I52
sI1
I8
sI2
tp988
Rp989
g5
(S'30m0ve0dkkdcgqdgatrs'
p990
tp991
Rp992
sg1
((dp993
I0
I69
sI1
I2
sI2
tp994
Rp995
g5
(S'-mi1v5i9f0c77p3go098ti07d88ase30lr2uapdmmils0pqtguajgva7621bmok24v4988'
p996
tp997
Rp998
sg1
((dp999
I0
I54
sI1
I1
sI2
tp1000
Rp1001
g5
(S'-1lh2nt7ok1r5qj1frnnc9tab2g2e73irt51luqirjolvu14ri18mq9ol76i1bc8dltqdg0'
p1002
tp1003
Rp1004
sg1
((dp1005
I0
I21
sI1
I6
sI2
tp1006
Rp1007
g5
(S'-q457c3ne9vdbokhnl8ioq9nlvem3lcmji519a8ng'
p1008
tp1009
Rp1010
sg1
((dp1011
I0
I6
sI1
I5
sI2
tp1012
Rp1013
g5
(S'j5j344gpvdamochpn6dlv363chldi01krg0'
p1014
tp1015
Rp1016
sg1
((dp1017
I0
I122
sI1
I4
sI2
tp1018
Rp1019
g5
(S'6csn1e2gp0n31d16ad9p485ij5psj7q95g66ccre522ud9n4l6l30phosl6'
p1020
tp1021
Rp1022
sg1
((dp1023
I0
I129
sI2
tp1024
Rp1025
g5
(S'-9ej5jq1o1tfuat3uq00f8pttpvc363903miifs16gtqlr4r4j64ih74a9j66076gavjmie'
p1026
tp1027
Rp1028
sg1
((dp1029
I0
I91
sI1
I2
sI2
tp1030
Rp1031
g5
(S'-1ssrspe1im3d0ncur0lme8au61lpuks9g56h2mjb5pi1kb7u9pure9mfjiv506ucl2sv1c'
p1032
tp1033
Rp1034
sg1
((dp1035
I0
I76
sI1
I1
sI2
tp1036
Rp1037
g5
(S'-3i9nngutd2umb58hhvkl7cakegcqq0fqcq44c6aop9batq50d60eeetnodjpc1h1mtvfgmis'
p1038
tp1039
Rp1040
sg1
((dp1041
I0
I5
sI2
tp1042
Rp1043
g5
(S'qicdgajfki1aae6386aatrp7hn11am2o0000000000000000'
p1044
tp1045
Rp1046
sg1
((dp1047
I0
I43
sI1
I6
sI2
tp1048
Rp1049
g5
(S'-148joo2h1n0ro6lai5a9sn1a4itqql8ppdi1q12pne6s1g'
p1050
tp1051
Rp1052
sg1
((dp1053
I0
I17
sI1
I8
sI2
tp1054
Rp1055
g5
(S'-5ev0a0f9mhshvis1gbsi1u4nhc'
p1056
tp1057
Rp1058
sg1
((dp1059
I0
I28
sI1
I5
sI2
tp1060
Rp1061
g5
(S'-6g49ej9tast5bu1u15ru7o0ee8nsj912fi59vtjjp21h3i9c'
p1062
tp1063
Rp1064
sg1
((dp1065
I0
I30
sI2
tp1066
Rp1067
g5
(S'16013lsj5ts0log94lhmcgmlp48b4388pb69m70ug6te29jogfri5cgq25ne00000'
p1068
tp1069
Rp1070
sg1
((dp1071
I0
I144
sI1
I4
sI2
tp1072
Rp1073
g5
(S'1l6fa42b11v74854d82gko87dq4a84c4bt17uharibvkq7vn19goq'
p1074
tp1075
Rp1076
sg1
((dp1077
I0
I113
sI1
I2
sI2
tp1078
Rp1079
g5
(S'-452b5i3fajkgf5eod5v9t98snuv20glu369ce7hi6deedaaeggj3v70jd5dki2cob40'
p1080
tp1081
Rp1082
sg1
((dp1083
I0
I98
sI1
I1
sI2
tp1084
Rp1085
g5
(S'1cq7n07g53258e3m8058t2thv5hg3hv7m7bovgp9diqj0bfl2ppp26o5d8pf8q9k3allqqc6'
p1086
tp1087
Rp1088
sg1
((dp1089
I0
I65
sI1
I6
sI2
tp1090
Rp1091
g5
(S'-4j3sfcu75u4lum0hded78nnkvr74chulcend74osmo93g'
p1092
tp1093
Rp1094
sg1
((dp1095
I0
I50
sI1
I5
sI2
tp1096
Rp1097
g5
(S'-1d15m950mbucs0bpvpha9f26r0hevdrjkughqnro5cemu1fnmaf88'
p1098
tp1099
Rp1100
sg1
((dp1101
I0
I166
sI1
I4
sI2
tp1102
Rp1103
g5
(S'7tnnd8onlt7ljvsg229q7mdn6fuo1kjb9ufc0370'
p1104
tp1105
Rp1106
sg1
((dp1107
I0
I4
sI1
I2
sI2
tp1108
Rp1109
g5
(S'3i1g2squhl0dc67vip3kmf7icpn3cuni00000000000'
p1110
tp1111
Rp1112
sg1
((dp1113
I0
I19
sI1
I3
sI2
tp1114
Rp1115
g5
(S'-jeuisqbbtj101k0k4kl16hee9au7qureamljr1p5t5grvvrpm00'
p1116
tp1117
Rp1118
sg1
((dp1119
I0
I135
sI1
I2
sI2
tp1120
Rp1121
g5
(S'-u6i888bhffar560p15kaqrr6plj0td3akd33hd8o179iuji2hsbb5411683p10g'
p1122
tp1123
Rp1124
sg1
((dp1125
I0
I120
sI1
I1
sI2
tp1126
Rp1127
g5
(S'djb1anrht1v65ubchvclo62j745ndsng1csm0pcfbmhvj0516a8c8jm4j3c8q5anqhgh2'
p1128
tp1129
Rp1130
sg1
((dp1131
I0
I21
sI1
I8
sI2
tp1132
Rp1133
g5
(S'-tubjdvh1n8vcf3qvg0m161q3vo'
p1134
tp1135
Rp1136
sg1
((dp1137
I0
I87
sI1
I6
sI2
tp1138
Rp1139
g5
(S'98a98g3njh80s27ls467q14ln8pv43n43uf6076so'
p1140
tp1141
Rp1142
sg1
((dp1143
I0
I72
sI1
I5
sI2
tp1144
Rp1145
g5
(S'-1fj2aoi9lv67u8cubvo6n4787b7jopeji3br7358mevqdkf0gn0s6a'
p1146
tp1147
Rp1148
sg1
((dp1149
I0
I188
sI1
I4
sI2
tp1150
Rp1151
g5
(S'5pefpgclkubhnbcis'
p1152
tp1153
Rp1154
sg1
((dp1155
I0
I115
sI2
tp1156
Rp1157
g5
(S'-5983ti5tafk4bhguc646a5bvl0os2g1c79iu6oi83s1j57agmq3pi2s8vg91n9jnj0tgpf0e2'
p1158
tp1159
Rp1160
sg1
((dp1161
I0
I24
sI1
I9
sI2
tp1162
Rp1163
g5
(S'5bnuckkrd46k'
p1164
tp1165
Rp1166
sg1
((dp1167
I0
I26
sI1
I2
sI2
tp1168
Rp1169
g5
(S'92bpo42nor6713ouuk0ittb4n1muhmoekb4jlp3406r5kc3v9d303ub7q0'
p1170
tp1171
Rp1172
sg1
((dp1173
I0
I41
sI1
I3
sI2
tp1174
Rp1175
g5
(S'179fiiom33r598s56gooq45vid7tgtsrv609ii7186bpjr46l094t66inf7tc'
p1176
tp1177
Rp1178
sg1
((dp1179
I0
I157
sI1
I2
sI2
tp1180
Rp1181
g5
(S'-1nghhsu3ib4i2vqv7rg40b900abrlfm4p0gcnb33tulvqh9bdrt8ob3hk'
p1182
tp1183
Rp1184
sg1
((dp1185
I0
I142
sI1
I1
sI2
tp1186
Rp1187
g5
(S'l3milrntsevd5d7c24uodlturirdc62fmnf5p84aul7dn2mkihmbteppmfhkh0gi'
p1188
tp1189
Rp1190
sg1
((dp1191
I0
I16
sI2
tp1192
Rp1193
g5
(S'-9hmmabd4rh0pcd6rfi5gpn4tquh9bl8ub2s63u5lspf6b80000000000'
p1194
tp1195
Rp1196
sg1
((dp1197
I0
I109
sI1
I6
sI2
tp1198
Rp1199
g5
(S'-d2qgh77h0uru61kuvv6ufmb5oqk4eiu78'
p1200
tp1201
Rp1202
sg1
((dp1203
I0
I94
sI1
I5
sI2
tp1204
Rp1205
g5
(S'-bgp01mr2952skcq6sq2llebb2gtoa2q6pont9en4trqtsuiiik9g'
p1206
tp1207
Rp1208
sg1
((dp1209
I0
I48
sI1
I2
sI2
tp1210
Rp1211
g5
(S'5c24g3117msih467l6lla5lhrk09qo8172oqehmapk2hjobt1lshk5i8iagduqk2k0'
p1212
tp1213
Rp1214
sg1
((dp1215
I0
I63
sI1
I3
sI2
tp1216
Rp1217
g5
(S'-ia2hfgu3i8oojcno3c4aft8r025a2u38te40n6g8ehdf3unobn3a5l4ps7lfa3vs'
p1218
tp1219
Rp1220
sg1
((dp1221
I0
I179
sI1
I2
sI2
tp1222
Rp1223
g5
(S'-rttq6guapn4ciqh1ukscnnqq2geqfs7qtbcbvr5jsd4'
p1224
tp1225
Rp1226
sg1
((dp1227
I0
I164
sI1
I1
sI2
tp1228
Rp1229
g5
(S'2gmin7pr495v2dlf80i8reelb5m8ji39kpm4o8bfhhev3l0veme87nfq'
p1230
tp1231
Rp1232
sg1
((dp1233
I0
I65
sI1
I8
sI2
tp1234
Rp1235
g5
(S'-4eibf0'
p1236
tp1237
Rp1238
sg1
((dp1239
I1
I6
sI2
tp1240
Rp1241
g5
(S'-1n1lhk91sai1rc1j13amsl1cg0'
p1242
tp1243
Rp1244
sg1
((dp1245
I0
I15
sI1
I7
sI2
tp1246
Rp1247
g5
(S'd9ieknsh8i8dkg4iknnacfo57irntgqg'
p1248
tp1249
Rp1250
sg1
((dp1251
I0
I131
sI1
I6
sI2
tp1252
Rp1253
g5
(S'-lhg0'
p1254
tp1255
Rp1256
sg1
((dp1257
I0
I116
sI1
I5
sI2
tp1258
Rp1259
g5
(S'-18h8gai2r9q13uul431k75l2o7ocnm3s3rneueis0r5384rc'
p1260
tp1261
Rp1262
sg1
((dp1263
I0
I70
sI1
I2
sI2
tp1264
Rp1265
g5
(S'u1flb7u8blm1tnj5m44qtbjraitphk69hhiou2qnhc1dcf7eqvq8gtimj97gk4prft850'
p1266
tp1267
Rp1268
sg1
((dp1269
I0
I85
sI1
I3
sI2
tp1270
Rp1271
g5
(S'-laio6nn7kq8jnvq1lk7ive2j2jk1ujbd8291jceup9pd6oq668i84mvnqfokh6fj8'
p1272
tp1273
Rp1274
sg1
((dp1275
I0
I186
sI1
I1
sI2
tp1276
Rp1277
g5
(S'r8u479mq647c3kltbbsim7qbgr9pkp6b2avaqrg'
p1278
tp1279
Rp1280
sg1
((dp1281
I0
I101
sI2
tp1282
Rp1283
g5
(S'-10v83ckfmst5ijdsdi4ik16033hmn3do9o4kt90jbv2eon0ufbmg5e2objk8a3aiirik33l7pfc'
p1284
tp1285
Rp1286
sg1
((dp1287
I0
I22
sI1
I6
sI2
tp1288
Rp1289
g5
(S'344m77bkuojmi0p0d78psnjn2tp4nrv6vpj7dh4no'
p1290
tp1291
Rp1292
sg1
((dp1293
I0
I37
sI1
I7
sI2
tp1294
Rp1295
g5
(S'1n5iqda78mnka50rnccu9vcqqi1v7gjdbqt5o'
p1296
tp1297
Rp1298
sg1
((dp1299
I0
I138
sI1
I5
sI2
tp1300
Rp1301
g5
(S'ktv1ggl5g4g3u4leuo2hosjc3bvmd28s5nuuc'
p1302
tp1303
Rp1304
sg1
((dp1305
I0
I92
sI1
I2
sI2
tp1306
Rp1307
g5
(S'1h3tjhl4ohsqg2ctb5mdm3a8p7e1tvjh59q191bhecr722ed7817hrb2puki32si8bq720'
p1308
tp1309
Rp1310
sg1
((dp1311
I0
I107
sI1
I3
sI2
tp1312
Rp1313
g5
(S'-1mfon462ish7cmn7c6gutaidr31ipb53nkmrbbkdp5g76mouqlavj8j7ufq6hus7o'
p1314
tp1315
Rp1316
sg1
((dp1317
I0
I44
sI1
I6
sI2
tp1318
Rp1319
g5
(S'1gv2kqnjs7kohtptp5b2sjtkjsj5ncs488flqs8us306l0'
p1320
tp1321
Rp1322
sg1
((dp1323
I0
I59
sI1
I7
sI2
tp1324
Rp1325
g5
(S'as32ih5jdpq5cvj0jo49fn1cv6de4oh2qg'
p1326
tp1327
Rp1328
sg1
((dp1329
I0
I160
sI1
I5
sI2
tp1330
Rp1331
g5
(S'3u4sksqe2gccb9k'
p1332
tp1333
Rp1334
sg1
((dp1335
I0
I114
sI1
I2
sI2
tp1336
Rp1337
g5
(S'24qommr2gfgiihmii28cjm8qj1b6pr9r56elbfbl30cllbs10olthtblrrs9o9o69kk'
p1338
tp1339
Rp1340
sg1
((dp1341
I0
I129
sI1
I3
sI2
tp1342
Rp1343
g5
(S'pprtseq9hpo6jejb4nkv78euvg9lmgcimkk8buaocnug4udea0441jlf5488'
p1344
tp1345
Rp1346
sg1
((dp1347
I0
I186
sI2
tp1348
Rp1349
g5
(S'419536q0jvde330d41e6sr1a8jqbq6a0ctjjeohiju'
p1350
tp1351
Rp1352
sg1
((dp1353
I0
I66
sI1
I6
sI2
tp1354
Rp1355
g5
(S'3nnl65fbvnqsm8cnjk315c21bd0kmkb3diaec705bice0'
p1356
tp1357
Rp1358
sg1
((dp1359
I0
I81
sI1
I7
sI2
tp1360
Rp1361
g5
(S'-bah2pr9lr2gbhf0c3bn7tdrp4g'
p1362
tp1363
Rp1364
sg1
((dp1365
I0
I20
sI1
I3
sI2
tp1366
Rp1367
g5
(S'3tdsulgosljofv66c355a2hsjmqsm0f9rbh7pokn4dfvncgfgh80'
p1368
tp1369
Rp1370
sg1
((dp1371
I0
I136
sI1
I2
sI2
tp1372
Rp1373
g5
(S'f0rvmml6e5bj43a5p9t37505mn0mkfqvqljmcpp7h7brc8eki6up02qv0h91pos'
p1374
tp1375
Rp1376
sg1
((dp1377
I0
I151
sI1
I3
sI2
tp1378
Rp1379
g5
(S'1ulec4tceaiad2du8qarqffmtu2ca5chvd6vh98ckhlvuuph12ebulc'
p1380
tp1381
Rp1382
sg1
((dp1383
I0
I87
sI2
tp1384
Rp1385
g5
(S'-359of2pl615cefpec7itaba122k6413048t78ol5uafheof81uoln14e4prk6tv898u69h93hru'
p1386
tp1387
Rp1388
sg1
((dp1389
I0
I88
sI1
I6
sI2
tp1390
Rp1391
g5
(S'-4q6aepjjslcsgjt2epnqbkb5tmnnejf4d1mjjqve0'
p1392
tp1393
Rp1394
sg1
((dp1395
I0
I42
sI1
I3
sI2
tp1396
Rp1397
g5
(S'-309o2kfpr5kjh3kc1d7hrbr858amfhpqvdkltjda8m7uq15na6shj7ag52454'
p1398
tp1399
Rp1400
sg1
((dp1401
I0
I158
sI1
I2
sI2
tp1402
Rp1403
g5
(S'c89j87op94elh6f76od4lss6pealll54ualsfim1g1sl4ssf55tnduls'
p1404
tp1405
Rp1406
sg1
((dp1407
I0
I173
sI1
I3
sI2
tp1408
Rp1409
g5
(S'3k8kj267e8ltpqelhfr89nudgbvloepto1m8bb5ac'
p1410
tp1411
Rp1412
sg1
((dp1413
I0
I110
sI1
I6
sI2
tp1414
Rp1415
g5
(S'1qp9lo32vud6apombslb83htfs25o5v60'
p1416
tp1417
Rp1418
sg1
((dp1419
I0
I9
sI1
I4
sI2
tp1420
Rp1421
g5
(S'-ejgg09jmua0h8acfp5vd4gpqbjhpsqlamapgkt000'
p1422
tp1423
Rp1424
sg1
((dp1425
I0
I64
sI1
I3
sI2
tp1426
Rp1427
g5
(S'hjd0nrcl3476uld1a06gsk0r1c62u12do90opoc0hns888k7mqj9l6bdoiol40nc'
p1428
tp1429
Rp1430
sg1
((dp1431
I0
I180
sI1
I2
sI2
tp1432
Rp1433
g5
(S'1fboee7v78bfjg7p8r9fqs5u7e6uen1s970fm2s96mo'
p1434
tp1435
Rp1436
sg1
((dp1437
I0
I195
sI1
I3
sI2
tp1438
Rp1439
g5
(S'42snl6h49go6h0'
p1440
tp1441
Rp1442
sg1
((dp1443
I0
I172
sI2
tp1444
Rp1445
g5
(S'oa33dg5d2dj7uojuqnl7kdf51nfntensdt1qcm4as9ubf7uruhtfc'
p1446
tp1447
Rp1448
sg1
((dp1449
I0
I16
sI1
I7
sI2
tp1450
Rp1451
g5
(S'-pmn6nqpovv16f8989k82rhqgosavkcrg'
p1452
tp1453
Rp1454
sg1
((dp1455
I0
I31
sI1
I4
sI2
tp1456
Rp1457
g5
(S'-1c2pemdhaf8v4dstbq3q9f6fbah0k6hsbi2c4rhav7v22d5bjrhhuk'
p1458
tp1459
Rp1460
sg1
((dp1461
I0
I18
sI1
I8
sI2
tp1462
Rp1463
g5
(S'998snl8h062s0ifcqk0kltivs6'
p1464
tp1465
Rp1466
sg1
((dp1467
I0
I73
sI2
tp1468
Rp1469
g5
(S'-60lshpeoteb09qtukq6cncnd4l84unv87jgnv9e0e2ie02g2ck205t9nccqijf60okdunai1ma'
p1470
tp1471
Rp1472
sg1
((dp1473
I0
I86
sI1
I3
sI2
tp1474
Rp1475
g5
(S'e7o208a9dbasvvqdj38qnbk8q8mh53gamo286l5sn6jrdn110nku8587hk9jhasc4'
p1476
tp1477
Rp1478
sg1
((dp1479
I0
I38
sI1
I7
sI2
tp1480
Rp1481
g5
(S'-1r4jokl84caf6bjh2ulooc37iv289ojvur98o'
p1482
tp1483
Rp1484
sg1
((dp1485
I0
I53
sI1
I4
sI2
tp1486
Rp1487
g5
(S'-o2leirnpg7lg7vte2ndttsob78fns09qqr3nf2dptmdbjr6qlc6khlg6io'
p1488
tp1489
Rp1490
sg1
((dp1491
I0
I108
sI1
I3
sI2
tp1492
Rp1493
g5
(S'174arg0r5usbmpcput4b0u8op90aqgrpkof34iu9hjk51ho3hdoadt02okt1sk57s'
p1494
tp1495
Rp1496
sg1
((dp1497
I0
I7
sI1
I1
sI2
tp1498
Rp1499
g5
(S'-ro3d02mrhdes65h7enucr5ntv5fttssnqj8000000000000'
p1500
tp1501
Rp1502
sg1
((dp1503
I0
I60
sI1
I7
sI2
tp1504
Rp1505
g5
(S'-4v3nchb4rakkq6jej1gvssrluuqbvd2okg'
p1506
tp1507
Rp1508
sg1
((dp1509
I0
I75
sI1
I4
sI2
tp1510
Rp1511
g5
(S'1dnfiobrhhrh2qlcf589gaca2uvo6s4p5c2fcrvm5u7siv1p96d0pebh0q8fa'
p1512
tp1513
Rp1514
sg1
((dp1515
I0
I62
sI1
I8
sI2
tp1516
Rp1517
g5
(S'35in75kffkhc'
p1518
tp1519
Rp1520
sg1
((dp1521
I0
I158
sI2
tp1522
Rp1523
g5
(S'qqpvr0d36ie2gdjrpd5sfj4sav3nhaij3hbhqq30ugtsb5p3gj1sd9ub8hfo'
p1524
tp1525
Rp1526
sg1
((dp1527
I0
I27
sI1
I8
sI2
tp1528
Rp1529
g5
(S'-1lc5vs49v9vm1hrsclh0okdmske'
p1530
tp1531
Rp1532
sg1
((dp1533
I0
I130
sI1
I3
sI2
tp1534
Rp1535
g5
(S'-s4it45t6dim9dfcphlnidoebha1l4cp3no779r1di8l6i7d0ukq78fe1ebg4'
p1536
tp1537
Rp1538
sg1
((dp1539
I0
I29
sI1
I1
sI2
tp1540
Rp1541
g5
(S'6vnq0okli01pef635432ini512gs8tlb0sfav75becifbc5bcs4depdb0rs000'
p1542
tp1543
Rp1544
sg1
((dp1545
I0
I82
sI1
I7
sI2
tp1546
Rp1547
g5
(S's31ah2u3nnth61mc1j8i8i6d8'
p1548
tp1549
Rp1550
sg1
((dp1551
I0
I97
sI1
I4
sI2
tp1552
Rp1553
g5
(S'-3r6t3rklm5bej6ivt1ks2647et0tg7k7kh06dcs9aa243a74oampt9jh23ofi'
p1554
tp1555
Rp1556
sg1
((dp1557
I0
I59
sI2
tp1558
Rp1559
g5
(S'-lrsrp49vjkcoicddidl24734i1jplf2vlbhc3q26rnooeprdeb00hfklnkvll2k8i4o6e7kc'
p1560
tp1561
Rp1562
sg1
((dp1563
I0
I152
sI1
I3
sI2
tp1564
Rp1565
g5
(S'-e7oc9d04cjg3pe5pjct7u0ugec2ks4v3974i5l7ti2lplsa2e8ln70'
p1566
tp1567
Rp1568
sg1
((dp1569
I0
I51
sI1
I1
sI2
tp1570
Rp1571
g5
(S'6m0urgrkg38b85kka1hfa8g2oiid3ql081k4dbqdvtnoopobr78ikajhvs0ca98jrgqe4'
p1572
tp1573
Rp1574
sg1
((dp1575
I0
I3
sI1
I5
sI2
tp1576
Rp1577
g5
(S'-1u124gauf1p4rhs1q2f3i5ffgkkrt2000'
p1578
tp1579
Rp1580
sg1
((dp1581
I0
I119
sI1
I4
sI2
tp1582
Rp1583
g5
(S'-u21nujfa8nmcphqakcbpnvlvnn7e31bjk6oiuuln84362qphk2c7ie1ecoc'
p1584
tp1585
Rp1586
sg1
((dp1587
I0
I174
sI1
I3
sI2
tp1588
Rp1589
g5
(S'-4f62bj42nb80o26krunoe9ufa3mc98rbsmqbaajgs'
p1590
tp1591
Rp1592
sg1
((dp1593
I0
I73
sI1
I1
sI2
tp1594
Rp1595
g5
(S'2sojnd8qqff8mdpalbm78rm86ka7c0cpj8v07bkkuaoej581i0odk567od0fnp3q4p3aakvo'
p1596
tp1597
Rp1598
sg1
((dp1599
I0
I25
sI1
I5
sI2
tp1600
Rp1601
g5
(S'4fkjd6bdups8q5lqmd8mc91hovdf0m01lsa027nhi4ata92'
p1602
tp1603
Rp1604
sg1
((dp1605
I0
I144
sI2
tp1606
Rp1607
g5
(S'361veh7hfgvkhdbl946f5t0cn5tpagfhc0f25klp21qeoc7dkgdnonr1hj62i68hr0'
p1608
tp1609
Rp1610
sg1
((dp1611
I0
I196
sI1
I3
sI2
tp1612
Rp1613
g5
(S'fhem5bjbd0'
p1614
tp1615
Rp1616
sg1
((dp1617
I0
I95
sI1
I1
sI2
tp1618
Rp1619
g5
(S'-2qve4itv57sei61upd9si847pfvjmss401gi518un0vg8762iev7d6k6902dh0p96t82klam'
p1620
tp1621
Rp1622
sg1
((dp1623
I0
I45
sI2
tp1624
Rp1625
g5
(S'-19pqpb9c9dkfb65jvkulb3t3ib9gcl8cgpf04q88njgb1h6n9ne2b1hg1esjo0i8jgke00'
p1626
tp1627
Rp1628
sg1
((dp1629
I0
I47
sI1
I5
sI2
tp1630
Rp1631
g5
(S'-2nh0gt1iqhhmv8gjs9eiot4fjumi5v89ga01hj1afcclauaife8k'
p1632
tp1633
Rp1634
sg1
((dp1635
I0
I163
sI1
I4
sI2
tp1636
Rp1637
g5
(S'-eva7qfoj7odueanjjit4735b6dbcpvjv5okqi39mju'
p1638
tp1639
Rp1640
sg1
((dp1641
I0
I117
sI1
I1
sI2
tp1642
Rp1643
g5
(S'-19l6pggn045877gq0mtp3lbjqgh9so01b5f59nhtirpr0gl2qk3d8n8p04vbqki3qkvdl0'
p1644
tp1645
Rp1646
sg1
((dp1647
I0
I69
sI1
I5
sI2
tp1648
Rp1649
g5
(S'1vh0t22ducuqjjpmuou6o0kfa5a14lda6dae9rgs9pdrdevgh27euk'
p1650
tp1651
Rp1652
sg1
((dp1653
I0
I185
sI1
I4
sI2
tp1654
Rp1655
g5
(S'-7ghacagp25gb93joiobfm'
p1656
tp1657
Rp1658
sg1
((dp1659
I0
I6
sI1
I4
sI2
tp1660
Rp1661
g5
(S'-5r7lflablfinb9rhd859pb88t50o08u4h4t0000'
p1662
tp1663
Rp1664
sg1
((dp1665
I0
I139
sI1
I1
sI2
tp1666
Rp1667
g5
(S'-fdv78glku6t5uaq68lrg876uob25hij6ho0bra44sdgds9r4i7bip7b3nc0ib71d2'
p1668
tp1669
Rp1670
sg1
((dp1671
I0
I130
sI2
tp1672
Rp1673
g5
(S'3sk1aj7tl1ck1au77lmrolutcgl48ia1p449um643b8ditdia872vom1p50i1mrr79pqs0'
p1674
tp1675
Rp1676
sg1
((dp1677
I0
I91
sI1
I5
sI2
tp1678
Rp1679
g5
(S'1i6svrkn255jgmgljtu73vac99u244v7t3avilcd7gmjsfktorb00'
p1680
tp1681
Rp1682
sg1
((dp1683
I0
I28
sI1
I4
sI2
tp1684
Rp1685
g5
(S'12r9fhlrcrv8qeqac82n610ecgh7u2v2ku0ou8kdlkasse6trjn8g'
p1686
tp1687
Rp1688
sg1
((dp1689
I0
I31
sI2
tp1690
Rp1691
g5
(S'-518dd7jja7qdjl7i731s0gtj2hcb68tskq3er8h0nl173ekemis1997sg3e300000'
p1692
tp1693
Rp1694
sg1
((dp1695
I0
I161
sI1
I1
sI2
tp1696
Rp1697
g5
(S'-f216640juoi9tpmi876brkmfqo1tv9hae2domgq4ntpm5mbhk0q8l5ats'
p1698
tp1699
Rp1700
sg1
((dp1701
I0
I113
sI1
I5
sI2
tp1702
Rp1703
g5
(S'13stdd0833vheme2gke9oomattc5v4uu84a8g647dg6uaarvc'
p1704
tp1705
Rp1706
sg1
((dp1707
I0
I50
sI1
I4
sI2
tp1708
Rp1709
g5
(S'34viu2co17kjmmhq25ks6qemlie4377m9rb7qrf66bg75ncfnfdkg6kbmi'
p1710
tp1711
Rp1712
sg1
((dp1713
I0
I183
sI1
I1
sI2
tp1714
Rp1715
g5
(S'-j6cpgm2sk9umkv9n00bk8a63pig5fimo1c058ifuhi'
p1716
tp1717
Rp1718
sg1
((dp1719
I0
I19
sI1
I2
sI2
tp1720
Rp1721
g5
(S'-6t6m1i43finn7k81na6blpfm2jfqnbqoqsbcdr84fcebmeusc90000'
p1722
tp1723
Rp1724
sg1
((dp1725
I0
I4
sI1
I1
sI2
tp1726
Rp1727
g5
(S'6c6tdnhegpbronto126mfjc0qag9geo00000000000000'
p1728
tp1729
Rp1730
sg1
((dp1731
I0
I135
sI1
I5
sI2
tp1732
Rp1733
g5
(S'-29d39s0p39347a602h59mn4kccfucrf7d1l0omq'
p1734
tp1735
Rp1736
sg1
((dp1737
I0
I72
sI1
I4
sI2
tp1738
Rp1739
g5
(S'ah9hchfhe4dtj8qtuv6imcm78qh92tk676mqppvcoj85okm6s8ohg4cvjfd2'
p1740
tp1741
Rp1742
sg1
((dp1743
I0
I116
sI2
tp1744
Rp1745
g5
(S'3266p7hipgetjrt6iinidv1lkc7bt652o1ql2llp7i4r76mqpd3df4t340110kt3j48hq6ffi'
p1746
tp1747
Rp1748
sg1
((dp1749
I0
I24
sI1
I8
sI2
tp1750
Rp1751
g5
(S'1l5k0jdril06187hcfq1errgbt8'
p1752
tp1753
Rp1754
sg1
((dp1755
I0
I41
sI1
I2
sI2
tp1756
Rp1757
g5
(S'-6r7pa5s8g23u7cu4tnd25hql0gac53re8oshoujramlpmndj9a71ac4pv172mfg8'
p1758
tp1759
Rp1760
sg1
((dp1761
I0
I26
sI1
I1
sI2
tp1762
Rp1763
g5
(S'-1mkha04s4vo7lfocej0d65pn79q2bb5oggtkl20s58ua2eove6v223ngi8000'
p1764
tp1765
Rp1766
sg1
((dp1767
I0
I157
sI1
I5
sI2
tp1768
Rp1769
g5
(S'aqu6oe13btj4fu93m6km'
p1770
tp1771
Rp1772
sg1
((dp1773
I0
I17
sI2
tp1774
Rp1775
g5
(S'-9n4s6tgahq607jnebs2604pmk451ivu61s9ldoppvhlq0hk0000000000'
p1776
tp1777
Rp1778
sg1
((dp1779
I0
I94
sI1
I4
sI2
tp1780
Rp1781
g5
(S'-1h2e6j2uk7obege7ltu07dj6nqiclam0c8g0gh6vh5pvp617fqma3c72ijgh4'
p1782
tp1783
Rp1784
sg1
((dp1785
I0
I63
sI1
I2
sI2
tp1786
Rp1787
g5
(S'-2e2n387jk1kt9aht3kf383rej0q7qib3faa2bljin3grosoihaor95na80j6u35cfheqg'
p1788
tp1789
Rp1790
sg1
((dp1791
I0
I48
sI1
I1
sI2
tp1792
Rp1793
g5
(S'-kkit3qnm9735tdoiusoqdno79hsooo0e2rgkrv2vlt9gjqhml1urfngdceb3val0r2lg'
p1794
tp1795
Rp1796
sg1
((dp1797
I0
I15
sI1
I6
sI2
tp1798
Rp1799
g5
(S'-1npv6t9edg6rq8ocdlmhlrdg7lj6uo2vgla0t0'
p1800
tp1801
Rp1802
sg1
((dp1803
I1
I5
sI2
tp1804
Rp1805
g5
(S'-21dl8gso4s837g6c85umd4qgt80000'
p1806
tp1807
Rp1808
sg1
((dp1809
I0
I116
sI1
I4
sI2
tp1810
Rp1811
g5
(S'2n82jkk6rjm1rsp2sumjg7eou2fpi67rphj9reivkf093pvidrd9dai4frle'
p1812
tp1813
Rp1814
sg1
((dp1815
I0
I85
sI1
I2
sI2
tp1816
Rp1817
g5
(S'-49kibnki2ldff3057s9vq1pli0pq5t9kutvhvhtbibhpc0rjcufft1r28he78660qj7u9k'
p1818
tp1819
Rp1820
sg1
((dp1821
I0
I70
sI1
I1
sI2
tp1822
Rp1823
g5
(S'-1nbvg14f6lmurdr2d801gmshn9cfvqqms5n5e56pi9qk3q0ugi0if6vuevml1l7dlr81r2vq'
p1824
tp1825
Rp1826
sg1
((dp1827
I0
I102
sI2
tp1828
Rp1829
g5
(S'pvj5ko5jdtgauvie7ugrr7t45r5ki7fitv06b3rt4grogr82as9a6ih8qkoql8iulferqeuhka'
p1830
tp1831
Rp1832
sg1
((dp1833
I0
I37
sI1
I6
sI2
tp1834
Rp1835
g5
(S'-2l5so45g7cs3vvitjcjjcoqf5ipvrqc2rg6a5p09lk488'
p1836
tp1837
Rp1838
sg1
((dp1839
I0
I22
sI1
I5
sI2
tp1840
Rp1841
g5
(S'-1bfdanjurds2sae8v463jg3vm50tfvga097pp5qm0uev04'
p1842
tp1843
Rp1844
sg1
((dp1845
I0
I138
sI1
I4
sI2
tp1846
Rp1847
g5
(S'48jkdrr7t1k66hnltg8fingrmoi54cbvcevkgiej4b6er44rkuegeeu'
p1848
tp1849
Rp1850
sg1
((dp1851
I0
I107
sI1
I2
sI2
tp1852
Rp1853
g5
(S'-49mkml11dp2fh6fnpc1qnr5qntb6kkbrbdf6nm7rfc0qmslp3denj3d8as2uujrio17c'
p1854
tp1855
Rp1856
sg1
((dp1857
I0
I92
sI1
I1
sI2
tp1858
Rp1859
g5
(S'4a31d3nkdjr7vmap71lgl358664s2746oblf4bcmjblh1vlgdnikk5rf60oat5rpsvvs2n24'
p1860
tp1861
Rp1862
sg1
((dp1863
I0
I59
sI1
I6
sI2
tp1864
Rp1865
g5
(S'-1kjq2tgu8d8vm24mla3u8incobg09v5rrv1mtktj08cjdg'
p1866
tp1867
Rp1868
sg1
((dp1869
I0
I44
sI1
I5
sI2
tp1870
Rp1871
g5
(S'3c9ihehmbqjuklbg57v462kg5haqbi5tcaco1ati3p1dprhd3hqq'
p1872
tp1873
Rp1874
sg1
((dp1875
I0
I160
sI1
I4
sI2
tp1876
Rp1877
g5
(S'fkus8r64rcq9dgdus4qa76d5paov138fpd2b7mkd3tco'
p1878
tp1879
Rp1880
sg1
((dp1881
I0
I79
sI1
I5
sI2
tp1882
Rp1883
g5
(S'-11oaf8knd2reppbqp3p5uddehrm23qanf6jm7fvlb3295j2gg762pu'
p1884
tp1885
Rp1886
sg1
((dp1887
I0
I13
sI1
I3
sI2
tp1888
Rp1889
g5
(S'-t35drd7ldaiog8t3s6f5ujkk726c1c5c8he60rufe8g0000'
p1890
tp1891
Rp1892
sg1
((dp1893
I0
I129
sI1
I2
sI2
tp1894
Rp1895
g5
(S'-p4t8t3e9hm9akdudkacm55984ocrmsjk1skj1thuvdibl5m7da114n2atfi5v0ls'
p1896
tp1897
Rp1898
sg1
((dp1899
I0
I114
sI1
I1
sI2
tp1900
Rp1901
g5
(S'2rt6t1udkkrh0867bdps5k9jks3avlt0h0am35ftqs6a6gpsqvs450hnd9binv84rnk26e'
p1902
tp1903
Rp1904
sg1
((dp1905
I0
I142
sI2
tp1906
Rp1907
g5
(S'r4iofuga4rh0upr09qksbdlq1dkol4uohte1v9hqnm9lfdhuaep7l7hirb53fpn1am'
p1908
tp1909
Rp1910
sg1
((dp1911
I0
I187
sI2
tp1912
Rp1913
g5
(S'-r1tp1bj11j1d7filqq9vd3a7oko704d2iohta5d0'
p1914
tp1915
Rp1916
sg1
((dp1917
I0
I81
sI1
I6
sI2
tp1918
Rp1919
g5
(S'-28l9vdg6dhp9lsarqdcr1q18b6m7ap0l9st5ni6l15o'
p1920
tp1921
Rp1922
sg1
((dp1923
I0
I66
sI1
I5
sI2
tp1924
Rp1925
g5
(S'-4nunso813emlf4toi5b8ls3bq5g82201dug8ed7s2ma2fe61o7hpm'
p1926
tp1927
Rp1928
sg1
((dp1929
I0
I182
sI1
I4
sI2
tp1930
Rp1931
g5
(S'2t7dltld849vah897kr76c25g'
p1932
tp1933
Rp1934
sg1
((dp1935
I0
I20
sI1
I2
sI2
tp1936
Rp1937
g5
(S'26h2483eip1mcfqsl2m65ndg49gbsa1k9nokessdd8s6sjlueil2000'
p1938
tp1939
Rp1940
sg1
((dp1941
I0
I35
sI1
I3
sI2
tp1942
Rp1943
g5
(S'1v0hcejvhhqsoicc19i18eg0a2vfbhhf7tvn6sil6613ekavh2pabf51n7c'
p1944
tp1945
Rp1946
sg1
((dp1947
I0
I151
sI1
I2
sI2
tp1948
Rp1949
g5
(S'-66tcus0lh5vcci69imt8vj23llri4shsjcqtn09dd4mg7mdkjn9miocfl1g'
p1950
tp1951
Rp1952
sg1
((dp1953
I0
I88
sI2
tp1954
Rp1955
g5
(S'3b5dsr5hlhju5qs68ntc2r1mduq9mikcgalv7c67169c4t0hndn0fmr4e0va573nts2cfgn6696'
p1956
tp1957
Rp1958
sg1
((dp1959
I0
I136
sI1
I1
sI2
tp1960
Rp1961
g5
(S'8n2s34v6ai8q1dcu3pc21s62dkiomab1d2d0n2v0m7dajr0mr523ha8fh34kejrv8g'
p1962
tp1963
Rp1964
sg1
((dp1965
I0
I37
sI1
I8
sI2
tp1966
Rp1967
g5
(S'-tc1hralg2blstsjv2uvs9p1nm'
p1968
tp1969
Rp1970
sg1
((dp1971
I0
I103
sI1
I6
sI2
tp1972
Rp1973
g5
(S'-abda3ucau7qmsjjfn0nh76k4tnapreoaccgo'
p1974
tp1975
Rp1976
sg1
((dp1977
I0
I88
sI1
I5
sI2
tp1978
Rp1979
g5
(S'-4hgointi0moqb9gc4oe7cjlub2pc5dcgcspv646l6ir8ofkk1cs3c'
p1980
tp1981
Rp1982
sg1
((dp1983
I0
I42
sI1
I2
sI2
tp1984
Rp1985
g5
(S'jjbqd76t2k95f979di73f5c7i2drv36m7ge2ngpuqtc2srtng2lcq96nceak9u5c'
p1986
tp1987
Rp1988
sg1
((dp1989
I0
I57
sI1
I3
sI2
tp1990
Rp1991
g5
(S'-27v1rg7514ri7ikgvpov8fn9e982sd1nal5ll3brfodar68t26383id0ql7pr5sg'
p1992
tp1993
Rp1994
sg1
((dp1995
I0
I173
sI1
I2
sI2
tp1996
Rp1997
g5
(S'-514ge6el9i0dn4tnso0iro9cqbjrvet5m0rbooolc6jbf9f4'
p1998
tp1999
Rp2000
sg1
((dp2001
I0
I158
sI1
I1
sI2
tp2002
Rp2003
g5
(S'1inq63126v1e7sjg4hh74er1bbmjoqsj4me08c5o9fvah9cht1683e2c7b2'
p2004
tp2005
Rp2006
sg1
((dp2007
I0
I9
sI1
I7
sI2
tp2008
Rp2009
g5
(S'16d50p9m817mc7qlu5rl89fus5atj8'
p2010
tp2011
Rp2012
sg1
((dp2013
I0
I125
sI1
I6
sI2
tp2014
Rp2015
g5
(S'-2a7h85ob0aqi69601o6o'
p2016
tp2017
Rp2018
sg1
((dp2019
I0
I110
sI1
I5
sI2
tp2020
Rp2021
g5
(S'-7qhmukja6tmvrbrhpf5962500o2gkavhic022nn30mbkm1pca'
p2022
tp2023
Rp2024
sg1
((dp2025
I0
I64
sI1
I2
sI2
tp2026
Rp2027
g5
(S'3o89og5e49kvor2df0hasbejq90un78vst4jamcvgpp0l3a2noslodq2h7h9bmbdb3fes'
p2028
tp2029
Rp2030
sg1
((dp2031
I0
I79
sI1
I3
sI2
tp2032
Rp2033
g5
(S'-bfkhfdgqqk2dbit7g0d1ip3jfofcrtkbth03j50p9kd5j2na716j8o82q4i4dh448'
p2034
tp2035
Rp2036
sg1
((dp2037
I0
I195
sI1
I2
sI2
tp2038
Rp2039
g5
(S'-179lu5mhjor6i7g57gg'
p2040
tp2041
Rp2042
sg1
((dp2043
I0
I180
sI1
I1
sI2
tp2044
Rp2045
g5
(S'-hao61i12g71ud9ut1qg865one0ff0dct44mb94um5rtgi'
p2046
tp2047
Rp2048
sg1
((dp2049
I0
I16
sI1
I6
sI2
tp2050
Rp2051
g5
(S'b3m61bl2nt443qtj55sp60v3vro5ij0ijvs3q8'
p2052
tp2053
Rp2054
sg1
((dp2055
I0
I31
sI1
I7
sI2
tp2056
Rp2057
g5
(S'8fggk02ohuc4bsr4hur44faibpbej3liahg'
p2058
tp2059
Rp2060
sg1
((dp2061
I0
I132
sI1
I5
sI2
tp2062
Rp2063
g5
(S'-4hvb7685kclu4lcb2mumjdlup0tk7mr072g4n3pvs'
p2064
tp2065
Rp2066
sg1
((dp2067
I0
I74
sI2
tp2068
Rp2069
g5
(S'86mjltbl60jk71aq330ttmu424f0rlvevipu2h13nscj6g1u2e0d4gle6f4vefqamk79q6nm28'
p2070
tp2071
Rp2072
sg1
((dp2073
I0
I86
sI1
I2
sI2
tp2074
Rp2075
g5
(S'3v37olj83g1klnq8q3m395dec7g5aajttshmlmtstmr8u5qnufqloa8hsgu6pcb7uvl2f4'
p2076
tp2077
Rp2078
sg1
((dp2079
I0
I101
sI1
I3
sI2
tp2080
Rp2081
g5
(S'-3learfj94b2qdd5bhjmue1511gg6tt8cg6h8si7g1n2o3mqg39ht6tls0hgh8m90o'
p2082
tp2083
Rp2084
sg1
((dp2085
I0
I38
sI1
I6
sI2
tp2086
Rp2087
g5
(S'4gq3cqtn3oi4snu9ul0ndftbev7qru1o6581epp4j6r20'
p2088
tp2089
Rp2090
sg1
((dp2091
I0
I53
sI1
I7
sI2
tp2092
Rp2093
g5
(S'-btpemkhoe31eeqsur6q1mcfvcoo53d21h3o'
p2094
tp2095
Rp2096
sg1
((dp2097
I0
I154
sI1
I5
sI2
tp2098
Rp2099
g5
(S'-24b9d6n2vnr4qj6l9gchps4a'
p2100
tp2101
Rp2102
sg1
((dp2103
I0
I108
sI1
I2
sI2
tp2104
Rp2105
g5
(S'2fm2t86o2vp2lhpa7fbl4ra0jskr32ev95ckm2m085ub63bk8etdan6d9p2opfcs8qdo'
p2106
tp2107
Rp2108
sg1
((dp2109
I0
I123
sI1
I3
sI2
tp2110
Rp2111
g5
(S'-6g7d8opfvggsj0qqmu76mvkvbch0ti6n0cf7fgcd5pa7gjehbdqol9ubm8tuhc'
p2112
tp2113
Rp2114
sg1
((dp2115
I0
I9
sI1
I9
sI2
tp2116
Rp2117
g5
(S'-15u68hat3ru1ro'
p2118
tp2119
Rp2120
sg1
((dp2121
I0
I60
sI1
I6
sI2
tp2122
Rp2123
g5
(S'15gbvknc41nf1qrc680gv4c3tjouf5gjg7q2i24dt7ffvg'
p2124
tp2125
Rp2126
sg1
((dp2127
I0
I75
sI1
I7
sI2
tp2128
Rp2129
g5
(S'-103mpigbb0gggjtv7m2c96f5creti0'
p2130
tp2131
Rp2132
sg1
((dp2133
I0
I159
sI2
tp2134
Rp2135
g5
(S'-5f2g4t9e1vkno4hs3ifiabcqv79nekoogavtenn1rs4fo1tak3tdvfnl002k'
p2136
tp2137
Rp2138
sg1
((dp2139
I0
I14
sI1
I3
sI2
tp2140
Rp2141
g5
(S'av209vivn9a50s4s1t41jf3v8im0adk4a7jbt2js7mihg000'
p2142
tp2143
Rp2144
sg1
((dp2145
I0
I130
sI1
I2
sI2
tp2146
Rp2147
g5
(S'ggr70h8akavvtip1gnqrbol08qc9kjt1i6nv6kvmhrha076or9au36pqr4fumf8c'
p2148
tp2149
Rp2150
sg1
((dp2151
I0
I145
sI1
I3
sI2
tp2152
Rp2153
g5
(S'4u93cj740p0a6qiag809pv4666drob15ofq7b3cks1ig3rtfigc08m8o0'
p2154
tp2155
Rp2156
sg1
((dp2157
I0
I82
sI1
I6
sI2
tp2158
Rp2159
g5
(S'1a1e5faq5mur7gq5bf13rpu30hssaeu9qrcjgqmp1bo'
p2160
tp2161
Rp2162
sg1
((dp2163
I0
I97
sI1
I7
sI2
tp2164
Rp2165
g5
(S'l27fbg6pg'
p2166
tp2167
Rp2168
sg1
((dp2169
I0
I60
sI2
tp2170
Rp2171
g5
(S'149inj6vumr76g7hli57cjedperprk3djaps7h1g7dr9rn7l1irj894j3e4retthdsm5bn4nc'
p2172
tp2173
Rp2174
sg1
((dp2175
I0
I36
sI1
I3
sI2
tp2176
Rp2177
g5
(S'-6iq82dqv2sh4abs3kqetcsp5c5q5t7572r9u23r7jgvmdm4ppofkvnkp4fg'
p2178
tp2179
Rp2180
sg1
((dp2181
I0
I152
sI1
I2
sI2
tp2182
Rp2183
g5
(S'1nrad6m9id598n3dg8s6ga63qpjoj6ghn8re14t4jrup0e20dlbn4v3q5s8'
p2184
tp2185
Rp2186
sg1
((dp2187
I0
I167
sI1
I3
sI2
tp2188
Rp2189
g5
(S'-a1k7asup9gcmsiqbeqgjboqqtej7h03tngql8a6b6va9cc'
p2190
tp2191
Rp2192
sg1
((dp2193
I0
I104
sI1
I6
sI2
tp2194
Rp2195
g5
(S'296auarts07h4dncqg2ksfhiia0d0rlpq0ko'
p2196
tp2197
Rp2198
sg1
((dp2199
I0
I3
sI1
I4
sI2
tp2200
Rp2201
g5
(S'-7vqr1b03ej3g4nhhpjss1cr5v1q73o000000'
p2202
tp2203
Rp2204
sg1
((dp2205
I0
I58
sI1
I3
sI2
tp2206
Rp2207
g5
(S'3qp4cpurmugnslmbibjg3h942gufnh9n8ks3h7sqbbcrav6pcd70dnftf3gsk5fk'
p2208
tp2209
Rp2210
sg1
((dp2211
I0
I174
sI1
I2
sI2
tp2212
Rp2213
g5
(S'en1k7h5q5bue4hivea5nvbq3dlbtjqsjajvam6ccbb6heco'
p2214
tp2215
Rp2216
sg1
((dp2217
I0
I189
sI1
I3
sI2
tp2218
Rp2219
g5
(S'bu9o51t8b187k9102tki61dhas'
p2220
tp2221
Rp2222
sg1
((dp2223
I0
I10
sI1
I7
sI2
tp2224
Rp2225
g5
(S'-9c2qbv1ub5trgtl3n85relrdv5sbg8'
p2226
tp2227
Rp2228
sg1
((dp2229
I0
I126
sI1
I6
sI2
tp2230
Rp2231
g5
(S'dgcuj259maooivle20'
p2232
tp2233
Rp2234
sg1
((dp2235
I0
I145
sI2
tp2236
Rp2237
g5
(S'-11s15qa61ic1p8la6dkul3tnhrh576s5a6ruq8odf8agpm5ec5o02enmold8bdombe'
p2238
tp2239
Rp2240
sg1
((dp2241
I0
I25
sI1
I4
sI2
tp2242
Rp2243
g5
(S'-hmofqlumng4pv7mj21o6depi61srsljjjvhrodnldrk4jb5n0uc'
p2244
tp2245
Rp2246
sg1
((dp2247
I0
I80
sI1
I3
sI2
tp2248
Rp2249
g5
(S'i5m4m4qq8ljd21rckod105rkburi3j0e0k2mitfnqilscorhca0phdch0en5dh594'
p2250
tp2251
Rp2252
sg1
((dp2253
I0
I196
sI1
I2
sI2
tp2254
Rp2255
g5
(S'1mo0jlm38sbnp4'
p2256
tp2257
Rp2258
sg1
((dp2259
I0
I46
sI2
tp2260
Rp2261
g5
(S'34r77lh489agbfv9lni64jmpea97gjf8trali3c61d8mp344t7m5p1b2pfptv4lceq9s00'
p2262
tp2263
Rp2264
sg1
((dp2265
I0
I32
sI1
I7
sI2
tp2266
Rp2267
g5
(S'-4uu05bpr2b57o7uiv3gi29c73492c186s568'
p2268
tp2269
Rp2270
sg1
((dp2271
I0
I47
sI1
I4
sI2
tp2272
Rp2273
g5
(S'-avmgheihomlshfl3f3i2706i4msjurbm3qpd3vao4a3cf48cck7a7rcg2'
p2274
tp2275
Rp2276
sg1
((dp2277
I0
I34
sI1
I8
sI2
tp2278
Rp2279
g5
(S'625mdmb6a78gos0g49otdtu7d4'
p2280
tp2281
Rp2282
sg1
((dp2283
I0
I102
sI1
I3
sI2
tp2284
Rp2285
g5
(S'40ubr15168aod8vireghlaend8q5u20ad32ks8r875tp91vcit4ll9f18pja6k7pk'
p2286
tp2287
Rp2288
sg1
((dp2289
I0
I1
sI1
I1
sI2
tp2290
Rp2291
g5
(S'ei3k98lsv4glv0pfod6m9br1530000000000000000'
p2292
tp2293
Rp2294
sg1
((dp2295
I0
I54
sI1
I7
sI2
tp2296
Rp2297
g5
(S'2grbsplpra0l60kkn7q811901vaiejr4er8'
p2298
tp2299
Rp2300
sg1
((dp2301
I0
I69
sI1
I4
sI2
tp2302
Rp2303
g5
(S'-dplnn5geri0eugprpnles2chs225ishd4gl137chtg0j6pb3v4locvp457iu'
p2304
tp2305
Rp2306
sg1
((dp2307
I0
I124
sI1
I3
sI2
tp2308
Rp2309
g5
(S'2ta83fn4urv93070i53olcuh6192930mm63c77kiedspfhk9bj7p8atkedd5fs'
p2310
tp2311
Rp2312
sg1
((dp2313
I0
I23
sI1
I1
sI2
tp2314
Rp2315
g5
(S'7jsios4rop1e3fvr6kgqmu7sgd5hju38dsamtkt11jisi43fjk5mh100000'
p2316
tp2317
Rp2318
sg1
((dp2319
I0
I131
sI2
tp2320
Rp2321
g5
(S'-1i45sd6h5omef0hvtmpi0kbvdvdh9h7p5da195kjvkpd8er5bk10no6n7909nhmvc8ipbq'
p2322
tp2323
Rp2324
sg1
((dp2325
I0
I76
sI1
I7
sI2
tp2326
Rp2327
g5
(S'6jnajod2aiko8kdtseo6ev1276bjo'
p2328
tp2329
Rp2330
sg1
((dp2331
I0
I91
sI1
I4
sI2
tp2332
Rp2333
g5
(S'6jbckko6jgqv6jukien49m1mjd4g5ts8qbp15kh2gpgmhtrbbm4495ibdphg8'
p2334
tp2335
Rp2336
sg1
((dp2337
I0
I43
sI1
I8
sI2
tp2338
Rp2339
g5
(S'-38ouo4qm2j2ema8tci2bg7tg'
p2340
tp2341
Rp2342
sg1
((dp2343
I0
I146
sI1
I3
sI2
tp2344
Rp2345
g5
(S'-1fuqqatcna8ltmnvii3loe7dermupvco21dc794vttkd3sv5ml9qi401g'
p2346
tp2347
Rp2348
sg1
((dp2349
I0
I32
sI2
tp2350
Rp2351
g5
(S'kcvb0vmofugtonmivu091s5omih4ntsuv0ln1dbtff9mba234hvklqjmkig800000'
p2352
tp2353
Rp2354
sg1
((dp2355
I0
I45
sI1
I1
sI2
tp2356
Rp2357
g5
(S'1gk5m0chqb4pgliabko45jrlr4urjf63ps416bd883o9kjvl3j7hfhes7ag4hqinl33g'
p2358
tp2359
Rp2360
sg1
((dp2361
I0
I98
sI1
I7
sI2
tp2362
Rp2363
g5
(S'jlq0o'
p2364
tp2365
Rp2366
sg1
((dp2367
I0
I113
sI1
I4
sI2
tp2368
Rp2369
g5
(S'-38u7p3j7lfqag41s5i955blvo9u939a4spp0hstd6s1lnq14ltdpcpc1u30u'
p2370
tp2371
Rp2372
sg1
((dp2373
I0
I168
sI1
I3
sI2
tp2374
Rp2375
g5
(S'13n3lqtntg9drle5a764s6a0ncdnrsncb5h4rgdukoi7uc'
p2376
tp2377
Rp2378
sg1
((dp2379
I0
I67
sI1
I1
sI2
tp2380
Rp2381
g5
(S'pc9qn704en8rsm0el2g9v0o4g1gcfas3mflbk8pejffibt2rgnk193140cpa2939d36rn0s'
p2382
tp2383
Rp2384
sg1
((dp2385
I0
I19
sI1
I5
sI2
tp2386
Rp2387
g5
(S'3nefs2uf0mdkq91d1918q3bbligumq6n2rfj7c28rkhs'
p2388
tp2389
Rp2390
sg1
((dp2391
I0
I135
sI1
I4
sI2
tp2392
Rp2393
g5
(S'-40uorc9edshqf6rv54693f6n70f8h7nd2k90r0k6v2uq463tl4tfl8hu'
p2394
tp2395
Rp2396
sg1
((dp2397
I0
I6
sI1
I9
sI2
tp2398
Rp2399
g5
(S'ff98cin1o6is8'
p2400
tp2401
Rp2402
sg1
((dp2403
I0
I117
sI2
tp2404
Rp2405
g5
(S'-1nl9f0pb41o1a7tlqnrrpmhf2ggqdvskvm3k94hj9glqkbmgsu3ga032uq9hlgs7h1lpbbqcq'
p2406
tp2407
Rp2408
sg1
((dp2409
I0
I190
sI1
I3
sI2
tp2410
Rp2411
g5
(S'3d8vfrhtpj6a9009ciqml02vo'
p2412
tp2413
Rp2414
sg1
((dp2415
I0
I89
sI1
I1
sI2
tp2416
Rp2417
g5
(S'-4oa6l1d5m8r193b7311mbg1267bej05rnp2uv97gujubiq2g1hf84rgocoeqvf9oam8mj38m'
p2418
tp2419
Rp2420
sg1
((dp2421
I0
I41
sI1
I5
sI2
tp2422
Rp2423
g5
(S'-l057jjdoltvrprc97cfo48ggascknv13on7oh8dsemosrunh5s4'
p2424
tp2425
Rp2426
sg1
((dp2427
I0
I157
sI1
I4
sI2
tp2428
Rp2429
g5
(S'-9g6lv4u8pl7pj64a0i7b9bgob45n0n6bd3110ts60jo1ve'
p2430
tp2431
Rp2432
sg1
((dp2433
I0
I18
sI2
tp2434
Rp2435
g5
(S'62662a56a3o42omleh1s7kuj8ojdc3go589am9hdq5st8ag40000000000'
p2436
tp2437
Rp2438
sg1
((dp2439
I0
I111
sI1
I1
sI2
tp2440
Rp2441
g5
(S'-59uvgsqeqj44t2fskl1k92t2q46e9ido3179g9v7rgubid4ab8h1al3qj9hc5eldrg9a00'
p2442
tp2443
Rp2444
sg1
((dp2445
I0
I63
sI1
I5
sI2
tp2446
Rp2447
g5
(S'-18etkfu4mcrl0t5bni5c6j2dbtrcr2lnofguhj8ff52ghtov2tk3uc'
p2448
tp2449
Rp2450
sg1
((dp2451
I0
I179
sI1
I4
sI2
tp2452
Rp2453
g5
(S'-cbkej2v6f9emqg04mg9rtm210nk4'
p2454
tp2455
Rp2456
sg1
((dp2457
I1
I4
sI2
tp2458
Rp2459
g5
(S'amdpqjhdrm9gedcal30gprhnj40000000'
p2460
tp2461
Rp2462
sg1
((dp2463
I0
I15
sI1
I9
sI2
tp2464
Rp2465
g5
(S'bet285ud9n7qo2'
p2466
tp2467
Rp2468
sg1
((dp2469
I0
I133
sI1
I1
sI2
tp2470
Rp2471
g5
(S'-3obb0tselrt72c3lmc2epc6virf2grfjrbr23eonlrbf6clslvc70rsnvtt9o96jdhu'
p2472
tp2473
Rp2474
sg1
((dp2475
I0
I85
sI1
I5
sI2
tp2476
Rp2477
g5
(S'5q9sqbe6opaceuhs3v52fggqepc6ubrc4a41ombtgq6gh5hoavnes'
p2478
tp2479
Rp2480
sg1
((dp2481
I0
I103
sI2
tp2482
Rp2483
g5
(S'-k1j3l0gsbivmug7bh42csa3e76jlvljp2dei19skqv2kechsjjmsm2t8asqrq200oil79stdbg'
p2484
tp2485
Rp2486
sg1
((dp2487
I0
I22
sI1
I4
sI2
tp2488
Rp2489
g5
(S'5eucrj966v6rtsqah2518835ea92nlcdo1veaopjccbdn670mo'
p2490
tp2491
Rp2492
sg1
((dp2493
I0
I155
sI1
I1
sI2
tp2494
Rp2495
g5
(S'-3dev27h1us364326d5u24rpcgogbsufq0sn1ud16fod3uvjurnl8snnatoqi'
p2496
tp2497
Rp2498
sg1
((dp2499
I0
I4
sI2
tp2500
Rp2501
g5
(S'-1vtdq6mpc4nrhrso73cqaa9po707bgb00000000000000000'
p2502
tp2503
Rp2504
sg1
((dp2505
I0
I107
sI1
I5
sI2
tp2506
Rp2507
g5
(S'-1s201o2shr06fc9ptermf7t0u6vdosurj96tcrdjenajklrppq'
p2508
tp2509
Rp2510
sg1
((dp2511
I0
I44
sI1
I4
sI2
tp2512
Rp2513
g5
(S'29p3smlcts7dpcgleln4nrmk7aahgkds7gbjc1cl3l2sn9pdinmu6cm94'
p2514
tp2515
Rp2516
sg1
((dp2517
I0
I177
sI1
I1
sI2
tp2518
Rp2519
g5
(S'3bcq0on5dt2vllsc2jhnn6r65bv2s500p0q5a4caktgpmbu6'
p2520
tp2521
Rp2522
sg1
((dp2523
I0
I13
sI1
I2
sI2
tp2524
Rp2525
g5
(S'-2i67aj4td2it598cv5m0ko1ovuspdd0k55v400jnfctg000000'
p2526
tp2527
Rp2528
sg1
((dp2529
I0
I129
sI1
I5
sI2
tp2530
Rp2531
g5
(S'i7gk9p37aq4ospr3gu1l018dn8fg91bf452n054odu'
p2532
tp2533
Rp2534
sg1
((dp2535
I0
I188
sI2
tp2536
Rp2537
g5
(S'-1mbevn8nmsmn9ngl6v44k9gpmgsjb1ro7tgi69rq'
p2538
tp2539
Rp2540
sg1
((dp2541
I0
I66
sI1
I4
sI2
tp2542
Rp2543
g5
(S'19890tpdscm7qiraiolkf2mqteiu8r58uu48gv5t3jrm0ja9meu7s8tvducq'
p2544
tp2545
Rp2546
sg1
((dp2547
I0
I35
sI1
I2
sI2
tp2548
Rp2549
g5
(S'-62ll9qpnou7nvrk62hhpphdsbqq4dk7urfgqq3ufvm745v7mnup8un9pkci55o'
p2550
tp2551
Rp2552
sg1
((dp2553
I0
I89
sI2
tp2554
Rp2555
g5
(S'-3f10jpf7il2hjt81m0jm50jpvvj6vcbkc4ulvl45jigq62d8o2ga32pbq428su0vh6su5beo3cs'
p2556
tp2557
Rp2558
sg1
((dp2559
I0
I20
sI1
I1
sI2
tp2560
Rp2561
g5
(S'-gckml7fh9ci21fe7go188dfeis10s19972s94dltd4addburiu8000000'
p2562
tp2563
Rp2564
sg1
((dp2565
I0
I151
sI1
I5
sI2
tp2566
Rp2567
g5
(S'i8lstflidja57lptsjp0ka35aq'
p2568
tp2569
Rp2570
sg1
((dp2571
I0
I88
sI1
I4
sI2
tp2572
Rp2573
g5
(S'-23d7utrrcgou47bqu2uhslca9u2f81240p4675bspghe3oruqdaqnrqn1hfeq'
p2574
tp2575
Rp2576
sg1
((dp2577
I0
I40
sI1
I8
sI2
tp2578
Rp2579
g5
(S'2cvti27nmnrtiah3tntj62gv8'
p2580
tp2581
Rp2582
sg1
((dp2583
I0
I57
sI1
I2
sI2
tp2584
Rp2585
g5
(S'-3e3jh8v5913pfr54fmcu2rcovs342tn80iq4vnaphevn6tq22jttbj94upnj1np79crg'
p2586
tp2587
Rp2588
sg1
((dp2589
I0
I42
sI1
I1
sI2
tp2590
Rp2591
g5
(S'-2m69stlrsvjpr1n95t59l0i3vvv7707li85ab7mu1rjtt0218dtvpej8ofgh5uvj4eo'
p2592
tp2593
Rp2594
sg1
((dp2595
I0
I9
sI1
I6
sI2
tp2596
Rp2597
g5
(S'2g00d61s5dvumdnn2itiov87oocqahn04g'
p2598
tp2599
Rp2600
sg1
((dp2601
I0
I110
sI1
I4
sI2
tp2602
Rp2603
g5
(S'-6l6veopuj8dunt1vmj7v8csb1ihgi1sn909tmfb6qbc9rqedtfuoq320s7kk'
p2604
tp2605
Rp2606
sg1
((dp2607
I0
I79
sI1
I2
sI2
tp2608
Rp2609
g5
(S'-4ag8p86ru24em8ik9u8ut33g68nql8ul3v8ld59flunbeh3ui2vvitskg9cmath1v7f1n8'
p2610
tp2611
Rp2612
sg1
((dp2613
I0
I64
sI1
I1
sI2
tp2614
Rp2615
g5
(S'-92unr9egc5vo11rvb9lrbd2cgvnuk5q3pvu270u1008ru9k2p8ses22ksg9ktc6q742jhu4'
p2616
tp2617
Rp2618
sg1
((dp2619
I0
I31
sI1
I6
sI2
tp2620
Rp2621
g5
(S'-1dj3oeier5gi4u8t4imt00mggod2hmceglnh6lbqjf00'
p2622
tp2623
Rp2624
sg1
((dp2625
I0
I16
sI1
I5
sI2
tp2626
Rp2627
g5
(S'bkgefll2ivlfnspaaskk1nsemc5ts8onpgthrtmcto'
p2628
tp2629
Rp2630
sg1
((dp2631
I0
I132
sI1
I4
sI2
tp2632
Rp2633
g5
(S'2mn5jgm9mk6kjgqv7icsgdktuoieutiq7vrlhqvqf3j0mufpgl53ej4vk'
p2634
tp2635
Rp2636
sg1
((dp2637
I0
I75
sI2
tp2638
Rp2639
g5
(S'-b1f8gpn6ls2mmav1vb2rfn6tf0lnm33u0iiqsi8cjj5p7gscvv6tfhiiu7etelb11h68pruv0g'
p2640
tp2641
Rp2642
sg1
((dp2643
I0
I101
sI1
I2
sI2
tp2644
Rp2645
g5
(S'-2h7a45ovsg2d4gk6ugomo7so2v9scc3bd67qufd9eia34mifa48qpmk9bsrltj4278d4c'
p2646
tp2647
Rp2648
sg1
((dp2649
I0
I86
sI1
I1
sI2
tp2650
Rp2651
g5
(S'3c3oa8pllar30o90l3964mmf3d470peajga4idj6da1e5qp858b6m1e3tsdsc6io0b3ecj0u'
p2652
tp2653
Rp2654
sg1
((dp2655
I0
I53
sI1
I6
sI2
tp2656
Rp2657
g5
(S'-414lfd53j0svftgb6u8934fsbfrer1i59teqebmit5fbeg'
p2658
tp2659
Rp2660
sg1
((dp2661
I0
I38
sI1
I5
sI2
tp2662
Rp2663
g5
(S'1hltrlkclnkjsaagh7th9o1th3ermcvpm7c15nmvr1ttlgu9c9u'
p2664
tp2665
Rp2666
sg1
((dp2667
I0
I154
sI1
I4
sI2
tp2668
Rp2669
g5
(S'3fuqlpj9fudvggti9hpjtb1pbbdodejo0ih04c7kkaqshat0'
p2670
tp2671
Rp2672
sg1
((dp2673
I0
I7
sI1
I3
sI2
tp2674
Rp2675
g5
(S'-3pnij46p5d33te1c985af7ch4hvb3o587vv30000000'
p2676
tp2677
Rp2678
sg1
((dp2679
I0
I123
sI1
I2
sI2
tp2680
Rp2681
g5
(S'oacofllmpc9lr9oeibrh96amk8khkdftaujf6ke0sc7ju437gak1o9dtrgbaite8'
p2682
tp2683
Rp2684
sg1
((dp2685
I0
I108
sI1
I1
sI2
tp2686
Rp2687
g5
(S'gjj676ufaofd3ap0upbja7is9d5u512lmvfm366m3si3sc6ofurfuvrk9t1seu15pf3jgi'
p2688
tp2689
Rp2690
sg1
((dp2691
I0
I9
sI1
I8
sI2
tp2692
Rp2693
g5
(S'-473hu8s151f5g0ekim3ha5me'
p2694
tp2695
Rp2696
sg1
((dp2697
I0
I75
sI1
I6
sI2
tp2698
Rp2699
g5
(S'3k42on9e96qlnckg8vsfd9mkjvhie0b2n0ts6sevntco'
p2700
tp2701
Rp2702
sg1
((dp2703
I0
I60
sI1
I5
sI2
tp2704
Rp2705
g5
(S'q195icorjr22ig0p3hjjcchvrndm6976duf96osmu4frhi5gfu37q'
p2706
tp2707
Rp2708
sg1
((dp2709
I0
I176
sI1
I4
sI2
tp2710
Rp2711
g5
(S'jreadsia38ceo41cqvl1s6nuf8o6ldc'
p2712
tp2713
Rp2714
sg1
((dp2715
I0
I160
sI2
tp2716
Rp2717
g5
(S'13c5j70ucs5p4u0go14isfslapimoabvd5m7lppt12unh1lv7ijm9526q2g4'
p2718
tp2719
Rp2720
sg1
((dp2721
I0
I12
sI1
I9
sI2
tp2722
Rp2723
g5
(S'-698k28mf18tedi'
p2724
tp2725
Rp2726
sg1
((dp2727
I0
I14
sI1
I2
sI2
tp2728
Rp2729
g5
(S'fejg57crend0maav6f133esjkm0csg173mtt4tomlftfg00000'
p2730
tp2731
Rp2732
sg1
((dp2733
I0
I29
sI1
I3
sI2
tp2734
Rp2735
g5
(S'bun835gnvkhanjkfq1nvvkrhs2sp97igf1akg12s755gfm5orpobqtdc'
p2736
tp2737
Rp2738
sg1
((dp2739
I0
I145
sI1
I2
sI2
tp2740
Rp2741
g5
(S'-5nbkjlsomea4u82m048o0i48cg4lp138lv76g3obuv3gvrc9tc201137lge1s'
p2742
tp2743
Rp2744
sg1
((dp2745
I0
I130
sI1
I1
sI2
tp2746
Rp2747
g5
(S'17iadqea4rv0dha7k43clo10mdn817e7bvvaa9u8o1ch3ll2g3rlrqnes9i6o5vcau04'
p2748
tp2749
Rp2750
sg1
((dp2751
I0
I97
sI1
I6
sI2
tp2752
Rp2753
g5
(S'-pgm0b1q536q1dh8gfohmb150lren5ki74o1ps0'
p2754
tp2755
Rp2756
sg1
((dp2757
I0
I61
sI2
tp2758
Rp2759
g5
(S'-1r055qk2j5u07k0todhbp1a7gba5ru0vlpcgk6cbkb5cecqqu71903qm4ko2h7us6mpmd83o8'
p2760
tp2761
Rp2762
sg1
((dp2763
I0
I82
sI1
I5
sI2
tp2764
Rp2765
g5
(S'75arkikd7ip7p1t3d2uk9fb8kpdo3kbimm343uit94n5ijpv9mnj0'
p2766
tp2767
Rp2768
sg1
((dp2769
I0
I36
sI1
I2
sI2
tp2770
Rp2771
g5
(S'lk7gtvk9aslo2c3cf4vu258s1tabihea9i5fluaffeurreednbfvuo03sss648'
p2772
tp2773
Rp2774
sg1
((dp2775
I0
I51
sI1
I3
sI2
tp2776
Rp2777
g5
(S'-2lmqpiea0np0199v2312flmlpchj25o4sbbddc90lhmrd94gus12s2hkkvubkg'
p2778
tp2779
Rp2780
sg1
((dp2781
I0
I167
sI1
I2
sI2
tp2782
Rp2783
g5
(S'-1vmiieo4ajt3nr8nl4jv5obkfdbts7cqfrisp89eqmi0ejenu0d8'
p2784
tp2785
Rp2786
sg1
((dp2787
I0
I152
sI1
I1
sI2
tp2788
Rp2789
g5
(S'58u2ji2f5r296lfuc9dtjhj1jodnoq744rr91vp2i7k9qa4s9c8c1cgmkcb1u'
p2790
tp2791
Rp2792
sg1
((dp2793
I0
I53
sI1
I8
sI2
tp2794
Rp2795
g5
(S'-d4kjo66v836ngviilbe'
p2796
tp2797
Rp2798
sg1
((dp2799
I0
I3
sI1
I7
sI2
tp2800
Rp2801
g5
(S'-i5chtno7j8q8k9ujeducrne0g'
p2802
tp2803
Rp2804
sg1
((dp2805
I0
I119
sI1
I6
sI2
tp2806
Rp2807
g5
(S'-dm6lvl20si5hadd9ffohvssk88'
p2808
tp2809
Rp2810
sg1
((dp2811
I0
I104
sI1
I5
sI2
tp2812
Rp2813
g5
(S'usofp8vlekohfqip62tuf3vvoganv46v46tib8nfptupr04ttg'
p2814
tp2815
Rp2816
sg1
((dp2817
I0
I58
sI1
I2
sI2
tp2818
Rp2819
g5
(S'65j0og0fbt80feg28ci0556ke2l6v09704aupu21t16vj5vp3rarqlajmbsp9et7nbi8'
p2820
tp2821
Rp2822
sg1
((dp2823
I0
I73
sI1
I3
sI2
tp2824
Rp2825
g5
(S'ad9t7b8nopnq0hgpqb4451m1veditaqkrflkakm9tsdv60om0bbfok70j1j1ra5n4'
p2826
tp2827
Rp2828
sg1
((dp2829
I0
I189
sI1
I2
sI2
tp2830
Rp2831
g5
(S'-3251mldlg83kvsi6j3pe2tgmnspoqlkuk'
p2832
tp2833
Rp2834
sg1
((dp2835
I0
I174
sI1
I1
sI2
tp2836
Rp2837
g5
(S'-4dh4bkn9uscco3v6obv95mf8gq7fvp5ucpm62jtpj3gmq97ovm'
p2838
tp2839
Rp2840
sg1
((dp2841
I0
I10
sI1
I6
sI2
tp2842
Rp2843
g5
(S'-b7c84ribqvi7t003vfeflbj0o3cfv23qi0'
p2844
tp2845
Rp2846
sg1
((dp2847
I0
I25
sI1
I7
sI2
tp2848
Rp2849
g5
(S'-j6jjjvb4p5304cvpb45p4vm893156677nr8'
p2850
tp2851
Rp2852
sg1
((dp2853
I0
I146
sI2
tp2854
Rp2855
g5
(S'au84pqsm748l3kvvgm8aqhkijg5t0gqrnfok5qcf335oeqdukdp4bt8js5htdvtns'
p2856
tp2857
Rp2858
sg1
((dp2859
I0
I126
sI1
I5
sI2
tp2860
Rp2861
g5
(S'26diq8gidej338n9unql3nia7raq4haiqunna0uob8ia'
p2862
tp2863
Rp2864
sg1
((dp2865
I0
I80
sI1
I2
sI2
tp2866
Rp2867
g5
(S'4ic5n13i17rdo9qi9j80i5j082c4b0lcrj79dcdijdv26c6dbai3f7qjemsi8otfpf6rgk'
p2868
tp2869
Rp2870
sg1
((dp2871
I0
I95
sI1
I3
sI2
tp2872
Rp2873
g5
(S'do8nunqbac82v1nag5o5jv8a7ll9kbobgqs0ofbvktqe95t2v1rl5hk4s2hagj428'
p2874
tp2875
Rp2876
sg1
((dp2877
I0
I196
sI1
I1
sI2
tp2878
Rp2879
g5
(S'8g820kcshrg7ija0'
p2880
tp2881
Rp2882
sg1
((dp2883
I0
I47
sI2
tp2884
Rp2885
g5
(S'-7btrb96t6ap4gs8ih7n3ubqnuoocs785mq7796dqhsqk6ughusu07aeipsai7at77c8gg0'
p2886
tp2887
Rp2888
sg1
((dp2889
I0
I32
sI1
I6
sI2
tp2890
Rp2891
g5
(S'35f0kctjcvsflt4040096029s3e98ah4kq07f4sd7n58'
p2892
tp2893
Rp2894
sg1
((dp2895
I0
I47
sI1
I7
sI2
tp2896
Rp2897
g5
(S'-asn9o3o3737ol24h4akpchmfaubmb5gjoj1o'
p2898
tp2899
Rp2900
sg1
((dp2901
I0
I148
sI1
I5
sI2
tp2902
Rp2903
g5
(S'itfdukpg7ejql2gtbhjcmectn6eji'
p2904
tp2905
Rp2906
sg1
((dp2907
I0
I102
sI1
I2
sI2
tp2908
Rp2909
g5
(S'1k7b6ao2h6me4eune2jlfe9a9euequchm1om9co8tvf3mnbbluolthothf3cph85iphu4'
p2910
tp2911
Rp2912
sg1
((dp2913
I0
I117
sI1
I3
sI2
tp2914
Rp2915
g5
(S'-d7bou19on1tuj3pqbokh4btd3rjn5m18139ulhifkh5e1557t1jtkfk0nbjmbl8'
p2916
tp2917
Rp2918
sg1
((dp2919
I0
I54
sI1
I6
sI2
tp2920
Rp2921
g5
(S'3qhmnkvbjnp382uoiq8e3k25n5cvg0t68lv18volfn665g'
p2922
tp2923
Rp2924
sg1
((dp2925
I0
I69
sI1
I7
sI2
tp2926
Rp2927
g5
(S'-16vapg1qb5nsculmopjg7pd29kdr37vo'
p2928
tp2929
Rp2930
sg1
((dp2931
I0
I8
sI1
I3
sI2
tp2932
Rp2933
g5
(S'2a2m39elro9qsbfthds261ucdfn28emnk2m475000000'
p2934
tp2935
Rp2936
sg1
((dp2937
I0
I124
sI1
I2
sI2
tp2938
Rp2939
g5
(S'p56b2n3fe79l9jh4ptujss30el4dddb9p1lo5t7msbvn6n47iikoj344i7caomt4'
p2940
tp2941
Rp2942
sg1
((dp2943
I0
I139
sI1
I3
sI2
tp2944
Rp2945
g5
(S'2fuui95nh99s2us1bei51gtm966kiic254ej1m7ijatuvqv5paheo6bmg3k'
p2946
tp2947
Rp2948
sg1
((dp2949
I0
I25
sI1
I9
sI2
tp2950
Rp2951
g5
(S'-18eqj4nqstlo'
p2952
tp2953
Rp2954
sg1
((dp2955
I0
I132
sI2
tp2956
Rp2957
g5
(S'jn0mndkifbidud9b6p99u8esj95260pki6kusoj32eqnqh54pf0vs7h4btti3ulu2tumg'
p2958
tp2959
Rp2960
sg1
((dp2961
I0
I76
sI1
I6
sI2
tp2962
Rp2963
g5
(S'-25u6vodiflndtbt24se8ndc9cnqa7s0lc25bsrodhrmo'
p2964
tp2965
Rp2966
sg1
((dp2967
I0
I91
sI1
I7
sI2
tp2968
Rp2969
g5
(S'3smhcsam77br8t4u028'
p2970
tp2971
Rp2972
sg1
((dp2973
I0
I30
sI1
I3
sI2
tp2974
Rp2975
g5
(S'-1su5mm951cf35k69usomcl6phnpq4bakpv427e1pmhv88i6ff4qdf9h3k'
p2976
tp2977
Rp2978
sg1
((dp2979
I0
I146
sI1
I2
sI2
tp2980
Rp2981
g5
(S'200uir13u70pg86uoj6906cgkaka6fa4cio0jma5jhqee04hnuipo2m97k3b4'
p2982
tp2983
Rp2984
sg1
((dp2985
I0
I161
sI1
I3
sI2
tp2986
Rp2987
g5
(S'q4qq50ifmsdqftjbfi5ecrjaddalrchg87ppveq3jdag4qnuk'
p2988
tp2989
Rp2990
sg1
((dp2991
I0
I98
sI1
I6
sI2
tp2992
Rp2993
g5
(S'7l2gjre4lqqqtatjfcmspsinlhuoom8abpdb6o'
p2994
tp2995
Rp2996
sg1
((dp2997
I0
I52
sI1
I3
sI2
tp2998
Rp2999
g5
(S'12aj1e6leculbpgklsvb45r86d2e7c7cerl7hg08j4hil4d0npr39oddje7qd7g'
p3000
tp3001
Rp3002
sg1
((dp3003
I0
I168
sI1
I2
sI2
tp3004
Rp3005
g5
(S'8jjvjm92srrh91ktkkgev4volofkre29tlfhak6fphcqbkv6m7k'
p3006
tp3007
Rp3008
sg1
((dp3009
I0
I183
sI1
I3
sI2
tp3010
Rp3011
g5
(S'he5dav2n565c4no0b693ph7acbbkdevc'
p3012
tp3013
Rp3014
sg1
((dp3015
I0
I4
sI1
I7
sI2
tp3016
Rp3017
g5
(S'7tgbug1uihmqcu3sf4akm9fum0'
p3018
tp3019
Rp3020
sg1
((dp3021
I0
I120
sI1
I6
sI2
tp3022
Rp3023
g5
(S'itfucgge68lcrpkffblfuo1dg'
p3024
tp3025
Rp3026
sg1
((dp3027
I0
I19
sI1
I4
sI2
tp3028
Rp3029
g5
(S'-u0i3rue4jid6qplva6ec1ukn1pv27uad0sfar4or7bh56kko'
p3030
tp3031
Rp3032
sg1
((dp3033
I0
I6
sI1
I8
sI2
tp3034
Rp3035
g5
(S'1j5o90uqh3cs46o8cpida48'
p3036
tp3037
Rp3038
sg1
((dp3039
I0
I118
sI2
tp3040
Rp3041
g5
(S'uqf1g4lcl8vq98hbpn9dhgs3lnhbv332idqvh4shh258d1dc2f3hkoom3rqg7p1cetamcvp6'
p3042
tp3043
Rp3044
sg1
((dp3045
I0
I74
sI1
I3
sI2
tp3046
Rp3047
g5
(S'-ag84sr50dcicv6fhm79vi5kge3o0kkeuqti28hi65kvtbh5lcgknde0upkivma5d8'
p3048
tp3049
Rp3050
sg1
((dp3051
I0
I190
sI1
I2
sI2
tp3052
Rp3053
g5
(S'f47t1sij5688kft5v7miubv96g837ps'
p3054
tp3055
Rp3056
sg1
((dp3057
I0
I26
sI1
I7
sI2
tp3058
Rp3059
g5
(S'124dksbtehd9sks7d6fnl23v010si8kke5rg'
p3060
tp3061
Rp3062
sg1
((dp3063
I0
I41
sI1
I4
sI2
tp3064
Rp3065
g5
(S'-dd2c5p0baitm27mje0p0c17cb8ufstf1ffk9upl6s2mfp1ov5662kc1k'
p3066
tp3067
Rp3068
sg1
((dp3069
I0
I19
sI2
tp3070
Rp3071
g5
(S'-2bfljco72pa47rfkhi3kr7op4qg3kq60bktcu3joehk8sibdhk000000000'
p3072
tp3073
Rp3074
sg1
((dp3075
I0
I96
sI1
I3
sI2
tp3076
Rp3077
g5
(S'-9h98rfd33ca877osl5709pi24on3o6t9p19oetkr2ba55m33d12jq1shjf58ri5pk'
p3078
tp3079
Rp3080
sg1
((dp3081
I0
I48
sI1
I7
sI2
tp3082
Rp3083
g5
(S'8su9hda3ph9c1ins8dno8544qs3lebpo2h7g'
p3084
tp3085
Rp3086
sg1
((dp3087
I0
I63
sI1
I4
sI2
tp3088
Rp3089
g5
(S'1jct57pogj3co772cci54r5lqcug8e1j2acvfmb073hg8ejd4f9mjujo3836'
p3090
tp3091
Rp3092
sg1
((dp3093
I0
I50
sI1
I8
sI2
tp3094
Rp3095
g5
(S'3lbsdaupg9sfgoel8hb7i'
p3096
tp3097
Rp3098
sg1
((dp3099
I0
I15
sI1
I8
sI2
tp3100
Rp3101
g5
(S'-1gfbrbrmttuv868affehf1u896'
p3102
tp3103
Rp3104
sg1
((dp3105
I0
I118
sI1
I3
sI2
tp3106
Rp3107
g5
(S'6uf38o5rn856afh27k9mooq1g4v1prt67ibd1s3fv8b0sqo4g6hi56v86h9ne5k'
p3108
tp3109
Rp3110
sg1
((dp3111
I0
I17
sI1
I1
sI2
tp3112
Rp3113
g5
(S'abqm0jgcoa637ks7gqpv8vvq29oscle3iujrve7nmjvq0oq60000000'
p3114
tp3115
Rp3116
sg1
((dp3117
I0
I70
sI1
I7
sI2
tp3118
Rp3119
g5
(S'fv00p70dma8ujsihigmdgauibo03lt0'
p3120
tp3121
Rp3122
sg1
((dp3123
I0
I85
sI1
I4
sI2
tp3124
Rp3125
g5
(S'-4v0o6ig37j6e9ns1obt02fhmg55vss0mq4acoerj3nt958jikq3g3glvfuu3a'
p3126
tp3127
Rp3128
sg1
((dp3129
I0
I104
sI2
tp3130
Rp3131
g5
(S'f4j0eualdto0im1ke1fdbou6nifaikinshcu9u8d5v1fign30qdavs6bsn7b133pun8jj8eg1e'
p3132
tp3133
Rp3134
sg1
((dp3135
I0
I140
sI1
I3
sI2
tp3136
Rp3137
g5
(S'-veikl7nne27vs59jdd1tfjd3ul8sr1pte0t7a2qaumvo6ud5eu068mcgno'
p3138
tp3139
Rp3140
sg1
((dp3141
I0
I39
sI1
I1
sI2
tp3142
Rp3143
g5
(S'3gtdlfkqn7olhunh7pcnmbqkdlckolpm10vso6gtgt7oqgooa6d5so4iob03oltj80'
p3144
tp3145
Rp3146
sg1
((dp3147
I0
I92
sI1
I7
sI2
tp3148
Rp3149
g5
(S'-2qjcco55t7p5blfn18'
p3150
tp3151
Rp3152
sg1
((dp3153
I0
I107
sI1
I4
sI2
tp3154
Rp3155
g5
(S'v1lh3jj47pfdnk9rtjpisj9rmje5s1hbr9kcoa1e3d10bgq4qvuv85nn07lq'
p3156
tp3157
Rp3158
sg1
((dp3159
I0
I59
sI1
I8
sI2
tp3160
Rp3161
g5
(S'-43gkstps8v7gno4'
p3162
tp3163
Rp3164
sg1
((dp3165
I0
I162
sI1
I3
sI2
tp3166
Rp3167
g5
(S'-12hh14ro4rblm906so24ri208g9u82rdlfi14qvorvnvukl08'
p3168
tp3169
Rp3170
sg1
((dp3171
I0
I61
sI1
I1
sI2
tp3172
Rp3173
g5
(S'2huup5ihf944hbt6b248rk32mh8bjnb5irde9tnupd3bnoretn5jh0jtqcu7r7si48maqto'
p3174
tp3175
Rp3176
sg1
((dp3177
I0
I13
sI1
I5
sI2
tp3178
Rp3179
g5
(S'-19e9d79d7ks9skcfkpqkktfunhicm8ehbrjtp2ui8'
p3180
tp3181
Rp3182
sg1
((dp3183
I0
I129
sI1
I4
sI2
tp3184
Rp3185
g5
(S'-19npv8r69iru1e4m9nvgtdk969mg2oul7tf5uas96t5a2pnov6a724uum8'
p3186
tp3187
Rp3188
sg1
((dp3189
I0
I189
sI2
tp3190
Rp3191
g5
(S'r34g09mevtah3jp85i86fdbu38781gjn39s3i8'
p3192
tp3193
Rp3194
sg1
((dp3195
I0
I184
sI1
I3
sI2
tp3196
Rp3197
g5
(S'-51etkgo0j1aq18i3kju32ndsc9i6vqmk'
p3198
tp3199
Rp3200
sg1
((dp3201
I0
I83
sI1
I1
sI2
tp3202
Rp3203
g5
(S'-i29rb7p1n1g79kqdbnstt37la1rbcpjhgombosu7mi3t28qn6o7mvhrvbgq91v28i3ncft8'
p3204
tp3205
Rp3206
sg1
((dp3207
I0
I90
sI2
tp3208
Rp3209
g5
(S'3gkpce1i691ro439vavq4fo9m912bpsnocl75ut2fg6buemro0kir6cnd5caivfs8f1l4o2pnt6'
p3210
tp3211
Rp3212
sg1
((dp3213
I0
I35
sI1
I5
sI2
tp3214
Rp3215
g5
(S'dn3p4btjhfuq2nnlehutrujg0sen07qkqp7urn23anrb1rl2i'
p3216
tp3217
Rp3218
sg1
((dp3219
I0
I151
sI1
I4
sI2
tp3220
Rp3221
g5
(S'-psp5l9pehesrrubdjptepsean7am7hv9erjdrb20an71u6hp2'
p3222
tp3223
Rp3224
sg1
((dp3225
I0
I22
sI1
I9
sI2
tp3226
Rp3227
g5
(S'bg4qrbb73tkk'
p3228
tp3229
Rp3230
sg1
((dp3231
I0
I173
sI2
tp3232
Rp3233
g5
(S'-2ndu0i4lr3b6dleae352g04oqaps6pcguk2cd61u9qhldeecbe5da'
p3234
tp3235
Rp3236
sg1
((dp3237
I0
I105
sI1
I1
sI2
tp3238
Rp3239
g5
(S'-2k385vfes4f9q50orc1lricmlv07qccjnkvlth1fbmp5frspa265l0ho7pfa661c1qd667s'
p3240
tp3241
Rp3242
sg1
((dp3243
I0
I57
sI1
I5
sI2
tp3244
Rp3245
g5
(S'11e0he4j6206tm2d23ilq4oeq0uctqtb4t91i9m515p3icqvbscd0'
p3246
tp3247
Rp3248
sg1
((dp3249
I0
I173
sI1
I4
sI2
tp3250
Rp3251
g5
(S'-d533bar9226erhbq4ddpimoctevlm55fq8'
p3252
tp3253
Rp3254
sg1
((dp3255
I0
I127
sI1
I1
sI2
tp3256
Rp3257
g5
(S'-9tma2uimpkhvkpp16dm5pekm5950h3gl1aarg11vnlit75tpn2gpco9dqinu4vt6qsu0'
p3258
tp3259
Rp3260
sg1
((dp3261
I0
I175
sI2
tp3262
Rp3263
g5
(S'-pturec1tebb5fbts70cv1tcmjplh48id0jbpsaq1cqjrt3qakn2'
p3264
tp3265
Rp3266
sg1
((dp3267
I0
I195
sI1
I4
sI2
tp3268
Rp3269
g5
(S'-1l4dho'
p3270
tp3271
Rp3272
sg1
((dp3273
I0
I16
sI1
I4
sI2
tp3274
Rp3275
g5
(S'2gcbqf4s41uroecuabcksms6alfou5t0d6pvub29t3jntrg'
p3276
tp3277
Rp3278
sg1
((dp3279
I0
I31
sI1
I9
sI2
tp3280
Rp3281
g5
(S'5ejfvgc'
p3282
tp3283
Rp3284
sg1
((dp3285
I0
I149
sI1
I1
sI2
tp3286
Rp3287
g5
(S'-6iqokvpb5ec9ehvoift408j1hhn4bpnbboket5alcsoc0o6oqt688u0iqni7m6'
p3288
tp3289
Rp3290
sg1
((dp3291
I0
I76
sI2
tp3292
Rp3293
g5
(S'eksal6oc51jbcn8c9rus43hkh40gm3smt1jnl25pjdl6o702mf7pjiounqslbjb4tu4ek1vcmg'
p3294
tp3295
Rp3296
sg1
((dp3297
I0
I101
sI1
I5
sI2
tp3298
Rp3299
g5
(S'-2fje8geuq1pqrskf5g6dbs0hbl7ftuu8hvb7lh54uqgtgcgi0le'
p3300
tp3301
Rp3302
sg1
((dp3303
I0
I38
sI1
I4
sI2
tp3304
Rp3305
g5
(S'1ejhef2vrtprh6otqkgst3bjhut5f8g0qpgap0c45ql00sgcs6t8br02'
p3306
tp3307
Rp3308
sg1
((dp3309
I0
I171
sI1
I1
sI2
tp3310
Rp3311
g5
(S'1b5taiknfk2depv09u5a623ue888ugd7bevu0lei9i0rpv6n525e'
p3312
tp3313
Rp3314
sg1
((dp3315
I0
I7
sI1
I2
sI2
tp3316
Rp3317
g5
(S'-er5b3egudpj1ldgbrmko0aj6qkocdv4l7gh0000000000'
p3318
tp3319
Rp3320
sg1
((dp3321
I0
I123
sI1
I5
sI2
tp3322
Rp3323
g5
(S'-aea5qrhk0sgp7pb8e0hsu64ksfoe1ms79n0n6vig3ktva'
p3324
tp3325
Rp3326
sg1
((dp3327
I0
I60
sI1
I4
sI2
tp3328
Rp3329
g5
(S'-dma70pjtkc46l5hebi6vlrppkn6bdhj5b0oak6c388jn0psl0kpqbq9mgpu'
p3330
tp3331
Rp3332
sg1
((dp3333
I0
I161
sI2
tp3334
Rp3335
g5
(S'-74fqe1dgedq88snv3ngijeavlr3j0k5f6qi7tc9val83nqspf1ojcakopgq'
p3336
tp3337
Rp3338
sg1
((dp3339
I0
I193
sI1
I1
sI2
tp3340
Rp3341
g5
(S'6j3cht80difmueb1da7lo6vadlreu'
p3342
tp3343
Rp3344
sg1
((dp3345
I0
I12
sI1
I8
sI2
tp3346
Rp3347
g5
(S'3rarb14iecjaj0tsmncuojt24'
p3348
tp3349
Rp3350
sg1
((dp3351
I0
I29
sI1
I2
sI2
tp3352
Rp3353
g5
(S'-17oqt1eutbmr3d0ioko80vuomqcsh960vjv53jiruj204a6ffs3q7fktftdg'
p3354
tp3355
Rp3356
sg1
((dp3357
I0
I14
sI1
I1
sI2
tp3358
Rp3359
g5
(S'4j9du02j56rl092hn06f5hpo4thl4l3002vg82oj1ld7s00000000'
p3360
tp3361
Rp3362
sg1
((dp3363
I0
I145
sI1
I5
sI2
tp3364
Rp3365
g5
(S'-31i9uu3pfu7asqlc3q9lffcgql20t1j0'
p3366
tp3367
Rp3368
sg1
((dp3369
I0
I62
sI2
tp3370
Rp3371
g5
(S'2u1nuopgkkto2h0h0jkl3jvrnti7n7u0p79n9gkp9ghru3obup1vf0inr5cf3na26d82o8hnm'
p3372
tp3373
Rp3374
sg1
((dp3375
I0
I82
sI1
I4
sI2
tp3376
Rp3377
g5
(S'3jbnkb62hvie5lqr5jlmtsf6a41mrcjnjgslbi50q3hbav77aft8l6km1kf2c'
p3378
tp3379
Rp3380
sg1
((dp3381
I0
I51
sI1
I2
sI2
tp3382
Rp3383
g5
(S'-1s1rmm9qkt2264oof5dk1htrq120g3rndj6ldhrva6j3vs4kofi394f3h4okm2hhiek'
p3384
tp3385
Rp3386
sg1
((dp3387
I0
I36
sI1
I1
sI2
tp3388
Rp3389
g5
(S'-3ask1fgptcnjcivinuhjbijominr2298otmnprp44ftbupvlqd8iuv6pua4gbp180'
p3390
tp3391
Rp3392
sg1
((dp3393
I0
I3
sI1
I6
sI2
tp3394
Rp3395
g5
(S'-hbff7t5k9nh0c1q54j3sfq6fh2ko0'
p3396
tp3397
Rp3398
sg1
((dp3399
I0
I104
sI1
I4
sI2
tp3400
Rp3401
g5
(S'-v4b6c5t01dboikaag2ibf2nv762ahmjrn1l8bqlaqtvq6u4gab3piph0f9gq'
p3402
tp3403
Rp3404
sg1
((dp3405
I0
I56
sI1
I8
sI2
tp3406
Rp3407
g5
(S'4es5p9tfscqc680bu'
p3408
tp3409
Rp3410
sg1
((dp3411
I0
I73
sI1
I2
sI2
tp3412
Rp3413
g5
(S'-1tipdr7l7j6o9b52u2bb3d9g7gtm59nfchuijgerdge5o9c41c88fmpj8t7opev0coisog'
p3414
tp3415
Rp3416
sg1
((dp3417
I0
I58
sI1
I1
sI2
tp3418
Rp3419
g5
(S'-i5lfc1s8alb72kv3d22a4orkcuunmfo635hbjci7p208qd1kpbbupms9qor5aj59kbdbfm'
p3420
tp3421
Rp3422
sg1
((dp3423
I0
I25
sI1
I6
sI2
tp3424
Rp3425
g5
(S'-3tpbvqjmfgcqns922ia1ge4setdm10brlo5denj8d0'
p3426
tp3427
Rp3428
sg1
((dp3429
I0
I10
sI1
I5
sI2
tp3430
Rp3431
g5
(S'5906rhdtpgf51ccoa06j8j2ovo16gniqhtocl0'
p3432
tp3433
Rp3434
sg1
((dp3435
I0
I126
sI1
I4
sI2
tp3436
Rp3437
g5
(S'ebnacgbqqbfanglegi5po8quh52n81n0j52okdbn9kkht84hqmcvmedmtc'
p3438
tp3439
Rp3440
sg1
((dp3441
I0
I147
sI2
tp3442
Rp3443
g5
(S'-3doojc8mlqui8btkcsc031s9dv97ntlj27288rub577575slqf2k2frc3ldpfr2nm'
p3444
tp3445
Rp3446
sg1
((dp3447
I0
I95
sI1
I2
sI2
tp3448
Rp3449
g5
(S'-mfaji2p4ot2f4h9nbrv3iu347ktmt7gctoiiftf9ldn9u2bmbu3i013cipedvtjk36guc'
p3450
tp3451
Rp3452
sg1
((dp3453
I0
I80
sI1
I1
sI2
tp3454
Rp3455
g5
(S'-260mvvel48a2rf72kec9po1crn8k365vbem195rphmumfofbm1ebfb71uufkpuacpf0mscp2'
p3456
tp3457
Rp3458
sg1
((dp3459
I0
I48
sI2
tp3460
Rp3461
g5
(S'gnj14me2v0nd6jmn8bnqun6osmp32j3diif6jhf42cc4np35bgdklq5fq7dscia3g9dmo0'
p3462
tp3463
Rp3464
sg1
((dp3465
I0
I47
sI1
I6
sI2
tp3466
Rp3467
g5
(S'-2ueqgjk21029qjn5mu7g3f4jv1e300orps6reavn1u5eio'
p3468
tp3469
Rp3470
sg1
((dp3471
I0
I32
sI1
I5
sI2
tp3472
Rp3473
g5
(S'-9l7fq3o1g4ejpber3o4vn0jin4gikqmmt7b8lcg783h8f0of0'
p3474
tp3475
Rp3476
sg1
((dp3477
I0
I148
sI1
I4
sI2
tp3478
Rp3479
g5
(S'3s9bks79fq4o24ssdmdn9utunc37bosldk104o0t5u9sdo50jls'
p3480
tp3481
Rp3482
sg1
((dp3483
I0
I8
sI2
tp3484
Rp3485
g5
(S'64eekse3kliuv5bcacp58oo0718dtu72brf8o00000000000000'
p3486
tp3487
Rp3488
sg1
((dp3489
I0
I1
sI1
I3
sI2
tp3490
Rp3491
g5
(S'g56h4nsghoe9u2ccaol72dd34p00000000000'
p3492
tp3493
Rp3494
sg1
((dp3495
I0
I117
sI1
I2
sI2
tp3496
Rp3497
g5
(S'-6okk0eba0vv76rkqjlm139ippb9furs8qvn8kergf0e615s013jd5cjkoioos5tcd8'
p3498
tp3499
Rp3500
sg1
((dp3501
I0
I102
sI1
I1
sI2
tp3502
Rp3503
g5
(S'aumus0iq1biv82jpl0b8qmsm8qk6b6rcjtc9j8vanfvdrndre4ne5j6ts6u4glmcf2a12jq'
p3504
tp3505
Rp3506
sg1
((dp3507
I0
I69
sI1
I6
sI2
tp3508
Rp3509
g5
(S'-1l42buu60ie2uqgfk2j570r8okrt8eq2q9i5nhc7198l0'
p3510
tp3511
Rp3512
sg1
((dp3513
I0
I54
sI1
I5
sI2
tp3514
Rp3515
g5
(S'-6v75igpn6ju15umocrnbc1gfgpgbirm4bsn1vlm64v8hu2ehq7n70'
p3516
tp3517
Rp3518
sg1
((dp3519
I0
I170
sI1
I4
sI2
tp3520
Rp3521
g5
(S'3si4rslv0q33mq9piln028bqb532m317khbmo'
p3522
tp3523
Rp3524
sg1
((dp3525
I0
I8
sI1
I2
sI2
tp3526
Rp3527
g5
(S'bpq8pdncq947g8abe6mm4i10tikerl6sb03kbg00000000'
p3528
tp3529
Rp3530
sg1
((dp3531
I0
I23
sI1
I3
sI2
tp3532
Rp3533
g5
(S'-egabv23e58cgejfi8ghqmpequnh8torp9pk8jmahq8auobg2arcg0'
p3534
tp3535
Rp3536
sg1
((dp3537
I0
I139
sI1
I2
sI2
tp3538
Rp3539
g5
(S'-1ffefm6i84t9j6dchdcr5kqbn1lbipb3rclaj2ns672169h3i8uuk9thblndsn8'
p3540
tp3541
Rp3542
sg1
((dp3543
I0
I124
sI1
I1
sI2
tp3544
Rp3545
g5
(S'1sl41shqn51a8527s9um577vl7h3b3124o0omgd82785tifcr592e2ris5nbb5fo19rj8'
p3546
tp3547
Rp3548
sg1
((dp3549
I0
I133
sI2
tp3550
Rp3551
g5
(S'-7j4tf846fmg0f179h0a7fffab9los4is5obaip6vvivssm2j41jukob375gjs9k5f6dji'
p3552
tp3553
Rp3554
sg1
((dp3555
I0
I25
sI1
I8
sI2
tp3556
Rp3557
g5
(S'-1olqe19uf98viu9cqt9j26l6kao'
p3558
tp3559
Rp3560
sg1
((dp3561
I0
I91
sI1
I6
sI2
tp3562
Rp3563
g5
(S'-250cuki6la8s9h2dov81baurj13ru6jpt5fulqs8'
p3564
tp3565
Rp3566
sg1
((dp3567
I0
I76
sI1
I5
sI2
tp3568
Rp3569
g5
(S'uuqsfj93aik7oac3jq4ldmojph8vclme022khvbhmeucuncornf3s'
p3570
tp3571
Rp3572
sg1
((dp3573
I0
I192
sI1
I4
sI2
tp3574
Rp3575
g5
(S'46l5je14kc0'
p3576
tp3577
Rp3578
sg1
((dp3579
I0
I28
sI1
I9
sI2
tp3580
Rp3581
g5
(S'67o9917ko'
p3582
tp3583
Rp3584
sg1
((dp3585
I0
I30
sI1
I2
sI2
tp3586
Rp3587
g5
(S'5p3shie4k8it9epmg3o2be88598c5lmo88mk7ricv12m7vhr4rpbp0huk6hc'
p3588
tp3589
Rp3590
sg1
((dp3591
I0
I45
sI1
I3
sI2
tp3592
Rp3593
g5
(S'vpflgisq2l57vm575d4tq4mtc8e0lrbm7jm0948emf7csju08ljm25hvd7gj8'
p3594
tp3595
Rp3596
sg1
((dp3597
I0
I161
sI1
I2
sI2
tp3598
Rp3599
g5
(S'-37t1vbmnh0sv9skbaa156qddfehmi2vc1im5ilde71vb02mv41utuh8'
p3600
tp3601
Rp3602
sg1
((dp3603
I0
I146
sI1
I1
sI2
tp3604
Rp3605
g5
(S'78ekhscqrne5roqh2uodvnq6jdjirs5pih0554e0nhilb913tjo1csllg4pcb66'
p3606
tp3607
Rp3608
sg1
((dp3609
I0
I113
sI1
I6
sI2
tp3610
Rp3611
g5
(S'-31hoc983ur05v15ru3comrbqhkutuvg'
p3612
tp3613
Rp3614
sg1
((dp3615
I0
I98
sI1
I5
sI2
tp3616
Rp3617
g5
(S'-ljg9q6il2vlum7ek2d7tqsop41aheuartkt9gsj45576ddhgtbi'
p3618
tp3619
Rp3620
sg1
((dp3621
I0
I52
sI1
I2
sI2
tp3622
Rp3623
g5
(S'3uplq45edupsigalms6vs876h8ihfe9o9erhqkg7up4nu1h1n2cpks738eui55t1oh8'
p3624
tp3625
Rp3626
sg1
((dp3627
I0
I67
sI1
I3
sI2
tp3628
Rp3629
g5
(S'rmhhg3ndh6gp772uvjenp46noq0ndcbr78jgslp5larf9vqc95ba20fut2al8gbc'
p3630
tp3631
Rp3632
sg1
((dp3633
I0
I183
sI1
I2
sI2
tp3634
Rp3635
g5
(S'-3del31589smjatqa5funpeft47j548foja4n1vp0'
p3636
tp3637
Rp3638
sg1
((dp3639
I0
I168
sI1
I1
sI2
tp3640
Rp3641
g5
(S'fvaqokijkpslb20cg7gam21uk94fn8s811d1kbrijnd0hsia7rnbc'
p3642
tp3643
Rp3644
sg1
((dp3645
I0
I4
sI1
I6
sI2
tp3646
Rp3647
g5
(S'cg8jfo73rpqqks25el1cdfoj8u4ip0'
p3648
tp3649
Rp3650
sg1
((dp3651
I0
I19
sI1
I7
sI2
tp3652
Rp3653
g5
(S'-1hsmef33gigske9pk553ooluijbh2u4dqo'
p3654
tp3655
Rp3656
sg1
((dp3657
I0
I120
sI1
I5
sI2
tp3658
Rp3659
g5
(S'7tq3nfqsomnhd7f7upojn4jh4qusqcspdtqtfs548ljae6'
p3660
tp3661
Rp3662
sg1
((dp3663
I0
I74
sI1
I2
sI2
tp3664
Rp3665
g5
(S'2al8vqf09090ntl5cv588clh6qjurvmoojmg48ad7furkhcfv3flcgv6cl6ah2cnj33l64'
p3666
tp3667
Rp3668
sg1
((dp3669
I0
I89
sI1
I3
sI2
tp3670
Rp3671
g5
(S'abfm7i8f6b9dt1e3rl07ojali57ivahpj75eba4bved8p7pbq2ieoej0tjncs8m3o'
p3672
tp3673
Rp3674
sg1
((dp3675
I0
I119
sI2
tp3676
Rp3677
g5
(S'-glha3l6cekktk5tlv1b9of05hau465sm5bgcs4337p5c1u4q09lgn8ovnnbkilgvgk6i5rb8'
p3678
tp3679
Rp3680
sg1
((dp3681
I0
I190
sI1
I1
sI2
tp3682
Rp3683
g5
(S'-127hua416fjci3pad98094ueaglfarrcv8k'
p3684
tp3685
Rp3686
sg1
((dp3687
I0
I26
sI1
I6
sI2
tp3688
Rp3689
g5
(S'c2ach90ba48q43r0q39gsu8urcvpop8d6tcthuuue8'
p3690
tp3691
Rp3692
sg1
((dp3693
I0
I41
sI1
I7
sI2
tp3694
Rp3695
g5
(S'14c60ecebdktn0sh74q7kc3som8ahbul5n4hg'
p3696
tp3697
Rp3698
sg1
((dp3699
I0
I142
sI1
I5
sI2
tp3700
Rp3701
g5
(S'-19e9qh13gal93sj93s6sbj22seiad5p2di6'
p3702
tp3703
Rp3704
sg1
((dp3705
I0
I20
sI2
tp3706
Rp3707
g5
(S'nh49vooqqkdkedaoojir7rh35gb718eirt0fsf7pdk5sg5l9an000000000'
p3708
tp3709
Rp3710
sg1
((dp3711
I0
I96
sI1
I2
sI2
tp3712
Rp3713
g5
(S'ghfc218ciq0e91afplvavn8p2imclp7b422ba31g06kkg4cft0khgv0sec3iiafv9hsoo'
p3714
tp3715
Rp3716
sg1
((dp3717
I0
I111
sI1
I3
sI2
tp3718
Rp3719
g5
(S'-bfeuaj40rrfi6g95q29ln3bttmk7j51l2ogcratrlb2d877sjpvlor4eub8i78hc'
p3720
tp3721
Rp3722
sg1
((dp3723
I0
I48
sI1
I6
sI2
tp3724
Rp3725
g5
(S'3cf1cmlbc51ielq1s8nrrmq61clucj4lg8nhpnscal0a28'
p3726
tp3727
Rp3728
sg1
((dp3729
I0
I63
sI1
I7
sI2
tp3730
Rp3731
g5
(S'87jnrjr9ur7u80junp2k1u9c5vo00qeo0'
p3732
tp3733
Rp3734
sg1
((dp3735
I0
I164
sI1
I5
sI2
tp3736
Rp3737
g5
(S'82i'
p3738
tp3739
Rp3740
sg1
((dp3741
I0
I34
sI2
tp3742
Rp3743
g5
(S'94qvhqoe0ttborf5urif32ng0scvo2fermjd3a1o0cbhtoh4fl815m38c8btg80000'
p3744
tp3745
Rp3746
sg1
((dp3747
I1
I10
sI2
tp3748
Rp3749
g5
(S'44'
p3750
tp3751
Rp3752
sg1
((dp3753
I0
I2
sI1
I3
sI2
tp3754
Rp3755
g5
(S'-obicf3uefd6rciqki7qpfdc626mco000000000'
p3756
tp3757
Rp3758
sg1
((dp3759
I0
I118
sI1
I2
sI2
tp3760
Rp3761
g5
(S'2ffpuatol36n1nbeonpbuvv8kvt7eodtt3pl52mhstgrsqrlm12j6gfs4iojk7cgb8'
p3762
tp3763
Rp3764
sg1
((dp3765
I0
I133
sI1
I3
sI2
tp3766
Rp3767
g5
(S'7mfncv59249788ja487ek60cv44muu78shb8ugvmhhke12ji5e02gqcpioq8'
p3768
tp3769
Rp3770
sg1
((dp3771
I0
I70
sI1
I6
sI2
tp3772
Rp3773
g5
(S'ubrid1ldsu3f86dhb53kktj659tu2ehn47ojh0m9jn8o'
p3774
tp3775
Rp3776
sg1
((dp3777
I0
I85
sI1
I7
sI2
tp3778
Rp3779
g5
(S'movsge71mkmikn1of62kf2g'
p3780
tp3781
Rp3782
sg1
((dp3783
I0
I105
sI2
tp3784
Rp3785
g5
(S'-b697aseunmqi1cn72ugsfsj81jv7bqlq7ufuc1p0snkkhknvjv6dmvurr3t43sjqa2ortm5r0i'
p3786
tp3787
Rp3788
sg1
((dp3789
I0
I24
sI1
I3
sI2
tp3790
Rp3791
g5
(S'1bfc50ql3cfi4aujds6638qbouv1cm6ekqjjb9ujleln6ed13ap8dg'
p3792
tp3793
Rp3794
sg1
((dp3795
I0
I140
sI1
I2
sI2
tp3796
Rp3797
g5
(S'ke03cajdns4r7ehqru4q1a5kfeqtm0e1ci88l6p2alqefhcsr4r7tdr7ujo1kc'
p3798
tp3799
Rp3800
sg1
((dp3801
I0
I155
sI1
I3
sI2
tp3802
Rp3803
g5
(S'3pmvc3050d94tnhme8kof5mk9t8a8rb9ua0mloi2est5lje8pqdu8'
p3804
tp3805
Rp3806
sg1
((dp3807
I0
I1
sI2
tp3808
Rp3809
g5
(S'da63621vmk97dmfb3eked8nhu0000000000000000000'
p3810
tp3811
Rp3812
sg1
((dp3813
I0
I92
sI1
I6
sI2
tp3814
Rp3815
g5
(S'2p9ikncjhe1pa5opm5c3tcdl1ki4q2uadj6v3ca8'
p3816
tp3817
Rp3818
sg1
((dp3819
I0
I46
sI1
I3
sI2
tp3820
Rp3821
g5
(S'-1tekquduurh26l5em4r8sd71rg6t0egm553pbhogonpcm57p4jhu8vdqi5s1ms'
p3822
tp3823
Rp3824
sg1
((dp3825
I0
I162
sI1
I2
sI2
tp3826
Rp3827
g5
(S'j5p55n30c9chfuqup635s9o5otntjmk5q9a0hqgfbqjdila0r8gl0g'
p3828
tp3829
Rp3830
sg1
((dp3831
I0
I177
sI1
I3
sI2
tp3832
Rp3833
g5
(S'1ppl2gk1t9fcthvtprm4ig9fa783v286k8fpst0'
p3834
tp3835
Rp3836
sg1
((dp3837
I0
I114
sI1
I6
sI2
tp3838
Rp3839
g5
(S'9dl6hkh00hc9nnm0lejlacts4d71co'
p3840
tp3841
Rp3842
sg1
((dp3843
I0
I13
sI1
I4
sI2
tp3844
Rp3845
g5
(S'-2k7v2q8d6poaucn9vu3cmp276v308f3jj138tp1itiso0'
p3846
tp3847
Rp3848
sg1
((dp3849
I0
I190
sI2
tp3850
Rp3851
g5
(S'e9evo6k75j43blroahvf3dkh3jl5sujk1p3j2'
p3852
tp3853
Rp3854
sg1
((dp3855
I0
I68
sI1
I3
sI2
tp3856
Rp3857
g5
(S'-21ee69jgueqh62uaal9hb3ijdl0l2tdslmv3dr83f21lh6j3029gi5e29vhke1r50'
p3858
tp3859
Rp3860
sg1
((dp3861
I0
I184
sI1
I2
sI2
tp3862
Rp3863
g5
(S'3bmiprlpn19499ode7gol2omg90abhp133a2qj0'
p3864
tp3865
Rp3866
sg1
((dp3867
I0
I20
sI1
I7
sI2
tp3868
Rp3869
g5
(S'66scehnb803mireph846knh2r9pp5inikg'
p3870
tp3871
Rp3872
sg1
((dp3873
I0
I35
sI1
I4
sI2
tp3874
Rp3875
g5
(S'-33pnql4q3qs8mt2d3tomsdinvk0v8u6fvostve6jik4c8ifdj8kik5u'
p3876
tp3877
Rp3878
sg1
((dp3879
I0
I91
sI2
tp3880
Rp3881
g5
(S'-3ftctu58vivn6ojut94m7b0otk96588ttl3pdig5lj4elisu21j9hjof25lotr38bffbui8ve7m'
p3882
tp3883
Rp3884
sg1
((dp3885
I0
I22
sI1
I8
sI2
tp3886
Rp3887
g5
(S'16lu3mgm22s9ckrrnklf61rfmgq'
p3888
tp3889
Rp3890
sg1
((dp3891
I0
I90
sI1
I3
sI2
tp3892
Rp3893
g5
(S'-g99kpr2ga5018m8voeass31kd894imh4e1djrfnl7aetonma3umleejnjlbifb500'
p3894
tp3895
Rp3896
sg1
((dp3897
I0
I42
sI1
I7
sI2
tp3898
Rp3899
g5
(S'-m1rkkdk898j8t9cd0g1rjj3m1ijr99t18b8g'
p3900
tp3901
Rp3902
sg1
((dp3903
I0
I57
sI1
I4
sI2
tp3904
Rp3905
g5
(S'-1o34n0iflautn83ru25fehk0n89ok2aurs2dc6a4uvd0o4vat920jiuidr8'
p3906
tp3907
Rp3908
sg1
((dp3909
I0
I112
sI1
I3
sI2
tp3910
Rp3911
g5
(S'73g7iist4ek4s9cpjeo6pj2vhr6256s23dovbn8839livinhfpctnopnneojovcs'
p3912
tp3913
Rp3914
sg1
((dp3915
I0
I11
sI1
I1
sI2
tp3916
Rp3917
g5
(S'-2qu7fjjaofn5ltrpqe62r49c01lr164bt42q0lig0000000000'
p3918
tp3919
Rp3920
sg1
((dp3921
I0
I64
sI1
I7
sI2
tp3922
Rp3923
g5
(S'-28ag7dk9h103vdvu0f356e6j3plqg83o8'
p3924
tp3925
Rp3926
sg1
((dp3927
I0
I176
sI2
tp3928
Rp3929
g5
(S'22qp3imgefoul4p1d3dsp7rhqis8tgg8ru56auie0o1jggho3ta'
p3930
tp3931
Rp3932
sg1
((dp3933
I0
I31
sI1
I8
sI2
tp3934
Rp3935
g5
(S'-me5dn9gk23qol00uekuamuscuu'
p3936
tp3937
Rp3938
sg1
((dp3939
I0
I134
sI1
I3
sI2
tp3940
Rp3941
g5
(S'-43ggaa2m6k9uv63bi6tdg3i7q2hgaksqo68vpjdefa9vd7gns0tch1iktr7s'
p3942
tp3943
Rp3944
sg1
((dp3945
I0
I33
sI1
I1
sI2
tp3946
Rp3947
g5
(S'2717n2sbh0o7co5fst66orejt1qk8ijtgm8urocgoi2veas9l73t70gjt6skkg00'
p3948
tp3949
Rp3950
sg1
((dp3951
I0
I77
sI2
tp3952
Rp3953
g5
(S'-j4hdvi2gndumffieumal7m3iavres6dppqklo4a8a0fnfvidcgen2ctk0gtc9qloo8m8rloqes'
p3954
tp3955
Rp3956
sg1
((dp3957
I0
I86
sI1
I7
sI2
tp3958
Rp3959
g5
(S'-359q4jgosgbl3292tb6iobg'
p3960
tp3961
Rp3962
sg1
((dp3963
I0
I101
sI1
I4
sI2
tp3964
Rp3965
g5
(S'-1h9p5c28bs2vlafr0scq00iei5mdlfmaeftniq8qc9rbphmkqiotrdv7br0co'
p3966
tp3967
Rp3968
sg1
((dp3969
I0
I156
sI1
I3
sI2
tp3970
Rp3971
g5
(S'-ln5nn7ho9m61lrmsf48urocod2ibktrlp1qu1tm8qku00ecm83l4'
p3972
tp3973
Rp3974
sg1
((dp3975
I0
I55
sI1
I1
sI2
tp3976
Rp3977
g5
(S'358clfekeid4d60urrc28shtmvro38netoskl6uej392aoonrpkiqkorjpho3o97ptla1g'
p3978
tp3979
Rp3980
sg1
((dp3981
I0
I7
sI1
I5
sI2
tp3982
Rp3983
g5
(S'-150a7udrf6cc4mrcso5mngt0drj560rsaq00'
p3984
tp3985
Rp3986
sg1
((dp3987
I0
I123
sI1
I4
sI2
tp3988
Rp3989
g5
(S'-3g0470ehhnc1bl2aikm52q1oum3rts1d9l2lr9roai373a6eues2safjalq'
p3990
tp3991
Rp3992
sg1
((dp3993
I0
I178
sI1
I3
sI2
tp3994
Rp3995
g5
(S'-1lftc3udh76oc7364mlljftme4tvi0h1tu9qbs'
p3996
tp3997
Rp3998
sg1
((dp3999
I0
I77
sI1
I1
sI2
tp4000
Rp4001
g5
(S'3gg6srl8a2dkqnjdukc02u80vucji4l6arp9dt6b0jon2se3vpmf7pv3c2m3adk2u14e9lpi'
p4002
tp4003
Rp4004
sg1
((dp4005
I0
I162
sI2
tp4006
Rp4007
g5
(S'1e4vvhnvo8sf9ijlv0j6old7dcbm8kgik1q4k1f5910mrioupg63i3gqjva'
p4008
tp4009
Rp4010
sg1
((dp4011
I0
I29
sI1
I5
sI2
tp4012
Rp4013
g5
(S'jn63eilcjfq680c7e8u61qm2r4p1fn03f3uef6miaa17hpr0'
p4014
tp4015
Rp4016
sg1
((dp4017
I0
I145
sI1
I4
sI2
tp4018
Rp4019
g5
(S'-cd0p650jtn7kg4vlpndesku2m7o945sh192g0e83ddgm7pa4era2'
p4020
tp4021
Rp4022
sg1
((dp4023
I0
I30
sI1
I9
sI2
tp4024
Rp4025
g5
(S'-ad8ue79o'
p4026
tp4027
Rp4028
sg1
((dp4029
I0
I63
sI2
tp4030
Rp4031
g5
(S'-4j6p7176p1qcqk2i84tru9auftseslrrefphi7kqsk0t54ju5ib4rgrm1ih42mcjh5kuchbc0'
p4032
tp4033
Rp4034
sg1
((dp4035
I0
I99
sI1
I1
sI2
tp4036
Rp4037
g5
(S'-115iea9be0cus5jb7k8q9sqlpjue96rg8tdpoi66jla5a2c1r78gqldip27skqdhbvv4n044'
p4038
tp4039
Rp4040
sg1
((dp4041
I0
I51
sI1
I5
sI2
tp4042
Rp4043
g5
(S'2jh5jhf7i6e354bae04idlm5vvo84afm9d7a9r7ip01leeh2nmgbg'
p4044
tp4045
Rp4046
sg1
((dp4047
I0
I167
sI1
I4
sI2
tp4048
Rp4049
g5
(S'-hlv00l7700tp3trds6dl2fb941gmb4lp2rf5pa8'
p4050
tp4051
Rp4052
sg1
((dp4053
I0
I3
sI1
I9
sI2
tp4054
Rp4055
g5
(S'-flponm56kj40'
p4056
tp4057
Rp4058
sg1
((dp4059
I0
I121
sI1
I1
sI2
tp4060
Rp4061
g5
(S'-8ndtjdmb9p3t3lc4ars0hropshdt70o82pqeu1u6v1vsdmol2bshha50l7ei30ef8ide6'
p4062
tp4063
Rp4064
sg1
((dp4065
I0
I73
sI1
I5
sI2
tp4066
Rp4067
g5
(S'qkp4qs3045lr6ohu4dhk7p7uvubmv08kaopjihlvr1q065vv2mcau'
p4068
tp4069
Rp4070
sg1
((dp4071
I0
I189
sI1
I4
sI2
tp4072
Rp4073
g5
(S'-17j4pr3r99c3rssm'
p4074
tp4075
Rp4076
sg1
((dp4077
I0
I10
sI1
I4
sI2
tp4078
Rp4079
g5
(S'j1uctodtcs2om7qpgm18o3a1mfu6toqnma32602k00'
p4080
tp4081
Rp4082
sg1
((dp4083
I0
I148
sI2
tp4084
Rp4085
g5
(S'118m98tuq0u9u97vd7oqtpp2e59bkbhfh6264qojhcpmhpup8ql9dclh53hqq7pci'
p4086
tp4087
Rp4088
sg1
((dp4089
I0
I143
sI1
I1
sI2
tp4090
Rp4091
g5
(S'-70c69ss0j13g78gs0a63al6nu6jhuo8idshre5jfd71tbqeets8ets2omlt7cmi2'
p4092
tp4093
Rp4094
sg1
((dp4095
I0
I95
sI1
I5
sI2
tp4096
Rp4097
g5
(S'6fmk628epl66uvt3i7ocl9ec1l9p7cv5fl44a23t1c82mufv4p7k'
p4098
tp4099
Rp4100
sg1
((dp4101
I0
I49
sI2
tp4102
Rp4103
g5
(S'-14sgbuvp24m0q7ctfp6nv9mjuhofdr4ea2qn7mc8f9gojds7ncgthpirbkervh9m6pj4d80'
p4104
tp4105
Rp4106
sg1
((dp4107
I0
I32
sI1
I4
sI2
tp4108
Rp4109
g5
(S'49t4i0mvokhnge2pv0etf70a4hm7p1orolfo2c5go7qv2iuam354la'
p4110
tp4111
Rp4112
sg1
((dp4113
I0
I165
sI1
I1
sI2
tp4114
Rp4115
g5
(S'-bs9kofoohalktuan0a2ugfnf2m032744qjd13pa3iolh8h624t4t5ae'
p4116
tp4117
Rp4118
sg1
((dp4119
I0
I1
sI1
I2
sI2
tp4120
Rp4121
g5
(S'-4qkmeoobb9ab3heapcnibo3llvk0000000000000'
p4122
tp4123
Rp4124
sg1
((dp4125
I0
I117
sI1
I5
sI2
tp4126
Rp4127
g5
(S'8riis8jkd56lcrleo71vvu0qeuvgaobu3h2lchim5p8tbuu'
p4128
tp4129
Rp4130
sg1
((dp4131
I0
I54
sI1
I4
sI2
tp4132
Rp4133
g5
(S'17ivotk24u29hketi9e0652gqcofens1eum0pupa54ij4rqbehgska3d7uo'
p4134
tp4135
Rp4136
sg1
((dp4137
I0
I187
sI1
I1
sI2
tp4138
Rp4139
g5
(S'-7pjr077i03cbamqmdca5l9ob9uog3tr6iqk7js'
p4140
tp4141
Rp4142
sg1
((dp4143
I0
I23
sI1
I2
sI2
tp4144
Rp4145
g5
(S'-151dcl8dhd60kn55qt9botm4kcc91829frfbcmni31k6t8q5okp10bg00'
p4146
tp4147
Rp4148
sg1
((dp4149
I0
I8
sI1
I1
sI2
tp4150
Rp4151
g5
(S'-fbju8s987nbki1u5pnoadi61204iu83limg6g00000000000'
p4152
tp4153
Rp4154
sg1
((dp4155
I0
I139
sI1
I5
sI2
tp4156
Rp4157
g5
(S'-1h1oehnrimmrjtqtlv1apsvemj21upsjdamq8'
p4158
tp4159
Rp4160
sg1
((dp4161
I0
I134
sI2
tp4162
Rp4163
g5
(S'2rvkaqjqt4njm7o3itnc8fidd9h2fp9fc7stoncgfat1et88qrn8r3g81qfapbugei70q'
p4164
tp4165
Rp4166
sg1
((dp4167
I0
I76
sI1
I4
sI2
tp4168
Rp4169
g5
(S'-22pnn4psolt1el2lekm0j6atbp503fai1aohh103t81uf9piacp5hg11b0coa'
p4170
tp4171
Rp4172
sg1
((dp4173
I0
I28
sI1
I8
sI2
tp4174
Rp4175
g5
(S'1f5vob6j083rqa7a39bo1shpisi'
p4176
tp4177
Rp4178
sg1
((dp4179
I0
I45
sI1
I2
sI2
tp4180
Rp4181
g5
(S'-bpsac6dtl0ghip1e07a2a6ovra86l4l8kgrgjtllv5amnmrgdn7po014lghbpkqd8'
p4182
tp4183
Rp4184
sg1
((dp4185
I0
I30
sI1
I1
sI2
tp4186
Rp4187
g5
(S'-vsonqms98tk4j7477rqftvsnvfptonkk26merjop8cdkip4pk6cv7q1kpfig00'
p4188
tp4189
Rp4190
sg1
((dp4191
I0
I161
sI1
I5
sI2
tp4192
Rp4193
g5
(S'1rgeuovku0rq6'
p4194
tp4195
Rp4196
sg1
((dp4197
I0
I98
sI1
I4
sI2
tp4198
Rp4199
g5
(S'43vmc6vvqn51ndvmrl60htn4lajvmr22jt0hhpa9tmdo1sfkuj4h2irv8hlme'
p4200
tp4201
Rp4202
sg1
((dp4203
I0
I67
sI1
I2
sI2
tp4204
Rp4205
g5
(S'-br2k81c451ssm6jm1tdu9b0ju3p1dne34dujau3mifs1603tjptdk21d7lgcf41hbn0v4'
p4206
tp4207
Rp4208
sg1
((dp4209
I0
I52
sI1
I1
sI2
tp4210
Rp4211
g5
(S'-docv7pn5fihkel20pcr6fkh9hk50pceoqk4d8hvetq3990tjmdop2ljg4n4cfeh2867js'
p4212
tp4213
Rp4214
sg1
((dp4215
I0
I19
sI1
I6
sI2
tp4216
Rp4217
g5
(S'-1f4g5nc5qjg3kk9iksls1jt6hec0oi2q0dap1m8g'
p4218
tp4219
Rp4220
sg1
((dp4221
I0
I4
sI1
I5
sI2
tp4222
Rp4223
g5
(S'33e1ru0hmkpiaphpsrt1lu377n5idaj000'
p4224
tp4225
Rp4226
sg1
((dp4227
I0
I120
sI1
I4
sI2
tp4228
Rp4229
g5
(S'iq1s0uhgdmahidn5ds7v7pu0ffvimpiu3fal3b1h9liju4rafug6beaar2e'
p4230
tp4231
Rp4232
sg1
((dp4233
I0
I89
sI1
I2
sI2
tp4234
Rp4235
g5
(S'-2nemr2okonf3ocjuh6rrvol08hk3c942dc2kvtmmqolmg1ev2hna03o5j60macsf8uta60'
p4236
tp4237
Rp4238
sg1
((dp4239
I0
I120
sI2
tp4240
Rp4241
g5
(S'8po5p9fj1s8e2jh22g6o0btek8hnc57saa138fp74ltetnqr0mkmbutldliedd4h4064dk6c'
p4242
tp4243
Rp4244
sg1
((dp4245
I0
I74
sI1
I1
sI2
tp4246
Rp4247
g5
(S'-378n1rah2b2rbhjt6958n04c0s284mu63i648lkpiu5euojn4nb9me4qkaa0fur30asfds2i'
p4248
tp4249
Rp4250
sg1
((dp4251
I0
I41
sI1
I6
sI2
tp4252
Rp4253
g5
(S'-hlq1m09n3sf5m92dmd05i1jn84hehj9mr4cnqc8sj33u0'
p4254
tp4255
Rp4256
sg1
((dp4257
I0
I26
sI1
I5
sI2
tp4258
Rp4259
g5
(S'-hhssl520vej7s3n2bmq4bsf01kk93tsibdshpiqrau3htj0'
p4260
tp4261
Rp4262
sg1
((dp4263
I0
I79
sI1
I6
sI2
tp4264
Rp4265
g5
(S'3vlodfiliv5n8f1jamsqfpt0pv4k19qfq60bode0hg'
p4266
tp4267
Rp4268
sg1
((dp4269
I0
I142
sI1
I4
sI2
tp4270
Rp4271
g5
(S'quvg24tqn5aheljslqefapm9b3t93isnqipq88khfsu6tjjejsive'
p4272
tp4273
Rp4274
sg1
((dp4275
I0
I21
sI2
tp4276
Rp4277
g5
(S'-6akrm51isl3djji6mrr06c721mp134mc4a1ne0fu7rgeet1ipkqg00000000'
p4278
tp4279
Rp4280
sg1
((dp4281
I0
I111
sI1
I2
sI2
tp4282
Rp4283
g5
(S'-e8hhg3sqmbamfd0p1hcfj4ptdrjpp9h91s1je1rqk77s0k4adm96a6hnt1idd1p90ls'
p4284
tp4285
Rp4286
sg1
((dp4287
I0
I96
sI1
I1
sI2
tp4288
Rp4289
g5
(S'2a69eiupm0ol62g6inuho0q81t9idq6o8lfq7rim32h4oj6u028pdepcurbt43td3dgbvm2m'
p4290
tp4291
Rp4292
sg1
((dp4293
I0
I63
sI1
I6
sI2
tp4294
Rp4295
g5
(S'-9lupcptik6ie3l43lcaglmv7s98b1o6kkp72o5bb8soeo'
p4296
tp4297
Rp4298
sg1
((dp4299
I0
I48
sI1
I5
sI2
tp4300
Rp4301
g5
(S'-46quuektudu4sm1ki1vt3l18c46o295lcq4dn3lps2r296eno6tk'
p4302
tp4303
Rp4304
sg1
((dp4305
I0
I164
sI1
I4
sI2
tp4306
Rp4307
g5
(S'1964hip7dhhis0a3p6q88m3l4jrnk6aoo51dtrp6li'
p4308
tp4309
Rp4310
sg1
((dp4311
I1
I9
sI2
tp4312
Rp4313
g5
(S'gqjrldgec4'
p4314
tp4315
Rp4316
sg1
((dp4317
I0
I2
sI1
I2
sI2
tp4318
Rp4319
g5
(S'704b484gd5hhsagis27gvjld6hato000000000000'
p4320
tp4321
Rp4322
sg1
((dp4323
I0
I17
sI1
I3
sI2
tp4324
Rp4325
g5
(S'-an7kbgrk5302h1fcmf39nn4otjo4vh3rif83d0mfjsae21hg00'
p4326
tp4327
Rp4328
sg1
((dp4329
I0
I133
sI1
I2
sI2
tp4330
Rp4331
g5
(S'-3cetsft4anrqd7od4vac0mt1v6po1lqatqk8jt01qsevquevpte8os3rm88nndfg'
p4332
tp4333
Rp4334
sg1
((dp4335
I0
I118
sI1
I1
sI2
tp4336
Rp4337
g5
(S'tntev8cssnbqip94t8o8rpaabjqr4ci725qehmb6hbiek09to82hkt2fomvote9fnrsim'
p4338
tp4339
Rp4340
sg1
((dp4341
I0
I85
sI1
I6
sI2
tp4342
Rp4343
g5
(S'-13anja8tp272jg4b6tr7ptft8sbrto2dqc6n6u76g8'
p4344
tp4345
Rp4346
sg1
((dp4347
I0
I70
sI1
I5
sI2
tp4348
Rp4349
g5
(S'-24a2pr2kvau5r9aoom7anc1bp9fdh7moidtm3ebulfnolut0551ksc'
p4350
tp4351
Rp4352
sg1
((dp4353
I0
I186
sI1
I4
sI2
tp4354
Rp4355
g5
(S'2g3q412tcfbuajndpo3o'
p4356
tp4357
Rp4358
sg1
((dp4359
I0
I106
sI2
tp4360
Rp4361
g5
(S'839dcqagbsjg1hmjhmijqt0sqe7adokos3sgo280me0ajgv3cafmsmlgrrj1kmstq8vq119lo2'
p4362
tp4363
Rp4364
sg1
((dp4365
I0
I24
sI1
I2
sI2
tp4366
Rp4367
g5
(S'7rcmqi9ldgh7no9en0qia4uj66938sdekmjpuav2rpkuqunai7fsvs2o0'
p4368
tp4369
Rp4370
sg1
((dp4371
I0
I39
sI1
I3
sI2
tp4372
Rp4373
g5
(S'5jefraaaol1nti0vfdmd3gpu9v3jlqilene9nouf89d7agok4j1g3ht13f5k'
p4374
tp4375
Rp4376
sg1
((dp4377
I0
I155
sI1
I2
sI2
tp4378
Rp4379
g5
(S'-vc93n98ifrc1tpc905llppi5pcgs3n4q7oodhsdhh230v549gtaob5d0c'
p4380
tp4381
Rp4382
sg1
((dp4383
I0
I140
sI1
I1
sI2
tp4384
Rp4385
g5
(S'5hgj7ip6198kmp5h4b7ihjg3bmce3roqgssm16hs3h3rtbfs7oenl37pma5e2af1s'
p4386
tp4387
Rp4388
sg1
((dp4389
I0
I41
sI1
I8
sI2
tp4390
Rp4391
g5
(S'-sutu02dvho0rgheh2asfes3q'
p4392
tp4393
Rp4394
sg1
((dp4395
I0
I107
sI1
I6
sI2
tp4396
Rp4397
g5
(S'-ga15mu67lgh33tdsq6nljif1k6fh1rstjo'
p4398
tp4399
Rp4400
sg1
((dp4401
I0
I92
sI1
I5
sI2
tp4402
Rp4403
g5
(S'-vtldus6h6g10g97ona5aufgcus998l1npeilsltpkmbl8rl5a2c0'
p4404
tp4405
Rp4406
sg1
((dp4407
I0
I46
sI1
I2
sI2
tp4408
Rp4409
g5
(S'tnco1e6cma0nk4hjv734ouc0lp02uo4c0h23rhkro21vgvk9hetpkcvt37pphgf98'
p4410
tp4411
Rp4412
sg1
((dp4413
I0
I61
sI1
I3
sI2
tp4414
Rp4415
g5
(S'-ck55d9ofqe1o9akikal2if52km6gcrqehi20k9tt8omgqbdnpbhhi4p66mgnct6s'
p4416
tp4417
Rp4418
sg1
((dp4419
I0
I177
sI1
I2
sI2
tp4420
Rp4421
g5
(S'-7367pp1cj5s5ledvigaehfv31v9db09pm1k62gfcae6lo'
p4422
tp4423
Rp4424
sg1
((dp4425
I0
I162
sI1
I1
sI2
tp4426
Rp4427
g5
(S'2ptafltvp9bvrvvio1kcsc4as68bk2b66q3aml141gg35mamqlqtqt5m8'
p4428
tp4429
Rp4430
sg1
((dp4431
I0
I13
sI1
I7
sI2
tp4432
Rp4433
g5
(S'19i8a7opnoavb47jfqs3tlaqva3pra98'
p4434
tp4435
Rp4436
sg1
((dp4437
I0
I129
sI1
I6
sI2
tp4438
Rp4439
g5
(S'-3dmh6d0jqk08'
p4440
tp4441
Rp4442
sg1
((dp4443
I0
I114
sI1
I5
sI2
tp4444
Rp4445
g5
(S'-dlc7tdinr14ueokfaq98qkqsvu9a5gau0glna4h7c4q1sesg'
p4446
tp4447
Rp4448
sg1
((dp4449
I0
I191
sI2
tp4450
Rp4451
g5
(S'2tp7u18kujlg9t6fu2oks0bg11djjpvdnjq'
p4452
tp4453
Rp4454
sg1
((dp4455
I0
I68
sI1
I2
sI2
tp4456
Rp4457
g5
(S'ghfp8ardq95udopf96s1aaj1fh976m9sq35d0l0inamp37g1rgmct5eq9ic1ugo2f3g8c'
p4458
tp4459
Rp4460
sg1
((dp4461
I0
I83
sI1
I3
sI2
tp4462
Rp4463
g5
(S'-s8jt3s3reova6sch89uq7n7if6v7o8in3kdvsti2clmhju6haqqc65k5k47gtv8q8'
p4464
tp4465
Rp4466
sg1
((dp4467
I0
I184
sI1
I1
sI2
tp4468
Rp4469
g5
(S'17vn6colq5jcqbacg7ccdtc28qjaet29ailpk2hitm'
p4470
tp4471
Rp4472
sg1
((dp4473
I0
I20
sI1
I6
sI2
tp4474
Rp4475
g5
(S'6d8nn6ug540v6hcadcr1g25gcdv23766qg5q5h00'
p4476
tp4477
Rp4478
sg1
((dp4479
I0
I35
sI1
I7
sI2
tp4480
Rp4481
g5
(S'12nnd3dgt38ismbm8lcmkei4g13qlmk301cb8'
p4482
tp4483
Rp4484
sg1
((dp4485
I0
I92
sI2
tp4486
Rp4487
g5
(S'3cs6ubv0vee5gsv6f1psj8idiplagpg8tgsrl1fr0r7elgs13rspreilfjl3h34p9o0me6hhsra'
p4488
tp4489
Rp4490
sg1
((dp4491
I0
I136
sI1
I5
sI2
tp4492
Rp4493
g5
(S'11l6m6thtujasiq18fjn0abcvtqu3apu73ma88c'
p4494
tp4495
Rp4496
sg1
((dp4497
I0
I90
sI1
I2
sI2
tp4498
Rp4499
g5
(S'29q0altlid64o9etpckkdjmu2eiseq6ktifku0mhmva2aje2vt8dfgq7ro1plftm3m91o4'
p4500
tp4501
Rp4502
sg1
((dp4503
I0
I105
sI1
I3
sI2
tp4504
Rp4505
g5
(S'-2s8a432pnroqsik3uisq49egr04143foh075c2ku2ndkagf3nsj06brogbnbvmitk'
p4506
tp4507
Rp4508
sg1
((dp4509
I0
I42
sI1
I6
sI2
tp4510
Rp4511
g5
(S'pq6gode7m7sl86qq3qsdgoj0biehra9g6e5mlf8nmnjv8'
p4512
tp4513
Rp4514
sg1
((dp4515
I0
I57
sI1
I7
sI2
tp4516
Rp4517
g5
(S'13bc537dsvr54qn7l3lg2s26qppkb6lufqg'
p4518
tp4519
Rp4520
sg1
((dp4521
I0
I158
sI1
I5
sI2
tp4522
Rp4523
g5
(S'1i9fjcv5gft6jr3g6ns'
p4524
tp4525
Rp4526
sg1
((dp4527
I0
I112
sI1
I2
sI2
tp4528
Rp4529
g5
(S'7pasineuu9a1pbromjrcuufhkq1teimnd17r4p9bmbq3l892c2uigufhlgj294138n0'
p4530
tp4531
Rp4532
sg1
((dp4533
I0
I127
sI1
I3
sI2
tp4534
Rp4535
g5
(S'-44rr8jopr004pmjodrlf43qi5f4rdl12d5ni3g61hp3to5djkn62gq2s3s8h4'
p4536
tp4537
Rp4538
sg1
((dp4539
I0
I13
sI1
I9
sI2
tp4540
Rp4541
g5
(S'9omrs4o36kaqd8'
p4542
tp4543
Rp4544
sg1
((dp4545
I0
I64
sI1
I6
sI2
tp4546
Rp4547
g5
(S'694g8uogc8nrlhorpvber0bq9s932s78nms18lgl4kd1o'
p4548
tp4549
Rp4550
sg1
((dp4551
I0
I177
sI2
tp4552
Rp4553
g5
(S'-4lar6d0n6fhls8mudhh0stp6006rqa1fd57ee0qb9i6e6b0quo'
p4554
tp4555
Rp4556
sg1
((dp4557
I0
I18
sI1
I3
sI2
tp4558
Rp4559
g5
(S'2mccgfhtokof5f6h3dcoop2g6hmac67u6k3emoe5ue6295qqj00'
p4560
tp4561
Rp4562
sg1
((dp4563
I0
I134
sI1
I2
sI2
tp4564
Rp4565
g5
(S'1qd2p4g9ebgj4m4frc5sibpd6epb23lhe0ued5obk9pk83kajeb7m7kguhrnj33s'
p4566
tp4567
Rp4568
sg1
((dp4569
I0
I149
sI1
I3
sI2
tp4570
Rp4571
g5
(S'10g7l0qc0or7tts0mn201r1fpoam4br6q1r8nbo1a0qhr29ogabn5kpc'
p4572
tp4573
Rp4574
sg1
((dp4575
I0
I78
sI2
tp4576
Rp4577
g5
(S'oja1u9bc7q3pd0bf7agf8rl64rr7p2n9h4rgactvsrite3tnq7c9ns09ev5bkfgt8ahvr4iln2'
p4578
tp4579
Rp4580
sg1
((dp4581
I0
I86
sI1
I6
sI2
tp4582
Rp4583
g5
(S'-69ervgvbr4fntvpqjhl57qa40jd0hsi4ut4sudhmg'
p4584
tp4585
Rp4586
sg1
((dp4587
I0
I40
sI1
I3
sI2
tp4588
Rp4589
g5
(S'-f7988ea449gbd9ou1n9n4oce6khhmvankjgdsvl9b4hl6q1cigno71hdq7c4'
p4590
tp4591
Rp4592
sg1
((dp4593
I0
I156
sI1
I2
sI2
tp4594
Rp4595
g5
(S'7h19gf03oo8727eb3n6k1afu0uesji58nekqg2ab38rca70170a8j1f50'
p4596
tp4597
Rp4598
sg1
((dp4599
I0
I171
sI1
I3
sI2
tp4600
Rp4601
g5
(S'-htjguec2htf5rh5eeeouogfef1nnakp1goa1tu0jlck'
p4602
tp4603
Rp4604
sg1
((dp4605
I0
I108
sI1
I6
sI2
tp4606
Rp4607
g5
(S'2lu2g4dtbfdetev4nekf59suse7hku4vl0'
p4608
tp4609
Rp4610
sg1
((dp4611
I0
I7
sI1
I4
sI2
tp4612
Rp4613
g5
(S'301idgbrt0iso2q3t813dge4e4so27qom43n0000'
p4614
tp4615
Rp4616
sg1
((dp4617
I0
I171
sI2
tp4618
Rp4619
g5
(S'-65fppnc3e0k05t99tidssfgtdak266j3mhl4btmd6400ir4tgici0i'
p4620
tp4621
Rp4622
sg1
((dp4623
I0
I62
sI1
I3
sI2
tp4624
Rp4625
g5
(S'g2616f8ovbedredml93qu0k6af3pt5d3eo07lbc2mihu2lkep9n2g167fbp3ipv4'
p4626
tp4627
Rp4628
sg1
((dp4629
I0
I178
sI1
I2
sI2
tp4630
Rp4631
g5
(S'epjekkgfkqiinh4vo0fkfdbiemk59knlaphkr7te0a4c'
p4632
tp4633
Rp4634
sg1
((dp4635
I0
I193
sI1
I3
sI2
tp4636
Rp4637
g5
(S'b9uem5lqbf7cbsnp5hk'
p4638
tp4639
Rp4640
sg1
((dp4641
I0
I163
sI2
tp4642
Rp4643
g5
(S'-998120af10u4qmoea9unnu3hqnk7neh8cltdck2h3ojkoae67a2cmdkrv6'
p4644
tp4645
Rp4646
sg1
((dp4647
I0
I14
sI1
I7
sI2
tp4648
Rp4649
g5
(S'-4l8sfn47srkcfmi6a2d4e32qgekesodg'
p4650
tp4651
Rp4652
sg1
((dp4653
I0
I130
sI1
I6
sI2
tp4654
Rp4655
g5
(S'1pskltbb8'
p4656
tp4657
Rp4658
sg1
((dp4659
I0
I29
sI1
I4
sI2
tp4660
Rp4661
g5
(S'-3tekh6bhemmaveq5udb3spr2s45kmdb4se6a51robd87scduemj8c'
p4662
tp4663
Rp4664
sg1
((dp4665
I0
I84
sI1
I3
sI2
tp4666
Rp4667
g5
(S'q6iqblrke6qjir76nv33uerkabvqvmarmp1ajc2cggjnglmn1lu06ro0stunupk1g'
p4668
tp4669
Rp4670
sg1
((dp4671
I0
I64
sI2
tp4672
Rp4673
g5
(S'72hq7teljtrq8utqvpkh4d0bji284gcoldl9najftodr3rev6sd473uasp34ne95cncrnfdeq'
p4674
tp4675
Rp4676
sg1
((dp4677
I0
I36
sI1
I7
sI2
tp4678
Rp4679
g5
(S'-1ea2pbrsukjcn89si8fmvt6ok6lpk7vpucbf0'
p4680
tp4681
Rp4682
sg1
((dp4683
I0
I51
sI1
I4
sI2
tp4684
Rp4685
g5
(S'-6lgb3k0mjpjd9i03sa2a1dsnuvbutmkhukp2jrhejgobh6l9g7g2kbbebu'
p4686
tp4687
Rp4688
sg1
((dp4689
I0
I38
sI1
I8
sI2
tp4690
Rp4691
g5
(S'dluj3n6k8njvpm356klt6bvkg'
p4692
tp4693
Rp4694
sg1
((dp4695
I0
I3
sI1
I8
sI2
tp4696
Rp4697
g5
(S'-47t0u4sbg80dos5qfhask'
p4698
tp4699
Rp4700
sg1
((dp4701
I0
I106
sI1
I3
sI2
tp4702
Rp4703
g5
(S'28kaff0jt3fb9r94it03feiblneqhl19l3418pg0nol5d1o1rgl820qrq8olciu90'
p4704
tp4705
Rp4706
sg1
((dp4707
I0
I5
sI1
I1
sI2
tp4708
Rp4709
g5
(S'-8ka97pmf0govr5cbrfgi5r2eh265m8ito0000000000000'
p4710
tp4711
Rp4712
sg1
((dp4713
I0
I58
sI1
I7
sI2
tp4714
Rp4715
g5
(S'-l66uu0irs0m58o5ekdfr1o3jlkju7fd318'
p4716
tp4717
Rp4718
sg1
((dp4719
I0
I73
sI1
I4
sI2
tp4720
Rp4721
g5
(S'2mat92heijv4auvn1ccf9i5b1sfnhffv1g5sdh30v9eckgq18ncp0scacu5m'
p4722
tp4723
Rp4724
sg1
((dp4725
I0
I149
sI2
tp4726
Rp4727
g5
(S'-9n92sakun66ie7jodo72d5nr9hogp5revkualnihnjppkp78t987uikrj09kfloe'
p4728
tp4729
Rp4730
sg1
((dp4731
I0
I128
sI1
I3
sI2
tp4732
Rp4733
g5
(S'9gna9mdp0r0remf5s740elcs9m685il3rs07nq2vshe9gfe5dj5ev3aumu6c'
p4734
tp4735
Rp4736
sg1
((dp4737
I0
I27
sI1
I1
sI2
tp4738
Rp4739
g5
(S'95ne81ce4j9ndvvgdttfmnulk87iue39d9nhbt36ibkcdtfl9c55keo660000'
p4740
tp4741
Rp4742
sg1
((dp4743
I0
I80
sI1
I7
sI2
tp4744
Rp4745
g5
(S'3gkqn1rpd6su7mtdf1p2b22f1h8'
p4746
tp4747
Rp4748
sg1
((dp4749
I0
I141
sI1
I4
sI2
tp4750
Rp4751
g5
(S'-364m5isq2ejhtr5haptanvfu33todslkpgu20out2nb3qhvk3gpugq'
p4752
tp4753
Rp4754
sg1
((dp4755
I0
I95
sI1
I4
sI2
tp4756
Rp4757
g5
(S'-qkbs924q4m5jmvef1f1footc0s8l2v75k104f2ppfd3pa1j9rtvk388rb37i'
p4758
tp4759
Rp4760
sg1
((dp4761
I0
I50
sI2
tp4762
Rp4763
g5
(S'2evnnecmflbjuamu7e403fdfqv7ud7ci85dn30qfa76gqgbc4u2mq1na31b07vad8h77oo0'
p4764
tp4765
Rp4766
sg1
((dp4767
I0
I47
sI1
I8
sI2
tp4768
Rp4769
g5
(S'-g0cgqoakhl34h0r7ft7070'
p4770
tp4771
Rp4772
sg1
((dp4773
I0
I150
sI1
I3
sI2
tp4774
Rp4775
g5
(S'-85p4cn672dk8dgqq935cu0e2gmnniumpfjhq63mjb2mh8scc7d5pppo'
p4776
tp4777
Rp4778
sg1
((dp4779
I0
I49
sI1
I1
sI2
tp4780
Rp4781
g5
(S'1ebdi36tiu86jk8dabu879k2ame21aq2bo0kp8b45m37g96thrtag2l3ajflejn97kggk'
p4782
tp4783
Rp4784
sg1
((dp4785
I0
I1
sI1
I5
sI2
tp4786
Rp4787
g5
(S'48bj5b8go93v3fcnlktjfbdu2bj0000'
p4788
tp4789
Rp4790
sg1
((dp4791
I0
I117
sI1
I4
sI2
tp4792
Rp4793
g5
(S'-218ehs9or5v4r5j6susaudtk01va6ihol0n6fg30th0pq02h4kin7giq7h6q'
p4794
tp4795
Rp4796
sg1
((dp4797
I0
I172
sI1
I3
sI2
tp4798
Rp4799
g5
(S'o2qhn17qae585jsm37tfv7tdd0g223lm8150mf9pu4'
p4800
tp4801
Rp4802
sg1
((dp4803
I0
I71
sI1
I1
sI2
tp4804
Rp4805
g5
(S'23q3iocr14d4ani0p5vcpro05mgkshf0f10el855ulg1o9sgvqtnp0jptc74rgum0doet572'
p4806
tp4807
Rp4808
sg1
((dp4809
I0
I39
sI2
tp4810
Rp4811
g5
(S'-3dvd27et38230aftlkm54mpbo9m2dd8gq3fvjj9lrb40fgc06ooi2s2rs80s20bfo000'
p4812
tp4813
Rp4814
sg1
((dp4815
I0
I23
sI1
I5
sI2
tp4816
Rp4817
g5
(S'741rjlplahn499f98pge750h10pud5val79gqcm6kf3ceo'
p4818
tp4819
Rp4820
sg1
((dp4821
I0
I139
sI1
I4
sI2
tp4822
Rp4823
g5
(S'-18jrk1f255e9l1kllgk5u8j3s9s5kuvg9ot80v4hko9otnlab3bg21a'
p4824
tp4825
Rp4826
sg1
((dp4827
I0
I10
sI1
I9
sI2
tp4828
Rp4829
g5
(S'-10viecpg82log'
p4830
tp4831
Rp4832
sg1
((dp4833
I0
I135
sI2
tp4834
Rp4835
g5
(S'-128987ju9gkm8l6gj8geqmqr2nib07tbjv445sc5ua1ehhmu41r9nj22tfc0th5eg498s'
p4836
tp4837
Rp4838
sg1
((dp4839
I0
I194
sI1
I3
sI2
tp4840
Rp4841
g5
(S'2fq143l2t4jiin7jk'
p4842
tp4843
Rp4844
sg1
((dp4845
I0
I93
sI1
I1
sI2
tp4846
Rp4847
g5
(S'-3s6ki2hmgv04bqhs1rpe8kfqb9drl630gk1smutfcrsatqcifpqoeebbtvgduapkegn8n0hm'
p4848
tp4849
Rp4850
sg1
((dp4851
I0
I36
sI2
tp4852
Rp4853
g5
(S'3f4g2htage0d132ej8bjnlbi3as8b9blg1er5jjj1bf8buove9hr0u2b2h7icu70000'
p4854
tp4855
Rp4856
sg1
((dp4857
I0
I45
sI1
I5
sI2
tp4858
Rp4859
g5
(S'-4hcftpm0ge0mpurbu5r4sbon37iba4a63rackd22uu0b231hcnqi'
p4860
tp4861
Rp4862
sg1
((dp4863
I0
I161
sI1
I4
sI2
tp4864
Rp4865
g5
(S'-1k4f3ai99erf6cb6e9kn922ctivrkgqtq0gpb1s7bdds'
p4866
tp4867
Rp4868
sg1
((dp4869
I0
I115
sI1
I1
sI2
tp4870
Rp4871
g5
(S'-293nkius7fk3ao61haq4iht53uvvh8tvuaiee1ehvra3lr1caokaiubtl39q0i9kjphffo'
p4872
tp4873
Rp4874
sg1
((dp4875
I0
I67
sI1
I5
sI2
tp4876
Rp4877
g5
(S's48u1lptk20mmhsck7tfntjjng11ktqcgk2ihrhtagdrrem4piufk'
p4878
tp4879
Rp4880
sg1
((dp4881
I0
I183
sI1
I4
sI2
tp4882
Rp4883
g5
(S'-1dk8bim28evhkciupdt9nv1o'
p4884
tp4885
Rp4886
sg1
((dp4887
I0
I4
sI1
I4
sI2
tp4888
Rp4889
g5
(S'-1takvsvpul33h4f413b87ev0p4gb6k8s00000'
p4890
tp4891
Rp4892
sg1
((dp4893
I0
I19
sI1
I9
sI2
tp4894
Rp4895
g5
(S'1dmh174thj6svo'
p4896
tp4897
Rp4898
sg1
((dp4899
I0
I137
sI1
I1
sI2
tp4900
Rp4901
g5
(S'-3dhhmkhvf2josil1bite1d73se68r4og2s2clf8o8mvnuqr1868gjkneorrlqss7e6'
p4902
tp4903
Rp4904
sg1
((dp4905
I0
I121
sI2
tp4906
Rp4907
g5
(S'-4h7jtqmcagipj2hs12b38b838ql2au25omkvnvobpsc37d6r06oco898tofk95g3nbbesvta'
p4908
tp4909
Rp4910
sg1
((dp4911
I0
I89
sI1
I5
sI2
tp4912
Rp4913
g5
(S'3cbeol4256j44mdr68flplm2iaipfj2ed7n3qc89so9ecg6mhhr3i'
p4914
tp4915
Rp4916
sg1
((dp4917
I0
I26
sI1
I4
sI2
tp4918
Rp4919
g5
(S'2a71ig7dhqkd164fbe14ns4nlsu99batb60m0hnglv0sg9u0ln5m'
p4920
tp4921
Rp4922
sg1
((dp4923
I0
I22
sI2
tp4924
Rp4925
g5
(S'1gl8k20bnfl8505l3fuv3j9lt8rkmanagpi9g30sm215uag7r70l400000000'
p4926
tp4927
Rp4928
sg1
((dp4929
I0
I159
sI1
I1
sI2
tp4930
Rp4931
g5
(S'-b8dt94eb611tvjgtf2ao8vk6levfrorl8o3rj8tqbd294objd3vqbdp63s'
p4932
tp4933
Rp4934
sg1
((dp4935
I0
I111
sI1
I5
sI2
tp4936
Rp4937
g5
(S'50g5o5qqfuilop52sle7511ssqvtios5fpue1o72e6odeqhlk'
p4938
tp4939
Rp4940
sg1
((dp4941
I0
I48
sI1
I4
sI2
tp4942
Rp4943
g5
(S'lkrtcoklgo7ccqor1i7aquf10bnq9v9ho2gpq00jvkn9v2qtglvuopa78'
p4944
tp4945
Rp4946
sg1
((dp4947
I0
I181
sI1
I1
sI2
tp4948
Rp4949
g5
(S'g5u7vfd0bi5cji696vurp7a39ajitqv40dcnl7tcqk3i'
p4950
tp4951
Rp4952
sg1
((dp4953
I1
I8
sI2
tp4954
Rp4955
g5
(S'gresfjfha60okqk0iq'
p4956
tp4957
Rp4958
sg1
((dp4959
I0
I17
sI1
I2
sI2
tp4960
Rp4961
g5
(S'-19tu43jv3pbahvl7oo830e2iunugn1d28ebds2r24ogfkestg0000'
p4962
tp4963
Rp4964
sg1
((dp4965
I0
I2
sI1
I1
sI2
tp4966
Rp4967
g5
(S'-h2a8lhaatg4te5d6vpmbo4d45njo000000000000000'
p4968
tp4969
Rp4970
sg1
((dp4971
I0
I133
sI1
I5
sI2
tp4972
Rp4973
g5
(S'gau0n0q11ufle44l2s54j8l0il8u3oe5t0dhvtvg'
p4974
tp4975
Rp4976
sg1
((dp4977
I0
I70
sI1
I4
sI2
tp4978
Rp4979
g5
(S'h1nrpji7p7as7p46jhafgddeomo8uh4dlrjhb9ja2eh26t4emqbr0qmosqlo'
p4980
tp4981
Rp4982
sg1
((dp4983
I0
I107
sI2
tp4984
Rp4985
g5
(S'-5nl6g4giresh57sd0rchtfvrs4k9jasjjqicfbu86dr1n5gn9v92q7pmt4do1bjfpks543j9mu'
p4986
tp4987
Rp4988
sg1
((dp4989
I0
I39
sI1
I2
sI2
tp4990
Rp4991
g5
(S'-o5ig55kptmocmdnjf5t5jt2mngdhk6ll8s12ta3l0drdloighdiooatefo30tgg'
p4992
tp4993
Rp4994
sg1
((dp4995
I0
I24
sI1
I1
sI2
tp4996
Rp4997
g5
(S'-1i1k3vmhffonvi950uovov5560ijn2qc0m1rslkn9rf7324a8pasg88o0000'
p4998
tp4999
Rp5000
sg1
((dp5001
I0
I155
sI1
I5
sI2
tp5002
Rp5003
g5
(S'qcfq5arohgeusmj377u2oo'
p5004
tp5005
Rp5006
sg1
((dp5007
I0
I92
sI1
I4
sI2
tp5008
Rp5009
g5
(S'-5o0u8804cfchu6ueuipqpsu75et1jj1q2v8i9at4fk92gv316c56pjd287bro'
p5010
tp5011
Rp5012
sg1
((dp5013
I0
I44
sI1
I8
sI2
tp5014
Rp5015
g5
(S'varu7nvdmr2k5jgktjeitko'
p5016
tp5017
Rp5018
sg1
((dp5019
I0
I61
sI1
I2
sI2
tp5020
Rp5021
g5
(S'-uhche04c0u5i8g7s277h9d8qjouoifn7esbe94aga9prgnkkvfn9j47lh5cuq84to06s'
p5022
tp5023
Rp5024
sg1
((dp5025
I0
I46
sI1
I1
sI2
tp5026
Rp5027
g5
(S'-3nlb8ee9srctb71rta3epicckncug6hqi1bvs8tennja3u4is4u72gevof9qn3u51e9s'
p5028
tp5029
Rp5030
sg1
((dp5031
I0
I13
sI1
I6
sI2
tp5032
Rp5033
g5
(S'-qqk59in099re100m56krkdopu2vi8pr0ntj0'
p5034
tp5035
Rp5036
sg1
((dp5037
I0
I114
sI1
I4
sI2
tp5038
Rp5039
g5
(S'3l1gu68ve57gr2rnk607k3mdoe7k0b0j85d2de0upqvbi6bfln62frjp9520'
p5040
tp5041
Rp5042
sg1
((dp5043
I0
I192
sI2
tp5044
Rp5045
g5
(S'2i07qjc4n99ejv905ubksev1bj35ri6pua'
p5046
tp5047
Rp5048
sg1
((dp5049
I0
I83
sI1
I2
sI2
tp5050
Rp5051
g5
(S'-4mt7bbnan182ug0jtb53knicbj589adufg8pu2rfor8o4l0mdlap5qe5212bf3sqpd5rqo'
p5052
tp5053
Rp5054
sg1
((dp5055
I0
I68
sI1
I1
sI2
tp5056
Rp5057
g5
(S'-11rc24lrh953l24tjaj1r5u6s8bda53oj1nvfbe81levtk71d8aituvnka4168pg59824vpi'
p5058
tp5059
Rp5060
sg1
((dp5061
I0
I35
sI1
I6
sI2
tp5062
Rp5063
g5
(S'-q36q6pigqfil8iqf3t08ja39d347a47rusbr5etrpq70'
p5064
tp5065
Rp5066
sg1
((dp5067
I0
I93
sI2
tp5068
Rp5069
g5
(S'-37n5auvss4fiij6r15bb8ou26jm0hvd49hg604f31d484s4tr069rqir06kgunmll7v1pochla2'
p5070
tp5071
Rp5072
sg1
((dp5073
I0
I20
sI1
I5
sI2
tp5074
Rp5075
g5
(S'-11dv6mark969see1dlc2sclanhhmadrd9576jm2vkm1q8'
p5076
tp5077
Rp5078
sg1
((dp5079
I0
I136
sI1
I4
sI2
tp5080
Rp5081
g5
(S'1b0et8a2rairi49ik277j99r5kdp8m0s5tkih53ottfhijvl8cqdr5j6'
p5082
tp5083
Rp5084
sg1
((dp5085
I0
I105
sI1
I2
sI2
tp5086
Rp5087
g5
(S'-c9qd69caum3is5d63ul0tubvt1da1ji2ka7phahokahnne7doe1r75hui0tkqa1evg28'
p5088
tp5089
Rp5090
sg1
((dp5091
I0
I90
sI1
I1
sI2
tp5092
Rp5093
g5
(S'4pc26foias7map642968n38bcu9u1634nadpru214umhdtt9fdh6ib0ucbt3i09tsds79gcs'
p5094
tp5095
Rp5096
sg1
((dp5097
I0
I57
sI1
I6
sI2
tp5098
Rp5099
g5
(S'-2lccotspfovdpg042upemkq9vq5fr795a1nhemvcaki288'
p5100
tp5101
Rp5102
sg1
((dp5103
I0
I42
sI1
I5
sI2
tp5104
Rp5105
g5
(S'189crppukr4rviu4dblinflvt6q17khrok5lmd123i25dft5jrlm'
p5106
tp5107
Rp5108
sg1
((dp5109
I0
I158
sI1
I4
sI2
tp5110
Rp5111
g5
(S'15o43itudkkqikmkpqbipll4bpkrmon5qc46hlbel5cl3m'
p5112
tp5113
Rp5114
sg1
((dp5115
I0
I11
sI1
I3
sI2
tp5116
Rp5117
g5
(S'-5p9h9gqfp850dmuh9nrig49ifgvlqvba4alu4f48o00000'
p5118
tp5119
Rp5120
sg1
((dp5121
I0
I127
sI1
I2
sI2
tp5122
Rp5123
g5
(S'-1eb86527tag27hhlpkl3hio5st2mn0gt6f9nb4qo8n9b73dcr55jg6vkrm8f4tl9s'
p5124
tp5125
Rp5126
sg1
((dp5127
I0
I112
sI1
I1
sI2
tp5128
Rp5129
g5
(S'48n7do6o33qckc0dcmkiag018v7cn1vgu0lmn98ndm0vbkna9ks1bqp9ul7aos65mutelq'
p5130
tp5131
Rp5132
sg1
((dp5133
I0
I13
sI1
I8
sI2
tp5134
Rp5135
g5
(S'-9okov647bbreh4i61itlbq3no'
p5136
tp5137
Rp5138
sg1
((dp5139
I0
I178
sI2
tp5140
Rp5141
g5
(S'8pc8jlmgfas6a58kukv5raabvlf27m3oiir2o77ep2gquqdps'
p5142
tp5143
Rp5144
sg1
((dp5145
I0
I64
sI1
I5
sI2
tp5146
Rp5147
g5
(S'109deh83uhujlb8rpgl4dc3ts4mb4d6klp6jg6opc87vj5k14um0ak'
p5148
tp5149
Rp5150
sg1
((dp5151
I0
I180
sI1
I4
sI2
tp5152
Rp5153
g5
(S'8hf8uhn5pd5sqovvgit0uhunqpg'
p5154
tp5155
Rp5156
sg1
((dp5157
I0
I16
sI1
I9
sI2
tp5158
Rp5159
g5
(S'-97g5cud4o11drk'
p5160
tp5161
Rp5162
sg1
((dp5163
I0
I18
sI1
I2
sI2
tp5164
Rp5165
g5
(S'il16j9mtfjqtn0habtk2o45mm3ean79itc5f65jqq1me22ms80000'
p5166
tp5167
Rp5168
sg1
((dp5169
I0
I33
sI1
I3
sI2
tp5170
Rp5171
g5
(S'4nnne0bpji1slkfi9sq4trp1thrfej47nld5760d837p0fn8apfdv7nb44'
p5172
tp5173
Rp5174
sg1
((dp5175
I0
I149
sI1
I2
sI2
tp5176
Rp5177
g5
(S'-26fgfu1a84hj415dqfcloffdhi5af2s5c8224eepr49cbf7flk249qh088g8'
p5178
tp5179
Rp5180
sg1
((dp5181
I0
I134
sI1
I1
sI2
tp5182
Rp5183
g5
(S'1jms0mimgql6f36lj2d8g2b7ec2b0gcn3afsd9j9qsq4vqa978cr7djllsm72p1bgrm'
p5184
tp5185
Rp5186
sg1
((dp5187
I0
I79
sI2
tp5188
Rp5189
g5
(S'-v2nksf6ihmd64o927ddrcuhtcvho5gvrj3gs2scq9lv1ss8bubh4uspamfc7lcdlq8bu5g3dta'
p5190
tp5191
Rp5192
sg1
((dp5193
I0
I101
sI1
I6
sI2
tp5194
Rp5195
g5
(S'-5cgkb6dk9mcq5m56t8d8485on927tsmmkqh78'
p5196
tp5197
Rp5198
sg1
((dp5199
I0
I86
sI1
I5
sI2
tp5200
Rp5201
g5
(S'-67kf50qs25sua3mqi2qpkp7dj1cf0sa4mt63v3v3d6cafig76uqv0'
p5202
tp5203
Rp5204
sg1
((dp5205
I0
I40
sI1
I2
sI2
tp5206
Rp5207
g5
(S'2a2amgqakluujvfqpckbaid2hu6sb90rgofl47lj6t0pu13mcuiemrqq6oda50bk'
p5208
tp5209
Rp5210
sg1
((dp5211
I0
I55
sI1
I3
sI2
tp5212
Rp5213
g5
(S'-jq2o8a7kg9dl1m4ibelpib9t066omr3fge4jbl8r2a6ejtk1j4b2fdjnc33ktbg'
p5214
tp5215
Rp5216
sg1
((dp5217
I0
I171
sI1
I2
sI2
tp5218
Rp5219
g5
(S'-f683nd9moeo218q1p0klb9bdbeg26stf0m7osg2nq2g8ifen0'
p5220
tp5221
Rp5222
sg1
((dp5223
I0
I156
sI1
I1
sI2
tp5224
Rp5225
g5
(S'rrc5m750dll5ua98ump63647mju27o1a7m86r0ha2minuh2emo2t3nqlseq'
p5226
tp5227
Rp5228
sg1
((dp5229
I0
I57
sI1
I8
sI2
tp5230
Rp5231
g5
(S'-2akif6fass5t6d5c'
p5232
tp5233
Rp5234
sg1
((dp5235
I0
I7
sI1
I7
sI2
tp5236
Rp5237
g5
(S'76qu0da988r1uj9oid4uq2qpl9mo'
p5238
tp5239
Rp5240
sg1
((dp5241
I0
I123
sI1
I6
sI2
tp5242
Rp5243
g5
(S'-dr53gaim1mhlkdmmg3a7ng'
p5244
tp5245
Rp5246
sg1
((dp5247
I0
I108
sI1
I5
sI2
tp5248
Rp5249
g5
(S'71sisg5miqnjan6uc3ig7ijk7fgj4nqfr38m05hg9j6a825qg'
p5250
tp5251
Rp5252
sg1
((dp5253
I0
I62
sI1
I2
sI2
tp5254
Rp5255
g5
(S'1hegi404irbu1ig6dd4frm6fbac1vaf7hl20fk1r2kt1hft9socbom8f5hval2ta1nnek'
p5256
tp5257
Rp5258
sg1
((dp5259
I0
I77
sI1
I3
sI2
tp5260
Rp5261
g5
(S'1clljdtd36fp0akj9e0fr0i8gjjbjrstb554qd1bed86rp30n8dbpa05hvj42k9ms'
p5262
tp5263
Rp5264
sg1
((dp5265
I0
I193
sI1
I2
sI2
tp5266
Rp5267
g5
(S'-74b8h1gi34ifej00cj5vc5n9s'
p5268
tp5269
Rp5270
sg1
((dp5271
I0
I178
sI1
I1
sI2
tp5272
Rp5273
g5
(S'-74gtcnjb3frf8t4hg8n9fbg8hojhacf3r8ap5hcoeh8r734'
p5274
tp5275
Rp5276
sg1
((dp5277
I0
I164
sI2
tp5278
Rp5279
g5
(S'1qvpaam6i3bfgkir1mu7038flr1h0jogjt480cpbe2tmer3g7l16l610es'
p5280
tp5281
Rp5282
sg1
((dp5283
I0
I14
sI1
I6
sI2
tp5284
Rp5285
g5
(S'7hjrs9klefmscs6nrogff7a5386itcov0aqeg'
p5286
tp5287
Rp5288
sg1
((dp5289
I0
I29
sI1
I7
sI2
tp5290
Rp5291
g5
(S'-2jhmc7jnlhlink3vuccjs3krl3uqbpvrqkkg'
p5292
tp5293
Rp5294
sg1
((dp5295
I0
I130
sI1
I5
sI2
tp5296
Rp5297
g5
(S'-4qntccr47klv95f7sbho1dpij45abf3kii5rq0qd8o'
p5298
tp5299
Rp5300
sg1
((dp5301
I0
I65
sI2
tp5302
Rp5303
g5
(S'-an9v5e9rg9mjet5p9q2hr1olhpv0ql1d4i3hg3f5o0tafgu3m55puaom75osb5qf91utkr3s4'
p5304
tp5305
Rp5306
sg1
((dp5307
I0
I84
sI1
I2
sI2
tp5308
Rp5309
g5
(S'4ho1rea7008vo4mbuh74et7bts5joc0ud57kob17i2ijhi78ju28gs33vpupj3of4kahpc'
p5310
tp5311
Rp5312
sg1
((dp5313
I0
I99
sI1
I3
sI2
tp5314
Rp5315
g5
(S'-p9k9i3hop1eaqg1rvrcc11c7t06u0s1s60rlrgqntiqlde045pl74el7fq2h83l4'
p5316
tp5317
Rp5318
sg1
((dp5319
I0
I36
sI1
I6
sI2
tp5320
Rp5321
g5
(S'1g4lcknnvj2j3739rk268aptiaf8noj9ks78qav2j7ng8'
p5322
tp5323
Rp5324
sg1
((dp5325
I0
I51
sI1
I7
sI2
tp5326
Rp5327
g5
(S'-257ek78kgruauutnfviksp050n61f07fcs48'
p5328
tp5329
Rp5330
sg1
((dp5331
I0
I152
sI1
I5
sI2
tp5332
Rp5333
g5
(S'3jido2bjv8bu0epv7af9iaqj9q'
p5334
tp5335
Rp5336
sg1
((dp5337
I0
I106
sI1
I2
sI2
tp5338
Rp5339
g5
(S'7alj04f24hqnrn7ggggqn74i7udcipjafjcqbpoal39drdq7jjun85q20p1smlqmqq7o'
p5340
tp5341
Rp5342
sg1
((dp5343
I0
I121
sI1
I3
sI2
tp5344
Rp5345
g5
(S'-sm56orut22v646kk438vtcealbot8a8ksbe3al708qkj1m55fu7fgc0lqaf738'
p5346
tp5347
Rp5348
sg1
((dp5349
I0
I58
sI1
I6
sI2
tp5350
Rp5351
g5
(S'2521mbpfvgt0s9i0bl9t12rsoih5uod02mulu3uadotlh8'
p5352
tp5353
Rp5354
sg1
((dp5355
I0
I73
sI1
I7
sI2
tp5356
Rp5357
g5
(S'-gu84pqlo2fjhret9hombd3gsgl1hb0'
p5358
tp5359
Rp5360
sg1
((dp5361
I0
I150
sI2
tp5362
Rp5363
g5
(S'2njbj4fv384d9gr917e5b5l2bvi8k8lq52hsfspcr2o0g0k3uontdbscnrnh3oru'
p5364
tp5365
Rp5366
sg1
((dp5367
I0
I12
sI1
I3
sI2
tp5368
Rp5369
g5
(S'29keu9v05ml9jne9lnrfmra24pbvtftegqrmt9pu6po0000'
p5370
tp5371
Rp5372
sg1
((dp5373
I0
I128
sI1
I2
sI2
tp5374
Rp5375
g5
(S'13mehgom6jml9bvsqijsvukcgm0sl8roigavqa1e4iu37hij83g71s3nutkeohab4'
p5376
tp5377
Rp5378
sg1
((dp5379
I0
I143
sI1
I3
sI2
tp5380
Rp5381
g5
(S'1f6ugmln1vrn27hbsli3md3r72kinp1vl14vkvq000hoivt2luk7hcbu00'
p5382
tp5383
Rp5384
sg1
((dp5385
I0
I29
sI1
I9
sI2
tp5386
Rp5387
g5
(S'44e2fvmim'
p5388
tp5389
Rp5390
sg1
((dp5391
I0
I80
sI1
I6
sI2
tp5392
Rp5393
g5
(S'2i4uo1ev35m70illajgsrr4fmu10leo901r0g4kvf3o'
p5394
tp5395
Rp5396
sg1
((dp5397
I0
I95
sI1
I7
sI2
tp5398
Rp5399
g5
(S'12i9t1o39s07k0'
p5400
tp5401
Rp5402
sg1
((dp5403
I0
I6
sI2
tp5404
Rp5405
g5
(S'54areevlo1j9h69fps7nhqo1go2n7a8o0000000000000000'
p5406
tp5407
Rp5408
sg1
((dp5409
I0
I51
sI2
tp5410
Rp5411
g5
(S'-54cucqoj37us5g9v95frrl0nbu7vi03sigahnai7cqva452q3rmokrs9e6k27t2nm007as0'
p5412
tp5413
Rp5414
sg1
((dp5415
I0
I34
sI1
I3
sI2
tp5416
Rp5417
g5
(S'-hpq29o2l2pgv37ik4j19eh4lkb43ln4ueg99s5hl8udlmm4vt4khauv82s'
p5418
tp5419
Rp5420
sg1
((dp5421
I0
I150
sI1
I2
sI2
tp5422
Rp5423
g5
(S'laaev21v9bt816e2b3a6b10ta0c0ridf1ot2iml4iq96rgojq498akccd44'
p5424
tp5425
Rp5426
sg1
((dp5427
I0
I165
sI1
I3
sI2
tp5428
Rp5429
g5
(S'-fu5u0uskll8nhs8jratumuj7qb0hcuonnqdkag641d7m7lc'
p5430
tp5431
Rp5432
sg1
((dp5433
I0
I102
sI1
I6
sI2
tp5434
Rp5435
g5
(S'1bm7eac9cnm45v9027m805rfn4na1p9c9vrho'
p5436
tp5437
Rp5438
sg1
((dp5439
I0
I1
sI1
I4
sI2
tp5440
Rp5441
g5
(S'-kj9qhn60a7vhhab8p3str3tvoas0000000'
p5442
tp5443
Rp5444
sg1
((dp5445
I0
I56
sI1
I3
sI2
tp5446
Rp5447
g5
(S'179locpbvsphflf63of31fs65qmis3tvuh3t43140n09602t0p5tod91v6jm5nms'
p5448
tp5449
Rp5450
sg1
((dp5451
I0
I172
sI1
I2
sI2
tp5452
Rp5453
g5
(S'1j7h8hk3stica5do8tjl6fn81ro83nhs70qtq118nongm51lc'
p5454
tp5455
Rp5456
sg1
((dp5457
I0
I187
sI1
I3
sI2
tp5458
Rp5459
g5
(S'-1m95v0cf6pg79vk973kg6ra87rpls'
p5460
tp5461
Rp5462
sg1
((dp5463
I0
I8
sI1
I7
sI2
tp5464
Rp5465
g5
(S'-3mu0m83d9fnni25rgfk0nouk54k9o'
p5466
tp5467
Rp5468
sg1
((dp5469
I0
I124
sI1
I6
sI2
tp5470
Rp5471
g5
(S'70i58ql6hn2jkqtujc6mg'
p5472
tp5473
Rp5474
sg1
((dp5475
I0
I23
sI1
I4
sI2
tp5476
Rp5477
g5
(S'-r8qjldq1rcjhpl8am9nn781jnuta6c1a8vbbqkig17o8f9m3ng'
p5478
tp5479
Rp5480
sg1
((dp5481
I0
I10
sI1
I8
sI2
tp5482
Rp5483
g5
(S'edsb2lkofurqtvbv8du09u7o'
p5484
tp5485
Rp5486
sg1
((dp5487
I0
I136
sI2
tp5488
Rp5489
g5
(S'cj4bv4n10i9uekfb4m58ebenoe5n742uhkgik6lbn797v11asodsrj1hr3sstrkmh78m'
p5490
tp5491
Rp5492
sg1
((dp5493
I0
I78
sI1
I3
sI2
tp5494
Rp5495
g5
(S'4llb43regbt1nougg0kon9j7r46kgudvvuoi012pveisfvi9r8icntogerua6i2nk'
p5496
tp5497
Rp5498
sg1
((dp5499
I0
I194
sI1
I2
sI2
tp5500
Rp5501
g5
(S'9q9699b9inpnlkpjq1v42s'
p5502
tp5503
Rp5504
sg1
((dp5505
I0
I37
sI2
tp5506
Rp5507
g5
(S'-bd1vb1n2luvdc6l5pqdk8kgpg1j02cuie54hcq0h19igkpmeqsn2ct1mn1h1ij20000'
p5508
tp5509
Rp5510
sg1
((dp5511
I0
I45
sI1
I4
sI2
tp5512
Rp5513
g5
(S'-3o4uhrk0rhgumncqsmub7qtp4m3ca5tajr7v4hkdud256bvu2089hktu8'
p5514
tp5515
Rp5516
sg1
((dp5517
I0
I100
sI1
I3
sI2
tp5518
Rp5519
g5
(S'2ke61k9r43dc7e3qrcr6c7jof6bo8cp3q6uuhkhlq6l8am7opmdgrpgqkt9kqivpk'
p5520
tp5521
Rp5522
sg1
((dp5523
I0
I52
sI1
I7
sI2
tp5524
Rp5525
g5
(S'109jl9agvfrmq6cr5mpa6in38kgd480pc6i0'
p5526
tp5527
Rp5528
sg1
((dp5529
I0
I67
sI1
I4
sI2
tp5530
Rp5531
g5
(S'-4knip6nf8p3a41k1e4va2357vc6v1usoqqs04753t3s7ss9fehuj5h05guok'
p5532
tp5533
Rp5534
sg1
((dp5535
I0
I54
sI1
I8
sI2
tp5536
Rp5537
g5
(S'1dqua6qv3ufber2t3qa'
p5538
tp5539
Rp5540
sg1
((dp5541
I0
I19
sI1
I8
sI2
tp5542
Rp5543
g5
(S'-embot1vt4kb927b33grihgtk6g'
p5544
tp5545
Rp5546
sg1
((dp5547
I0
I122
sI1
I3
sI2
tp5548
Rp5549
g5
(S'ds5jqeuj9t2osb32h4vc0r8pucqnltbvd3fn6pf1uecj6238pbffeh8abvkeic'
p5550
tp5551
Rp5552
sg1
((dp5553
I0
I21
sI1
I1
sI2
tp5554
Rp5555
g5
(S'4d7a8d5r9s5s6mu6cfolla427injj862kpeab4stcaebatks3l3oo00000'
p5556
tp5557
Rp5558
sg1
((dp5559
I0
I122
sI2
tp5560
Rp5561
g5
(S'291spcj7ibjpifi3k5q92jp7113fbjarkcl5n105494edlvd408a1stisq90sdpvqlrn62om'
p5562
tp5563
Rp5564
sg1
((dp5565
I0
I74
sI1
I7
sI2
tp5566
Rp5567
g5
(S'4bem2v6jshmtk5ukbmvlsr8v1q3sfg'
p5568
tp5569
Rp5570
sg1
((dp5571
I0
I89
sI1
I4
sI2
tp5572
Rp5573
g5
(S'4j68ebl69mo870euc9io8kqu2lmiqbemg8e202ih9rpatv0u1l6lsqdo79cj2'
p5574
tp5575
Rp5576
sg1
((dp5577
I0
I144
sI1
I3
sI2
tp5578
Rp5579
g5
(S'-fjq1jdvofsntn7tvaqgrkrn6badfjr7m1l8l08659s372o5v72d0gmoe8'
p5580
tp5581
Rp5582
sg1
((dp5583
I0
I43
sI1
I1
sI2
tp5584
Rp5585
g5
(S'79jvj27q04npmuc1dceh28fdm7lhlde80l4f6b1qig2givjulgsmi87hh3utlj84h8g'
p5586
tp5587
Rp5588
sg1
((dp5589
I0
I23
sI2
tp5590
Rp5591
g5
(S'-ak4lhbfnmagrtf3gg6f34ilumq0t3m4939okqhtihochnqac3hm8ag0000000'
p5592
tp5593
Rp5594
sg1
((dp5595
I0
I96
sI1
I7
sI2
tp5596
Rp5597
g5
(S'840u7q6krs60'
p5598
tp5599
Rp5600
sg1
((dp5601
I0
I111
sI1
I4
sI2
tp5602
Rp5603
g5
(S'1eie9ri40htca1t7i0rml8gci98otebb48gh4ueptfse1aopk0o2qtuqqf7g'
p5604
tp5605
Rp5606
sg1
((dp5607
I0
I63
sI1
I8
sI2
tp5608
Rp5609
g5
(S'bl2lpv7iv6'
p5610
tp5611
Rp5612
sg1
((dp5613
I0
I166
sI1
I3
sI2
tp5614
Rp5615
g5
(S'2dtsmoc1684fndvj551d9rn1u23asunshdi72o0jssrf8v0'
p5616
tp5617
Rp5618
sg1
((dp5619
I0
I65
sI1
I1
sI2
tp5620
Rp5621
g5
(S'd4r8ns3kefskq52vuofrddq76nork44d8rs9hosevcp4kgs5rkta24l7gj6e7d1p8l7mc4a'
p5622
tp5623
Rp5624
sg1
((dp5625
I0
I17
sI1
I5
sI2
tp5626
Rp5627
g5
(S'-p89tplruiv14ff0blq90fjjkj6i8u0ltfu1qh1sur4'
p5628
tp5629
Rp5630
sg1
((dp5631
I0
I133
sI1
I4
sI2
tp5632
Rp5633
g5
(S'-10bkbgcbpufb0l7cj4e601kvosd3bsq75r8jll81d5k18oj8jpk6thab2'
p5634
tp5635
Rp5636
sg1
((dp5637
I0
I188
sI1
I3
sI2
tp5638
Rp5639
g5
(S'-5bp5m4d8kh13ndesn20d9qr5fk'
p5640
tp5641
Rp5642
sg1
((dp5643
I0
I87
sI1
I1
sI2
tp5644
Rp5645
g5
(S'-41gm7t375ui305bdaqbl54jajpbjsdqdnug8vg6mvvau2av4osv1mfg80q3vottosdbm0r1o'
p5646
tp5647
Rp5648
sg1
((dp5649
I0
I108
sI2
tp5650
Rp5651
g5
(S'3va0bapkfthbo6uq5r1o9vppnl2op75kj07281nvk7kad07ite1trksi8dull1p6qp8lncqqj6'
p5652
tp5653
Rp5654
sg1
((dp5655
I0
I39
sI1
I5
sI2
tp5656
Rp5657
g5
(S'-466ekdnmaevaqm2ti8052bbnaejte7v0hkcq4ondpiabiltdcuk'
p5658
tp5659
Rp5660
sg1
((dp5661
I0
I155
sI1
I4
sI2
tp5662
Rp5663
g5
(S'-gb4usetl3lf02r94amff4ka41495lq6clql5iob7onbkjgk'
p5664
tp5665
Rp5666
sg1
((dp5667
I0
I26
sI1
I9
sI2
tp5668
Rp5669
g5
(S'5vstjggm2pk'
p5670
tp5671
Rp5672
sg1
((dp5673
I0
I9
sI2
tp5674
Rp5675
g5
(S'-2h10bgt307un7ke68dtqens9uut7jglfbq0jho00000000000000'
p5676
tp5677
Rp5678
sg1
((dp5679
I0
I109
sI1
I1
sI2
tp5680
Rp5681
g5
(S'-aacqpcv9atihet7l616tuj9s2tflf276i5unharvp63m1u5akjfb3la3415oqmar92flae'
p5682
tp5683
Rp5684
sg1
((dp5685
I0
I79
sI1
I4
sI2
tp5686
Rp5687
g5
(S'1g3uik210amnl2n310snd7q99mvmelbcgilbv0hrsmqsoad7ug1sb9k2d8rvo'
p5688
tp5689
Rp5690
sg1
((dp5691
I0
I61
sI1
I5
sI2
tp5692
Rp5693
g5
(S'-13chqvddm2njnsd3f9dap1nog5nt1usaoi4quekpbelqcpbvhe7lge'
p5694
tp5695
Rp5696
sg1
((dp5697
I0
I177
sI1
I4
sI2
tp5698
Rp5699
g5
(S'-ip4eajsmu1ras4rqc4mke98p8hs7ki'
p5700
tp5701
Rp5702
sg1
((dp5703
I0
I193
sI2
tp5704
Rp5705
g5
(S'-2duh690cdulp1om175ts8ddiqvgio37q'
p5706
tp5707
Rp5708
sg1
((dp5709
I0
I131
sI1
I1
sI2
tp5710
Rp5711
g5
(S'-ijh17pl5d9c7hr2a335p68beur0ef4g6bf85ksed7mp35916vncsth0ed2s11vnei76'
p5712
tp5713
Rp5714
sg1
((dp5715
I0
I83
sI1
I5
sI2
tp5716
Rp5717
g5
(S'-ggk5r407qqlv043upftmsfjtdbts75sohrn5j6s66th11i83bhs8'
p5718
tp5719
Rp5720
sg1
((dp5721
I0
I94
sI2
tp5722
Rp5723
g5
(S'30o4h06oollb9f1rut14n65m39bgcvq5u0rahlkmrlqosv1f20spoc85up52ufqn0l7884lr3os'
p5724
tp5725
Rp5726
sg1
((dp5727
I0
I20
sI1
I4
sI2
tp5728
Rp5729
g5
(S'5ob08v06nnjajmv28iuq58si8j3od31ph1r3h4e39hud6rl0g'
p5730
tp5731
Rp5732
sg1
((dp5733
I0
I143
sI2
tp5734
Rp5735
g5
(S'-9cgonp3fbvorcbg6287elqs2jrth68elve7drlri64srtg34kochsg4v79mkngb0k0'
p5736
tp5737
Rp5738
sg1
((dp5739
I0
I153
sI1
I1
sI2
tp5740
Rp5741
g5
(S'-1fdv7ecbo7hsad64963b7bjsi1okvvjbbf6t5keit356rcvlms50cjesaav9o'
p5742
tp5743
Rp5744
sg1
((dp5745
I0
I105
sI1
I5
sI2
tp5746
Rp5747
g5
(S'-f43fc4oov8utg0keiasq92grm9ici1pdg1l62m419n1s99b132'
p5748
tp5749
Rp5750
sg1
((dp5751
I0
I42
sI1
I4
sI2
tp5752
Rp5753
g5
(S'p0b82ab1949ookntsh1n3ugjrif12e2p2rr1aq4r4uchh9sq88q6co80'
p5754
tp5755
Rp5756
sg1
((dp5757
I0
I175
sI1
I1
sI2
tp5758
Rp5759
g5
(S'eph7lig8n3sv3jmbu8vcn3hco6tffcesicp19j5gg57p1rt9i'
p5760
tp5761
Rp5762
sg1
((dp5763
I0
I11
sI1
I2
sI2
tp5764
Rp5765
g5
(S'-19m1ib91655okov8nk6bcs3vc13qm9hfdcnn3eosuq0000000'
p5766
tp5767
Rp5768
sg1
((dp5769
I0
I127
sI1
I5
sI2
tp5770
Rp5771
g5
(S'-531it1b76vasr26a463786ah6n4f9masbu716bl1s7m'
p5772
tp5773
Rp5774
sg1
((dp5775
I0
I64
sI1
I4
sI2
tp5776
Rp5777
g5
(S'-1hk3bnpm8a3qst1347qp2u91rk30s76pjjap7i6qlqgfqi499d5tpqiodl92'
p5778
tp5779
Rp5780
sg1
((dp5781
I0
I179
sI2
tp5782
Rp5783
g5
(S'-dc1au9gihrqcs79cmguapl49krc5la3fiu7abfjc09chqph6'
p5784
tp5785
Rp5786
sg1
((dp5787
I0
I197
sI1
I1
sI2
tp5788
Rp5789
g5
(S'r2e0gm6'
p5790
tp5791
Rp5792
sg1
((dp5793
I0
I16
sI1
I8
sI2
tp5794
Rp5795
g5
(S'2vlomafkcqrn9hdtr078nenbb2'
p5796
tp5797
Rp5798
sg1
((dp5799
I0
I33
sI1
I2
sI2
tp5800
Rp5801
g5
(S'-djrcj0cmqu5un88ran7g568euk1lhqbotdb3qc3qren12c97lshkav66jvdt0'
p5802
tp5803
Rp5804
sg1
((dp5805
I0
I18
sI1
I1
sI2
tp5806
Rp5807
g5
(S'-4mi5ah5qj6g6eeup6u5jbl0j8ca9506188vdu7pv6iqjg90grg000000'
p5808
tp5809
Rp5810
sg1
((dp5811
I0
I149
sI1
I5
sI2
tp5812
Rp5813
g5
(S'206ujfsl50tpvhm1k4s36cqu6o21s'
p5814
tp5815
Rp5816
sg1
((dp5817
I0
I80
sI2
tp5818
Rp5819
g5
(S'16ieu8p6jcg65g22r2bnanof7a8epdekf4g6mughfigomkpjt3b7q2ekcaqtkghl12k4godo8cc'
p5820
tp5821
Rp5822
sg1
((dp5823
I0
I86
sI1
I4
sI2
tp5824
Rp5825
g5
(S'384rpjll76crt99h8ad3qcujunddutnm4gk1techf1mqa4ma8s62gie62com0'
p5826
tp5827
Rp5828
sg1
((dp5829
I0
I55
sI1
I2
sI2
tp5830
Rp5831
g5
(S'-viphap1dib68h4vdnbc81jd4oc2q9rk59jffnhf05fgvs3cslpoe3rh9f3mdtar22ls'
p5832
tp5833
Rp5834
sg1
((dp5835
I0
I40
sI1
I1
sI2
tp5836
Rp5837
g5
(S'-aj8fgd4kks3edqiuo462n1m31v1am1jhlumrhajf0f7q7i9dveodm5d31q857pr3a0'
p5838
tp5839
Rp5840
sg1
((dp5841
I0
I7
sI1
I6
sI2
tp5842
Rp5843
g5
(S'a3gnt68v16but8uc6m1uge0068ukag90'
p5844
tp5845
Rp5846
sg1
((dp5847
I0
I108
sI1
I4
sI2
tp5848
Rp5849
g5
(S'-mfi5aei8gjr3fdu252679mk724vodcbd4jlhtnoorrdn5rio70nonu458532'
p5850
tp5851
Rp5852
sg1
((dp5853
I0
I60
sI1
I8
sI2
tp5854
Rp5855
g5
(S'8mmqpr99eivrj2'
p5856
tp5857
Rp5858
sg1
((dp5859
I0
I77
sI1
I2
sI2
tp5860
Rp5861
g5
(S'-3jra6out07571umh4o3v1o3qa873lkijkotrbhn62f511cm2u65qip46oedc90fo8t14a4'
p5862
tp5863
Rp5864
sg1
((dp5865
I0
I62
sI1
I1
sI2
tp5866
Rp5867
g5
(S'-40cqbetkbk1s7kpv25lvgnspusnu6nq4ru5jlv9gdip6oe0m5r2fuceaovhbnid5cvk9i9u'
p5868
tp5869
Rp5870
sg1
((dp5871
I0
I165
sI2
tp5872
Rp5873
g5
(S'-bcnqemlrum2a56ggqoa3eer1c12fo4or7at943qhqorh67k1s6bp8mgoe'
p5874
tp5875
Rp5876
sg1
((dp5877
I0
I29
sI1
I6
sI2
tp5878
Rp5879
g5
(S'-7s1aqjd3jqe7mjuvajnb73qae4sgea67q9ivspn55s8'
p5880
tp5881
Rp5882
sg1
((dp5883
I0
I14
sI1
I5
sI2
tp5884
Rp5885
g5
(S'b9v0ss82is6q9od9thj3rdi03qh6m92rst0990nd8'
p5886
tp5887
Rp5888
sg1
((dp5889
I0
I130
sI1
I4
sI2
tp5890
Rp5891
g5
(S'hd5494bkku9tqn1r0ulg8rtk13b0h1n8r7k6blbai07n44gdgs98667f6'
p5892
tp5893
Rp5894
sg1
((dp5895
I0
I66
sI2
tp5896
Rp5897
g5
(S'g0u37h3u3jv585ujtf54knqavi6rcf03gbtub7ag9hju0lg5iepu2htn2ifm3n84pscm8l69s'
p5898
tp5899
Rp5900
sg1
((dp5901
I0
I99
sI1
I2
sI2
tp5902
Rp5903
g5
(S'-5o0acqmiclomfrf4f67034sik2ekueu2cc2n5ssnbfcsf8k2mcfmtkorphjpcdkf284k4'
p5904
tp5905
Rp5906
sg1
((dp5907
I0
I84
sI1
I1
sI2
tp5908
Rp5909
g5
(S'1ijg3pe715fnbals5t1t9hesshddm5jl9f1r8f83m08u03d5uuah4ce72l7qb1n7759fem8k'
p5910
tp5911
Rp5912
sg1
((dp5913
I0
I51
sI1
I6
sI2
tp5914
Rp5915
g5
(S'-441nlg2qqklvil7pgs4ig1gbil9cuu7ot5du65hhfmpc3o'
p5916
tp5917
Rp5918
sg1
((dp5919
I0
I36
sI1
I5
sI2
tp5920
Rp5921
g5
(S'2sjen578jsldv9ce7cshhaa1jsp5etmheh50aetd2vt0lrs4l4'
p5922
tp5923
Rp5924
sg1
((dp5925
I0
I152
sI1
I4
sI2
tp5926
Rp5927
g5
(S'4co7ifo2p94kfl40fnq3hgevrm6sd7h9cb8jhahq49p9dg5eu'
p5928
tp5929
Rp5930
sg1
((dp5931
I0
I5
sI1
I3
sI2
tp5932
Rp5933
g5
(S'dbl9je8och0lfgopkjkcpseqq3g99ls900000000'
p5934
tp5935
Rp5936
sg1
((dp5937
I0
I121
sI1
I2
sI2
tp5938
Rp5939
g5
(S'3rgrvro317l3ctqipjbiadr8ppfmg9ueimemcb560r82n5lo5tttms2bs2u4vb3sg'
p5940
tp5941
Rp5942
sg1
((dp5943
I0
I106
sI1
I1
sI2
tp5944
Rp5945
g5
(S'1h38ss6qcvujpausnk82bmeb0mivde6ro0vd2pomfq6hr2e9r1t23e9mpmdpqr4hnlko7lu'
p5946
tp5947
Rp5948
sg1
((dp5949
I0
I73
sI1
I6
sI2
tp5950
Rp5951
g5
(S'3gdtq2s8c189bjuivsti28h4a24pjvml35vhtliljico'
p5952
tp5953
Rp5954
sg1
((dp5955
I0
I58
sI1
I5
sI2
tp5956
Rp5957
g5
(S'62cq5b6si3f7rc4hm995pugaka4ec69afk83ts6mf9tq27o56p2qg'
p5958
tp5959
Rp5960
sg1
((dp5961
I0
I174
sI1
I4
sI2
tp5962
Rp5963
g5
(S'gi8qcin93umsmuoadokuve75g7gi1pkkg'
p5964
tp5965
Rp5966
sg1
((dp5967
I0
I12
sI1
I2
sI2
tp5968
Rp5969
g5
(S'bp1urmnlkclgh101ird0i45l0cfi167koi7i91prgus000000'
p5970
tp5971
Rp5972
sg1
((dp5973
I0
I27
sI1
I3
sI2
tp5974
Rp5975
g5
(S'9lnlvbkeg27v7csg6cpbteva5cad8qga3mq5k1ttu3q30gspb9icaqo'
p5976
tp5977
Rp5978
sg1
((dp5979
I0
I151
sI2
tp5980
Rp5981
g5
(S'-nm56o8ufl8723kheu50fq39d1lnjltrogndntoad9n2fhc4isvbtom44juc6584'
p5982
tp5983
Rp5984
sg1
((dp5985
I0
I143
sI1
I2
sI2
tp5986
Rp5987
g5
(S'-1a9s0m0qpe0hk69s3b1ngivejv95h2iap5de7tqj6re0o9begkdkuhuqolkif8'
p5988
tp5989
Rp5990
sg1
((dp5991
I0
I128
sI1
I1
sI2
tp5992
Rp5993
g5
(S'53gbechrrsvruotbki3hiu2p8dnbom3ffl65vteb4eh41hfv7a795ko7ev0rk6c7ku8g'
p5994
tp5995
Rp5996
sg1
((dp5997
I0
I29
sI1
I8
sI2
tp5998
Rp5999
g5
(S'-176cng3pu8q56k5578n7nrstrmg'
p6000
tp6001
Rp6002
sg1
((dp6003
I0
I95
sI1
I6
sI2
tp6004
Rp6005
g5
(S'-7njodqd2b1l145f5i1vgc22laa2i3aj76sakec0'
p6006
tp6007
Rp6008
sg1
((dp6009
I0
I80
sI1
I5
sI2
tp6010
Rp6011
g5
(S'p9fnsvbk7vbgtoltgsrv47ggb14jc7q5gomgfg7ismdif5tj1q4kq'
p6012
tp6013
Rp6014
sg1
((dp6015
I0
I196
sI1
I4
sI2
tp6016
Rp6017
g5
(S'1pms'
p6018
tp6019
Rp6020
sg1
((dp6021
I0
I52
sI2
tp6022
Rp6023
g5
(S'acoul4g810mm4fsebs8ju9sg496fgap0vi75b5j914e2r3luk5qa6lrkmjh7aq1o91oid7g'
p6024
tp6025
Rp6026
sg1
((dp6027
I0
I32
sI1
I9
sI2
tp6028
Rp6029
g5
(S'1en7gu'
p6030
tp6031
Rp6032
sg1
((dp6033
I0
I34
sI1
I2
sI2
tp6034
Rp6035
g5
(S'1kill8l5ti8evi863n2gdhr8vrkm8pf4vavmsa2hbfc503fdnmatrjvus6qogg'
p6036
tp6037
Rp6038
sg1
((dp6039
I0
I49
sI1
I3
sI2
tp6040
Rp6041
g5
(S'7c5sturvoemufcm0fiqngfi4gtuf3hvcufs4tegmkrkl4ob2oios2r7mjpmcs8'
p6042
tp6043
Rp6044
sg1
((dp6045
I0
I165
sI1
I2
sI2
tp6046
Rp6047
g5
(S'-2s4n13mhn1k27gp596scfn3euofuo8n0mbhab6gusf30ck0gq6ksk'
p6048
tp6049
Rp6050
sg1
((dp6051
I0
I150
sI1
I1
sI2
tp6052
Rp6053
g5
(S'1umi57edkh9taqqsai2aed29600jb3nbq1ga0dqbkp3ln7nec2tjgeqt84nk74'
p6054
tp6055
Rp6056
sg1
((dp6057
I0
I1
sI1
I7
sI2
tp6058
Rp6059
g5
(S'-qdfostqg9e5ahejdo3eee20'
p6060
tp6061
Rp6062
sg1
((dp6063
I0
I117
sI1
I6
sI2
tp6064
Rp6065
g5
(S'-4ctd1sjpjp28miplk5vjfga0g6ao'
p6066
tp6067
Rp6068
sg1
((dp6069
I0
I102
sI1
I5
sI2
tp6070
Rp6071
g5
(S'2ch3ik2rodhnuv87032gr3vjkbaddoitrhtjubrf1nlgci8u9oi'
p6072
tp6073
Rp6074
sg1
((dp6075
I0
I56
sI1
I2
sI2
tp6076
Rp6077
g5
(S'1rogvprti4d1mrjp44r75u5puddalc5ceig5jk2hre96qgnrv6048a79hdmc1fo5kgrc'
p6078
tp6079
Rp6080
sg1
((dp6081
I0
I71
sI1
I3
sI2
tp6082
Rp6083
g5
(S'7fl0fnjlv9e9ij1vql0pc7plt76onji596rdsvsccebqor07if1er6lnskubh78jg'
p6084
tp6085
Rp6086
sg1
((dp6087
I0
I187
sI1
I2
sI2
tp6088
Rp6089
g5
(S'-umfqkdhl2t1i8uhu5g3gpfhlqfh8j3q188o'
p6090
tp6091
Rp6092
sg1
((dp6093
I0
I172
sI1
I1
sI2
tp6094
Rp6095
g5
(S'-7tivr1udndgsifh5kooa6ktpcrphi5neketo1kp0fhdeqtd5iai'
p6096
tp6097
Rp6098
sg1
((dp6099
I0
I8
sI1
I6
sI2
tp6100
Rp6101
g5
(S'-7p4c55djfb7kl6afvmin9u9o2mfsrqpu0'
p6102
tp6103
Rp6104
sg1
((dp6105
I0
I23
sI1
I7
sI2
tp6106
Rp6107
g5
(S'-4c4soglg6ueblge96amkmla1nptutaueek8'
p6108
tp6109
Rp6110
sg1
((dp6111
I0
I124
sI1
I5
sI2
tp6112
Rp6113
g5
(S'2e5g2a6lvdjs2j5675gouljd8qs1ieagu87c2l0kgl6vm'
p6114
tp6115
Rp6116
sg1
((dp6117
I0
I137
sI2
tp6118
Rp6119
g5
(S'-4ipqgnie04iek4mejmc5ic9ushahpa2prm65orkatll1io7or13ujj6seb0ssaqkgc0q'
p6120
tp6121
Rp6122
sg1
((dp6123
I0
I78
sI1
I2
sI2
tp6124
Rp6125
g5
(S'403uppfmhlnkttm9r02jcppdivipc6rti69m5qt67t55125j5r755hv6ltcblgiessgbac'
p6126
tp6127
Rp6128
sg1
((dp6129
I0
I93
sI1
I3
sI2
tp6130
Rp6131
g5
(S'k79q8rgcul8dud2q5k6n82ekkf89v5u7fdt852nqgd638e7pc3p95798gub1de854'
p6132
tp6133
Rp6134
sg1
((dp6135
I0
I194
sI1
I1
sI2
tp6136
Rp6137
g5
(S'4pl43k6j17negmaa2n04vlo6k4'
p6138
tp6139
Rp6140
sg1
((dp6141
I0
I38
sI2
tp6142
Rp6143
g5
(S'142hh28m3v5odq2bumshktlngv973u5raru8eeh4ol2b05sut586u4433443nc6e0000'
p6144
tp6145
Rp6146
sg1
((dp6147
I0
I45
sI1
I7
sI2
tp6148
Rp6149
g5
(S'-8fdbqv254diri8n08trj3g96jlmom4sigvag'
p6150
tp6151
Rp6152
sg1
((dp6153
I0
I146
sI1
I5
sI2
tp6154
Rp6155
g5
(S'nml2g6nj6i62kd0qi1olvf9sf0ukule'
p6156
tp6157
Rp6158
sg1
((dp6159
I0
I100
sI1
I2
sI2
tp6160
Rp6161
g5
(S'3rjtvml7r7fbhr8dnpp0in8cblb1e4fqh39q9n6fk39dlh8okv5256crhitrt582reia4'
p6162
tp6163
Rp6164
sg1
((dp6165
I0
I115
sI1
I3
sI2
tp6166
Rp6167
g5
(S'-1cosr0sjl5qt2daq5d70fm1o1ju88se2jkalcepn48tnef9ub8fs811pufo72i6k'
p6168
tp6169
Rp6170
sg1
((dp6171
I0
I1
sI1
I9
sI2
tp6172
Rp6173
g5
(S'-9n45q8gl4mk'
p6174
tp6175
Rp6176
sg1
((dp6177
I0
I30
sI1
I7
sI2
tp6178
Rp6179
g5
(S'2060hc1qor7i6f14luqtl81i06rvbkl96p2o'
p6180
tp6181
Rp6182
sg1
((dp6183
I0
I52
sI1
I6
sI2
tp6184
Rp6185
g5
(S'44cplrs34ddflu1tub5jumv7mp422a2bi3o4t936jjtlk8'
p6186
tp6187
Rp6188
sg1
((dp6189
I0
I67
sI1
I7
sI2
tp6190
Rp6191
g5
(S'-413rm9emh72q4ht4s98olagp6b47mh08'
p6192
tp6193
Rp6194
sg1
((dp6195
I0
I6
sI1
I3
sI2
tp6196
Rp6197
g5
(S'3sju9alpv0l57g271jjn545c654q136be080000000'
p6198
tp6199
Rp6200
sg1
((dp6201
I0
I122
sI1
I2
sI2
tp6202
Rp6203
g5
(S'-2qopep868hcukabqr7ri4ri1sqfukqtf78jcmjivbcujfv0dn6mcprb56odq871t8'
p6204
tp6205
Rp6206
sg1
((dp6207
I0
I137
sI1
I3
sI2
tp6208
Rp6209
g5
(S'e3s2f54l5l9lo5k4b7i1ncf2vhjc2ug7dhjab9tppbo8igioomnrioptugs'
p6210
tp6211
Rp6212
sg1
((dp6213
I0
I74
sI1
I6
sI2
tp6214
Rp6215
g5
(S'-4i9dqlpni6qjlchca5oganaqnp4kl567q42bptbj5js8'
p6216
tp6217
Rp6218
sg1
((dp6219
I0
I89
sI1
I7
sI2
tp6220
Rp6221
g5
(S'1tuknnbontkjh27biuvro'
p6222
tp6223
Rp6224
sg1
((dp6225
I0
I123
sI2
tp6226
Rp6227
g5
(S'-13rb473smglu06n9q32ocb9b6r5pfcv0dve52hfkk1rq4s0ntmciufgf2l36k0i0f9kj1bva'
p6228
tp6229
Rp6230
sg1
((dp6231
I0
I28
sI1
I3
sI2
tp6232
Rp6233
g5
(S'-22j7cs53tbh3jnuqh2nvsfunf1kucrk0bq7j3bffcifqij6tri172000'
p6234
tp6235
Rp6236
sg1
((dp6237
I0
I17
sI1
I9
sI2
tp6238
Rp6239
g5
(S'64gmh11id1ci5s'
p6240
tp6241
Rp6242
sg1
((dp6243
I0
I144
sI1
I2
sI2
tp6244
Rp6245
g5
(S'fr0blm0mhvs02vimqsch45lgbq6li9f0v715ju22g98p584r6spjp5l2rq6es'
p6246
tp6247
Rp6248
sg1
((dp6249
I0
I159
sI1
I3
sI2
tp6250
Rp6251
g5
(S'2c35v45eahndlvnr79mv6u3rdaj72md3118oc5238ilgflk8jcc'
p6252
tp6253
Rp6254
sg1
((dp6255
I0
I24
sI2
tp6256
Rp6257
g5
(S'24d8io48cd3bc338scmmv9nlabt9css8dbnvku3va5aul9cidt94pbk0000000'
p6258
tp6259
Rp6260
sg1
((dp6261
I0
I96
sI1
I6
sI2
tp6262
Rp6263
g5
(S'2htin956b93g40trfut77460se5me14i072nh60'
p6264
tp6265
Rp6266
sg1
((dp6267
I0
I50
sI1
I3
sI2
tp6268
Rp6269
g5
(S'-6n8p0b8p61siih4gk8sr6dm40n56j4bkotkvormdk6tjqaq6vv2oct4d6mq96k'
p6270
tp6271
Rp6272
sg1
((dp6273
I0
I166
sI1
I2
sI2
tp6274
Rp6275
g5
(S'dtbi3d84v6qj2ovk6tco2tbj7e1c5ptl9vrir1klq0iem1jf2mc8'
p6276
tp6277
Rp6278
sg1
((dp6279
I0
I181
sI1
I3
sI2
tp6280
Rp6281
g5
(S'-6kc3qlgd5fmbhijn3d311sa72tghejks9mg'
p6282
tp6283
Rp6284
sg1
((dp6285
I0
I2
sI1
I7
sI2
tp6286
Rp6287
g5
(S'quqkfvh10mr9ha65t5s49p10'
p6288
tp6289
Rp6290
sg1
((dp6291
I0
I118
sI1
I6
sI2
tp6292
Rp6293
g5
(S'8brt997gvuol0lj8rt6qauk538g'
p6294
tp6295
Rp6296
sg1
((dp6297
I0
I17
sI1
I4
sI2
tp6298
Rp6299
g5
(S'-jun36v0eb2s07i9r1os4evod7omk7deje0h9g5d164vc8dg'
p6300
tp6301
Rp6302
sg1
((dp6303
I0
I72
sI1
I3
sI2
tp6304
Rp6305
g5
(S'-98d467uqr4ir6vmmpvro99qid5vovc94rbap78ccb70pq98rvjfphot7tscp1hscg'
p6306
tp6307
Rp6308
sg1
((dp6309
I0
I188
sI1
I2
sI2
tp6310
Rp6311
g5
(S'bp5464d4vpk5i97uns61rljgpqh4gbvemg'
p6312
tp6313
Rp6314
sg1
((dp6315
I0
I109
sI2
tp6316
Rp6317
g5
(S'-2mbdmi7qma0l6f3p1trvl5eki7frgtgr37pshhmt1hjiibfk30l45dk7adgagke19lfc5hvhr2'
p6318
tp6319
Rp6320
sg1
((dp6321
I0
I24
sI1
I7
sI2
tp6322
Rp6323
g5
(S'9lqtcmdrionfapfbi2ap4c88338eqml9b8o'
p6324
tp6325
Rp6326
sg1
((dp6327
I0
I39
sI1
I4
sI2
tp6328
Rp6329
g5
(S'-37c6d80gfr1afq4gdc2f37v1cnrvfcjq0m061umlukbd06trrus49oeo'
p6330
tp6331
Rp6332
sg1
((dp6333
I0
I26
sI1
I8
sI2
tp6334
Rp6335
g5
(S'1onu4v8gp2b7i4noubr91gqde52'
p6336
tp6337
Rp6338
sg1
((dp6339
I0
I10
sI2
tp6340
Rp6341
g5
(S'gtlq42sq8v5274ujt0chsaqj8ef3mc1vsdfhdcg0000000000000'
p6342
tp6343
Rp6344
sg1
((dp6345
I0
I94
sI1
I3
sI2
tp6346
Rp6347
g5
(S'-hh8j26m2ve4m7cb4mr1u1jfnc871u5dnj1lflj2kbfcnqcnccsaofpoc5qame28fo'
p6348
tp6349
Rp6350
sg1
((dp6351
I0
I46
sI1
I7
sI2
tp6352
Rp6353
g5
(S'b5dm40v6qnbj1k2a3bnb7m6ttqt7ddmjqa8o'
p6354
tp6355
Rp6356
sg1
((dp6357
I0
I61
sI1
I4
sI2
tp6358
Rp6359
g5
(S'q59iqmn4gsq6a680cmn0u93v3og83nla818e877rt1vn0glucmkoj3h1mgs'
p6360
tp6361
Rp6362
sg1
((dp6363
I0
I116
sI1
I3
sI2
tp6364
Rp6365
g5
(S'oka1vb3mbdd7nucu2gb6ia58c7o9pne0s58up5i5tkh5n285emgk4rfog6d0edg'
p6366
tp6367
Rp6368
sg1
((dp6369
I0
I15
sI1
I1
sI2
tp6370
Rp6371
g5
(S'-cul38b52sa71mnmn8hbknemojih46jetierh5fm5pkkpu00000000'
p6372
tp6373
Rp6374
sg1
((dp6375
I0
I194
sI2
tp6376
Rp6377
g5
(S'1vppvgk7mubu0vvtec5c57n4c1akk'
p6378
tp6379
Rp6380
sg1
((dp6381
I0
I68
sI1
I7
sI2
tp6382
Rp6383
g5
(S'2grkldbd0ek29fvos7d2hb7s1qf178k8'
p6384
tp6385
Rp6386
sg1
((dp6387
I0
I83
sI1
I4
sI2
tp6388
Rp6389
g5
(S'-50kr9nou8khmbr1m15cql9tvv57gnhhhn1uj3pndmge4fqhfvv07pmq0k2bli'
p6390
tp6391
Rp6392
sg1
((dp6393
I0
I35
sI1
I8
sI2
tp6394
Rp6395
g5
(S'-3eg034i864dj23r6ji23pni3a0'
p6396
tp6397
Rp6398
sg1
((dp6399
I0
I95
sI2
tp6400
Rp6401
g5
(S'-2obvjmppclscfcd90ibkv8co99krtr9kscofhfq9os2c84s19e64ooe9nntdl3sngeek9flvkim'
p6402
tp6403
Rp6404
sg1
((dp6405
I0
I138
sI1
I3
sI2
tp6406
Rp6407
g5
(S'-62f5e6gtj3uf135pvos6t15dkbt40r82sn4140buqen5ikgbtnmjeadhahk'
p6408
tp6409
Rp6410
sg1
((dp6411
I0
I37
sI1
I1
sI2
tp6412
Rp6413
g5
(S'b6tarlduu1rcd4almup47cgoo3aqcphj4jjj075iojirerfklu5giess35u8io2o0'
p6414
tp6415
Rp6416
sg1
((dp6417
I0
I90
sI1
I7
sI2
tp6418
Rp6419
g5
(S'-38u74qe9sgjfpc4ib7p0'
p6420
tp6421
Rp6422
sg1
((dp6423
I0
I105
sI1
I4
sI2
tp6424
Rp6425
g5
(S'169cu5epuq3bgi73ha6g87pr0sgffcbmn8gb09cmmu9bs3f4tnemt2hf6rqbk'
p6426
tp6427
Rp6428
sg1
((dp6429
I0
I160
sI1
I3
sI2
tp6430
Rp6431
g5
(S'-8u72d7h0jt4ss25dv03aa91ido2avlfqemfqeclus4v0htlc9k'
p6432
tp6433
Rp6434
sg1
((dp6435
I0
I59
sI1
I1
sI2
tp6436
Rp6437
g5
(S'uqvdg5mrqda474caq20daij2am07borrus93a5v76gfev0ft1j6ddpf3p0fojfmi1p6iqk'
p6438
tp6439
Rp6440
sg1
((dp6441
I0
I11
sI1
I5
sI2
tp6442
Rp6443
g5
(S'-6tjeo8rbei27qqrk9rrhiliqnapgp735fqcu3e0'
p6444
tp6445
Rp6446
sg1
((dp6447
I0
I127
sI1
I4
sI2
tp6448
Rp6449
g5
(S'-6mhvoesrjil1ptcth8gvqh3co1m9lrg4k6grtt04uqnsudkqh9djpkh9em'
p6450
tp6451
Rp6452
sg1
((dp6453
I0
I180
sI2
tp6454
Rp6455
g5
(S'f920isi3snpkk0k0e7jvaba9kjbnksbge8dshgmvof4v6gc'
p6456
tp6457
Rp6458
sg1
((dp6459
I0
I182
sI1
I3
sI2
tp6460
Rp6461
g5
(S'5538udb1sp8165fc9be7qlrckfm7ft5rho'
p6462
tp6463
Rp6464
sg1
((dp6465
I0
I81
sI1
I1
sI2
tp6466
Rp6467
g5
(S'1c589jk0d1u5nnsdvlki2b6dihd1kj88tii577f1tpj3k5p4mquu43iuj3fkj3krftc1g8ui'
p6468
tp6469
Rp6470
sg1
((dp6471
I0
I33
sI1
I5
sI2
tp6472
Rp6473
g5
(S'ihdpe0gdfflvb738q0socs4ufqe4hkkj3ra5dsu39d46j91f4'
p6474
tp6475
Rp6476
sg1
((dp6477
I0
I81
sI2
tp6478
Rp6479
g5
(S'-1evn29mbm76nkl08j8piu5b6qtvelitddj80sapob16qojcqnsgn0dmt295c1kjp5732lfjah16'
p6480
tp6481
Rp6482
sg1
((dp6483
I0
I149
sI1
I4
sI2
tp6484
Rp6485
g5
(S'-oa0sipebisvl1ac5474e81j87j25vpgb01fggn60b410tnlk2m'
p6486
tp6487
Rp6488
sg1
((dp6489
I0
I103
sI1
I1
sI2
tp6490
Rp6491
g5
(S'-71o667k5gm2cd06thhg43s5pm7847vliqevcnfn34lpihtgr01b4jlb5dr8mssusg0hug30'
p6492
tp6493
Rp6494
sg1
((dp6495
I0
I55
sI1
I5
sI2
tp6496
Rp6497
g5
(S'73cbq0tmaoquohhiuvc2j0451kka9bgfnaqkhjuloibal85q2e2cq'
p6498
tp6499
Rp6500
sg1
((dp6501
I0
I171
sI1
I4
sI2
tp6502
Rp6503
g5
(S'-6bh8ccha4p8uinfnoqi9ftfb1up7dumk06ug'
p6504
tp6505
Rp6506
sg1
((dp6507
I0
I7
sI1
I9
sI2
tp6508
Rp6509
g5
(S'-tbfeoj5masi70'
p6510
tp6511
Rp6512
sg1
((dp6513
I0
I125
sI1
I1
sI2
tp6514
Rp6515
g5
(S'-126u3b6aki97uk8ucn4049ef0k7d77rgr5s6uhv3tnpmn9kuramhhbk7phjqurjtomksu'
p6516
tp6517
Rp6518
sg1
((dp6519
I0
I77
sI1
I5
sI2
tp6520
Rp6521
g5
(S'-16ec3ellkvbij0hm5v67824ko9p7rmuj13fn4hp3seqodjv4fchdgq'
p6522
tp6523
Rp6524
sg1
((dp6525
I0
I166
sI2
tp6526
Rp6527
g5
(S'23nugr0he37eul1ad7s40e7e5she7msb7qo92ehtmpti6mtt4nii6vgb4'
p6528
tp6529
Rp6530
sg1
((dp6531
I0
I193
sI1
I4
sI2
tp6532
Rp6533
g5
(S'-d3imrpinc'
p6534
tp6535
Rp6536
sg1
((dp6537
I0
I14
sI1
I4
sI2
tp6538
Rp6539
g5
(S'tjlqua2j5n86vp1d3o5hm1nurc879aij62ob9p3rtvnu0'
p6540
tp6541
Rp6542
sg1
((dp6543
I0
I147
sI1
I1
sI2
tp6544
Rp6545
g5
(S'-27nvv7a9d765ge3tusfe7vlhe3vtut624c8a8h1m6ma8eaqp0rnuidveaqj57qe'
p6546
tp6547
Rp6548
sg1
((dp6549
I0
I67
sI2
tp6550
Rp6551
g5
(S'-nkibqe9m1pcrrbttv1uuqpg76bgfh9nhncesokl4h0l5jprhgn87nrs46mcpmba1gjev421ms'
p6552
tp6553
Rp6554
sg1
((dp6555
I0
I99
sI1
I5
sI2
tp6556
Rp6557
g5
(S'618iekbbtrt65t2qfbpnc4l84hcn76q760he6glk3s66fgemch2'
p6558
tp6559
Rp6560
sg1
((dp6561
I0
I36
sI1
I4
sI2
tp6562
Rp6563
g5
(S'82i7sl6ec6cvulrl65abcocc6u4m2r5ajeb51cankp3u7gjmp745q5m'
p6564
tp6565
Rp6566
sg1
((dp6567
I0
I169
sI1
I1
sI2
tp6568
Rp6569
g5
(S'-ka4h5ed53e1pgvvbbqea60aac2n3v342f9uhrcn5cmvcbn4hmft6'
p6570
tp6571
Rp6572
sg1
((dp6573
I0
I5
sI1
I2
sI2
tp6574
Rp6575
g5
(S'-1ff4gg4d2r6iktklb8srlbnv0slc5epb5g0000000000'
p6576
tp6577
Rp6578
sg1
((dp6579
I0
I121
sI1
I5
sI2
tp6580
Rp6581
g5
(S'-3frgse2ait02kmlp315l5msnbth1lor72e1kuav3ohv060'
p6582
tp6583
Rp6584
sg1
((dp6585
I0
I58
sI1
I4
sI2
tp6586
Rp6587
g5
(S'-8t6i3dei3o6n6tip7m4vl9iqchn35km61riqmndonj4ja86b4vvg8qtu60'
p6588
tp6589
Rp6590
sg1
((dp6591
I0
I191
sI1
I1
sI2
tp6592
Rp6593
g5
(S'5odedpmrjnhmrlu6kqqkcj27vk4fioltc'
p6594
tp6595
Rp6596
sg1
((dp6597
I0
I27
sI1
I2
sI2
tp6598
Rp6599
g5
(S'-1hvicstu7u2dofvr1fga8um81tt7k5po9b8bu5qqnh5uhsnvldoav4kjp40'
p6600
tp6601
Rp6602
sg1
((dp6603
I0
I152
sI2
tp6604
Rp6605
g5
(S'64pg5pon3vgn8cue1csat6rvuk6csjfki6d8ctp3a03lbjvmf8qstq1ie6dadji'
p6606
tp6607
Rp6608
sg1
((dp6609
I0
I12
sI1
I1
sI2
tp6610
Rp6611
g5
(S'ran3kf5atla6b9ukf4fqohadh5bj5mm2uqouanc7ng000000000'
p6612
tp6613
Rp6614
sg1
((dp6615
I0
I143
sI1
I5
sI2
tp6616
Rp6617
g5
(S'3a7d0joq31p21jo88it9jcop3vd05bg2o4'
p6618
tp6619
Rp6620
sg1
((dp6621
I0
I80
sI1
I4
sI2
tp6622
Rp6623
g5
(S'-2lfr00a121daq2nc2qmusibo8t2jvb2gmfhl65dtmbu7uipek7o6mgimi87o'
p6624
tp6625
Rp6626
sg1
((dp6627
I0
I53
sI2
tp6628
Rp6629
g5
(S'-kffbr9ka0q095h6ok14ul5dqad8pm8jaik0t4van3obsknik42j1719ph9rna59u5uof5fg'
p6630
tp6631
Rp6632
sg1
((dp6633
I0
I32
sI1
I8
sI2
tp6634
Rp6635
g5
(S'femqs7gd4vrluh2tgcbtn8cmf4'
p6636
tp6637
Rp6638
sg1
((dp6639
I0
I49
sI1
I2
sI2
tp6640
Rp6641
g5
(S'-cbtdmt7ebg5bfcmdcha0j1iov92g2rmhd10jqf9nrjauhs8iht30prr1etvedlemps'
p6642
tp6643
Rp6644
sg1
((dp6645
I0
I34
sI1
I1
sI2
tp6646
Rp6647
g5
(S'-8dc1ntiuogjdvs3lkvo2mls4v0hu1rbru8d1bi5ijrcidhg8q13nb64h0hcs1700'
p6648
tp6649
Rp6650
sg1
((dp6651
I0
I1
sI1
I6
sI2
tp6652
Rp6653
g5
(S'-6ru0eohm9bd1r8483j2kmk81g0'
p6654
tp6655
Rp6656
sg1
((dp6657
I0
I102
sI1
I4
sI2
tp6658
Rp6659
g5
(S'du9htkkdagokm46qn6aarivo7f1mu290c91k4lur2g9gbf119jaokc12jtpm'
p6660
tp6661
Rp6662
sg1
((dp6663
I0
I71
sI1
I2
sI2
tp6664
Rp6665
g5
(S'-172bonuhk5jatamr1ianmkv5mud9fbbro1d26g9rnc53unes86hu1n4mgncqcfdd3t1630'
p6666
tp6667
Rp6668
sg1
((dp6669
I0
I56
sI1
I1
sI2
tp6670
Rp6671
g5
(S'-5qb6f7i0l7n7gdfivi5j43m29m46nv1tsobom2u9k8nvqiu1ofspv6o1cfs9rlk2crpc4m'
p6672
tp6673
Rp6674
sg1
((dp6675
I0
I23
sI1
I6
sI2
tp6676
Rp6677
g5
(S'-baeot7ja2b4ohvi4snllheb7k428iquo4ebq492co'
p6678
tp6679
Rp6680
sg1
((dp6681
I0
I8
sI1
I5
sI2
tp6682
Rp6683
g5
(S'-1hj3k6vvudbkdg4cr30bpglrfo870mihibts0'
p6684
tp6685
Rp6686
sg1
((dp6687
I0
I124
sI1
I4
sI2
tp6688
Rp6689
g5
(S'1qoe0c1lg5qn5tmq1146itrcpode7a1bddi1c37k7v7anmhe9ctj3hbcofu'
p6690
tp6691
Rp6692
sg1
((dp6693
I0
I138
sI2
tp6694
Rp6695
g5
(S'1l2afns9890ookdfsfj9n57odmvdha9dui3latom6282lujvpc5ip623bb5a8oscfuqk'
p6696
tp6697
Rp6698
sg1
((dp6699
I0
I93
sI1
I2
sI2
tp6700
Rp6701
g5
(S'-16nb72g658chhkqvoetcoof3o1tp5nu91talubeggi83hm45r925a1mi1iadu0jkjui8b4'
p6702
tp6703
Rp6704
sg1
((dp6705
I0
I78
sI1
I1
sI2
tp6706
Rp6707
g5
(S'-38li43h7ilh40bkcomfp28b08i3ib7gveda23j3j4l3v7jggjegegfafq032l8j8s7m326em'
p6708
tp6709
Rp6710
sg1
((dp6711
I0
I45
sI1
I6
sI2
tp6712
Rp6713
g5
(S'-1vg2pllvkqjk9cc1k0acsudta8cfsj1af9g4v6v74rq0qo'
p6714
tp6715
Rp6716
sg1
((dp6717
I0
I30
sI1
I5
sI2
tp6718
Rp6719
g5
(S'-1mno65fpsp2ju7i52qpt58uf6s8qhe1vva9icg9ubhpbehn1i'
p6720
tp6721
Rp6722
sg1
((dp6723
I0
I146
sI1
I4
sI2
tp6724
Rp6725
g5
(S'2omqr5c2g5aecslu2s4jv6vlakriovg45b4otho4i040re8luave'
p6726
tp6727
Rp6728
sg1
((dp6729
I0
I115
sI1
I2
sI2
tp6730
Rp6731
g5
(S'-123au1qsnaa3na2059cfed8m1uefttktip65v63q3k7l1aph2gseub6d476f2rjtcto'
p6732
tp6733
Rp6734
sg1
((dp6735
I0
I100
sI1
I1
sI2
tp6736
Rp6737
g5
(S'nnr7n7t0vjv2d8ltmmcgb1tvk0qvpklp55a37572q249l1gb7qfokc0dadidq04pqu4epv0'
p6738
tp6739
Rp6740
sg1
((dp6741
I0
I1
sI1
I8
sI2
tp6742
Rp6743
g5
(S'-jf7ioa8lvj1rsr7crkk'
p6744
tp6745
Rp6746
sg1
((dp6747
I0
I67
sI1
I6
sI2
tp6748
Rp6749
g5
(S'-33d6mglcpaqsn8ekta7iprq4nqeppeg1pmi1b74c9qb10'
p6750
tp6751
Rp6752
sg1
((dp6753
I0
I52
sI1
I5
sI2
tp6754
Rp6755
g5
(S'-44ibdm1389c1n1v9q5vu855ujee7opdfi0op3h1gr12nt20mcl1cq'
p6756
tp6757
Rp6758
sg1
((dp6759
I0
I168
sI1
I4
sI2
tp6760
Rp6761
g5
(S'14k3tch9kdnt41pec4br53u1c39512ptjdd3kqs'
p6762
tp6763
Rp6764
sg1
((dp6765
I0
I4
sI1
I9
sI2
tp6766
Rp6767
g5
(S'20quo4jrlppri'
p6768
tp6769
Rp6770
sg1
((dp6771
I0
I6
sI1
I2
sI2
tp6772
Rp6773
g5
(S'kmnor2c21qk3d5tlcis438hiqr84427u860000000000'
p6774
tp6775
Rp6776
sg1
((dp6777
I0
I21
sI1
I3
sI2
tp6778
Rp6779
g5
(S'-md50s941a4immekt02rddi5tm0eh8mbb7bnl0nioq1o217tvamo0'
p6780
tp6781
Rp6782
sg1
((dp6783
I0
I137
sI1
I2
sI2
tp6784
Rp6785
g5
(S'-76ektfgm2kp3t24josvp67frsl4ccl60klfiblfchm3sptkvregq9elh5a9ld44'
p6786
tp6787
Rp6788
sg1
((dp6789
I0
I122
sI1
I1
sI2
tp6790
Rp6791
g5
(S'5deoqbsf4brs7lgm84oe4mmfdtu5ag7l04i6lvg4b8r9iv4pgfv87tngs6lgke1hb6u64'
p6792
tp6793
Rp6794
sg1
((dp6795
I0
I89
sI1
I6
sI2
tp6796
Rp6797
g5
(S'1jbsvil95tkcdj0rf42aq9414u99uuhsji3fa5bo0'
p6798
tp6799
Rp6800
sg1
((dp6801
I0
I124
sI2
tp6802
Rp6803
g5
(S'h56j5hfukodqmdcj6qf649o79g82b2r7ssvtqfskm6qvvbb0i926rm84n4ogm05vsfk9ck8'
p6804
tp6805
Rp6806
sg1
((dp6807
I0
I74
sI1
I5
sI2
tp6808
Rp6809
g5
(S'-3uieiiv7dpulrpk4dof2h7fs68ltqsqnn7dn119p43ggumspm3i5k'
p6810
tp6811
Rp6812
sg1
((dp6813
I0
I190
sI1
I4
sI2
tp6814
Rp6815
g5
(S'74j6167qfgb9mo'
p6816
tp6817
Rp6818
sg1
((dp6819
I0
I28
sI1
I2
sI2
tp6820
Rp6821
g5
(S'83d0lq51lhde7nr884irs6rvuvhh178knq8ou88evetkhelq4nidjoc8b2g'
p6822
tp6823
Rp6824
sg1
((dp6825
I0
I43
sI1
I3
sI2
tp6826
Rp6827
g5
(S'6vph5033aem48gvo6dmh75501p8vflks9ge1irtsa543vri99cs6pvi3sj698'
p6828
tp6829
Rp6830
sg1
((dp6831
I0
I159
sI1
I2
sI2
tp6832
Rp6833
g5
(S'-2iv3n6gp8r9t09b36mt67gv7hi0b6cokh5lv043cgevmv3pvr24im240'
p6834
tp6835
Rp6836
sg1
((dp6837
I0
I25
sI2
tp6838
Rp6839
g5
(S'-cp0dm99q18i1k261ip0pnrrah7gg6cqkve6pnde29e607vupf9jg7hq0000000'
p6840
tp6841
Rp6842
sg1
((dp6843
I0
I144
sI1
I1
sI2
tp6844
Rp6845
g5
(S'28rlege5nlak0niebr0qsrgk526jsv8i81pt1d25smjbq4ar3p2b1hi1miq61lgq'
p6846
tp6847
Rp6848
sg1
((dp6849
I0
I45
sI1
I8
sI2
tp6850
Rp6851
g5
(S'-8k3c7g6l6gmbe5ihrnbsq7m'
p6852
tp6853
Rp6854
sg1
((dp6855
I0
I111
sI1
I6
sI2
tp6856
Rp6857
g5
(S'-7iamuvos6id5t4svjio0fvf5dcmhh6bg'
p6858
tp6859
Rp6860
sg1
((dp6861
I0
I96
sI1
I5
sI2
tp6862
Rp6863
g5
(S'-3ds7golq011qlhboopgh1ikfhijdgms2a27tqn025mb4anv2bobs'
p6864
tp6865
Rp6866
sg1
((dp6867
I0
I50
sI1
I2
sI2
tp6868
Rp6869
g5
(S'rkser704c40udf49f05sg6dv9eb36bl13c0erqnnp9e62hsbbsgqcql7fj03cgavu0'
p6870
tp6871
Rp6872
sg1
((dp6873
I0
I65
sI1
I3
sI2
tp6874
Rp6875
g5
(S'-bhk0psj5p15qck8tkjrehialosl6fsdaqeg398m27lln75sv4k99n4ef0akq71gs'
p6876
tp6877
Rp6878
sg1
((dp6879
I0
I181
sI1
I2
sI2
tp6880
Rp6881
g5
(S'-27fdm0s4fkugb19qscn7uivlvb06hqpqv6pm2ed5p8'
p6882
tp6883
Rp6884
sg1
((dp6885
I0
I166
sI1
I1
sI2
tp6886
Rp6887
g5
(S'1i4efcfmnndrfoflo6dnajp0o4f5nkv9rfla4u0o6f5pofnssob2q1a'
p6888
tp6889
Rp6890
sg1
((dp6891
I0
I2
sI1
I6
sI2
tp6892
Rp6893
g5
(S'b8e8h9ep0lrampuu4eduignvj840'
p6894
tp6895
Rp6896
sg1
((dp6897
I0
I17
sI1
I7
sI2
tp6898
Rp6899
g5
(S'1b76a5o0lhakiqjucp9e8nq950jq9868'
p6900
tp6901
Rp6902
sg1
((dp6903
I0
I118
sI1
I5
sI2
tp6904
Rp6905
g5
(S'-111u5pprlh0510vb84nf7jtdktuuacjkof0el3h7uikid7e'
p6906
tp6907
Rp6908
sg1
((dp6909
I0
I72
sI1
I2
sI2
tp6910
Rp6911
g5
(S'1hk7ooge85j2ufank0eko1adpqb47ahjf2pqsa207j4rnu1e81lv0ndfeoeri3s8hadudk'
p6912
tp6913
Rp6914
sg1
((dp6915
I0
I87
sI1
I3
sI2
tp6916
Rp6917
g5
(S'-5rse1gphlgd6o7vvcsd538ar4g9km6967inphnn9jiko7f47qf9ltdfkoah285mjs'
p6918
tp6919
Rp6920
sg1
((dp6921
I0
I110
sI2
tp6922
Rp6923
g5
(S'1p9v6pssbssrai697ruofg7nfh545pa2ch8g804tp3fg4tudrcqj9ttljalvq5n93qh4u2f476'
p6924
tp6925
Rp6926
sg1
((dp6927
I0
I188
sI1
I1
sI2
tp6928
Rp6929
g5
(S'-1jepig8skt4sdidqke69fpir0d62s974i60vi'
p6930
tp6931
Rp6932
sg1
((dp6933
I0
I24
sI1
I6
sI2
tp6934
Rp6935
g5
(S'16p992r760n6r3ackbdn4pp2tfuiufatvhdapp3t60'
p6936
tp6937
Rp6938
sg1
((dp6939
I0
I39
sI1
I7
sI2
tp6940
Rp6941
g5
(S'1ovgbtfmqcc2f23l9ffhfganj2tbfngogalso'
p6942
tp6943
Rp6944
sg1
((dp6945
I0
I140
sI1
I5
sI2
tp6946
Rp6947
g5
(S'16d86g4vk9f036oa2fitvlv5tpebvip930ci'
p6948
tp6949
Rp6950
sg1
((dp6951
I0
I11
sI2
tp6952
Rp6953
g5
(S'2mi4hiuu06pbhok1l8odo4chlrf75nhktr7onsh30000000000000'
p6954
tp6955
Rp6956
sg1
((dp6957
I0
I94
sI1
I2
sI2
tp6958
Rp6959
g5
(S'tr2asgh2vo3bfhbnd027rn3moonpklad39mtgi5ju9u10l2poqpfgo69c5di3uqcce6tc'
p6960
tp6961
Rp6962
sg1
((dp6963
I0
I109
sI1
I3
sI2
tp6964
Rp6965
g5
(S'-qvp4h7g4ei6sfpkmt47u4ttckmko8tabg1jva1h5vu04gfejpc5f10qigtm4saig'
p6966
tp6967
Rp6968
sg1
((dp6969
I0
I46
sI1
I6
sI2
tp6970
Rp6971
g5
(S'2f1fvkbivs01913pur7coego1qogej5noff7m108edl6bg'
p6972
tp6973
Rp6974
sg1
((dp6975
I0
I61
sI1
I7
sI2
tp6976
Rp6977
g5
(S'21s5ib0dnt8gtk4lhf4p5im1gb60456p6o'
p6978
tp6979
Rp6980
sg1
((dp6981
I0
I162
sI1
I5
sI2
tp6982
Rp6983
g5
(S'9inuds20us'
p6984
tp6985
Rp6986
sg1
((dp6987
I1
I3
sI2
tp6988
Rp6989
g5
(S'-540s9fo91dnjm70r8n4j0v5gb00000000000'
p6990
tp6991
Rp6992
sg1
((dp6993
I0
I116
sI1
I2
sI2
tp6994
Rp6995
g5
(S'fsn4ts726eqd8ftq9emcv9fq7g128u613copi00g3sknvnqoe4q3l8mp2tgc8sqe14'
p6996
tp6997
Rp6998
sg1
((dp6999
I0
I131
sI1
I3
sI2
tp7000
Rp7001
g5
(S'l1f39q500efukrchio0ib6cb9hbuhvgveuu9lpqbi8iqg4dbl7pu0os89114'
p7002
tp7003
Rp7004
sg1
((dp7005
I0
I195
sI2
tp7006
Rp7007
g5
(S'-skvprd8u636stihm9qm9dui6'
p7008
tp7009
Rp7010
sg1
((dp7011
I0
I68
sI1
I6
sI2
tp7012
Rp7013
g5
(S'2daq91fnmvc66qt5veuo6bk84728k8tuj4klteqhq5nq8'
p7014
tp7015
Rp7016
sg1
((dp7017
I0
I83
sI1
I7
sI2
tp7018
Rp7019
g5
(S'-18drlupofonn65m1bcm452d5o'
p7020
tp7021
Rp7022
sg1
((dp7023
I0
I22
sI1
I3
sI2
tp7024
Rp7025
g5
(S'3fmurhhvrmupfgh09d2u7hecgvb9tb4mgi8ca45dcjmc54851v4i0'
p7026
tp7027
Rp7028
sg1
((dp7029
I0
I96
sI2
tp7030
Rp7031
g5
(S'2f18u2e282sru73894c2h6t8lluq4lfgcpomn03th12vk2t143ssut4cne52jdc46dejg4n35cm'
p7032
tp7033
Rp7034
sg1
((dp7035
I0
I138
sI1
I2
sI2
tp7036
Rp7037
g5
(S'3afqc31phc4d2t4oijf8jqiqmdal4mvu0tj3806ni1h8d7q5lnpnp89pa9o5bh0'
p7038
tp7039
Rp7040
sg1
((dp7041
I0
I153
sI1
I3
sI2
tp7042
Rp7043
g5
(S'322fvti9kphdf4663917tgku8ijn4vrun6ic9ta685v0npqedsh8pc'
p7044
tp7045
Rp7046
sg1
((dp7047
I0
I90
sI1
I6
sI2
tp7048
Rp7049
g5
(S'-8sudfprrmip8jmc18vcriv7g4e3ljnqq4l81vm18'
p7050
tp7051
Rp7052
sg1
((dp7053
I0
I174
sI2
tp7054
Rp7055
g5
(S'8sjfi7q5th3l0jjr049osnq6te6r2u5vbvd44hf3jt0kqj03kv1k'
p7056
tp7057
Rp7058
sg1
((dp7059
I0
I44
sI1
I3
sI2
tp7060
Rp7061
g5
(S'-fbq5vr9hc6if3db6ja0vgoqmkgu2f8bcba0a0kp5dq242qc0mkidkkvuetsm8'
p7062
tp7063
Rp7064
sg1
((dp7065
I0
I160
sI1
I2
sI2
tp7066
Rp7067
g5
(S'gp9afq4ehg4g0feksj6is9k5ed4pm4b6h4td2n89ci3qan0uqfqv5ts'
p7068
tp7069
Rp7070
sg1
((dp7071
I0
I175
sI1
I3
sI2
tp7072
Rp7073
g5
(S'g3642ruta2at72r0s42lqr3iuuvibvk40snfi0tk'
p7074
tp7075
Rp7076
sg1
((dp7077
I0
I112
sI1
I6
sI2
tp7078
Rp7079
g5
(S'sgbmiefo2n16pt4ttv6dgt6enq51eqg'
p7080
tp7081
Rp7082
sg1
((dp7083
I0
I11
sI1
I4
sI2
tp7084
Rp7085
g5
(S'-cphnhlme5c12pmgf6baruallvg8jjdctlpb8fkh4000'
p7086
tp7087
Rp7088
sg1
((dp7089
I0
I181
sI2
tp7090
Rp7091
g5
(S'-brqplq63mkm3bo76ii17tv8rlulgric1eng7rotg08i4tu'
p7092
tp7093
Rp7094
sg1
((dp7095
I0
I141
sI2
tp7096
Rp7097
g5
(S'-2daq5v413dh5jmrofa1rm1ik377kg28pch09f9g29e9206c14v9jl86eh9gtem3hefa'
p7098
tp7099
Rp7100
sg1
((dp7101
I0
I66
sI1
I3
sI2
tp7102
Rp7103
g5
(S'-2kplshrr7g8kgo5b6ptv1sv9nsm68inmpa90inqmpvjf9se61qpoo9cuptnhtvq8'
p7104
tp7105
Rp7106
sg1
((dp7107
I0
I182
sI1
I2
sI2
tp7108
Rp7109
g5
(S'2utv3037e952i93oeamvrbg0khk6m5aq06i95jqok'
p7110
tp7111
Rp7112
sg1
((dp7113
I0
I197
sI1
I3
sI2
tp7114
Rp7115
g5
(S'2n5c'
p7116
tp7117
Rp7118
sg1
((dp7119
I0
I18
sI1
I7
sI2
tp7120
Rp7121
g5
(S'8i0lnlh9aketnrso1bt1746c80u0dolp8'
p7122
tp7123
Rp7124
sg1
((dp7125
I0
I33
sI1
I4
sI2
tp7126
Rp7127
g5
(S'-crtr3ghrcgh1ps360maqhvsrij8k4l5gbkgaan6952ljmhc6mr0aq0'
p7128
tp7129
Rp7130
sg1
((dp7131
I0
I82
sI2
tp7132
Rp7133
g5
(S'1o4tfrovv02nri0v1e9voiboau4otquin97006o9fi07g4h66i4pvmqakrlnjdk55erdobae8ns'
p7134
tp7135
Rp7136
sg1
((dp7137
I0
I88
sI1
I3
sI2
tp7138
Rp7139
g5
(S'-2lt6fssnga21o9ib6h4h8famr5nfk7lp75d5qg0v3k26ke6nn07i4ssnqmh47l1nk'
p7140
tp7141
Rp7142
sg1
((dp7143
I0
I40
sI1
I7
sI2
tp7144
Rp7145
g5
(S'-1grnghojn0nhq680rgbisnp7c6o87h1s56ong'
p7146
tp7147
Rp7148
sg1
((dp7149
I0
I55
sI1
I4
sI2
tp7150
Rp7151
g5
(S'-1p775pveqc471ua6f1dtnj222bas6ai09cedct9fl8v1fr3edkkifk2cof8'
p7152
tp7153
Rp7154
sg1
((dp7155
I0
I42
sI1
I8
sI2
tp7156
Rp7157
g5
(S'a3npkd0q1aua3m9hkd7gsuv6'
p7158
tp7159
Rp7160
sg1
((dp7161
I0
I7
sI1
I8
sI2
tp7162
Rp7163
g5
(S'-81s0r01sraakfo7uaj7eebc'
p7164
tp7165
Rp7166
sg1
((dp7167
I0
I110
sI1
I3
sI2
tp7168
Rp7169
g5
(S'htjc9svub8hd1nbv92na0hqaq48asa8i5d449qt3julffud16v5u498r1cbhpn4s'
p7170
tp7171
Rp7172
sg1
((dp7173
I0
I9
sI1
I1
sI2
tp7174
Rp7175
g5
(S'dqcv29hp6jef9iomar91ofilm8hemm8b6pv0ou00000000000'
p7176
tp7177
Rp7178
sg1
((dp7179
I0
I62
sI1
I7
sI2
tp7180
Rp7181
g5
(S'-ond4da7jp1bbu475fvhunm3pes2s7r15g'
p7182
tp7183
Rp7184
sg1
((dp7185
I0
I77
sI1
I4
sI2
tp7186
Rp7187
g5
(S'2edlla0h5agr2r2ckdtskklabb7jmaobnlkdqub1ughmk6jei1pnnjtic7ieg'
p7188
tp7189
Rp7190
sg1
((dp7191
I0
I167
sI2
tp7192
Rp7193
g5
(S'-butsoathg22ctnbu17g9fc7n5qf5cb5i5b0g4i2dcq0mvp3hnvpa70q8'
p7194
tp7195
Rp7196
sg1
((dp7197
I0
I132
sI1
I3
sI2
tp7198
Rp7199
g5
(S'-dcfqcjj98h4q84d7kevpmm439f9n0k68s95daogbtjejvnepm7ie417be4g8'
p7200
tp7201
Rp7202
sg1
((dp7203
I0
I31
sI1
I1
sI2
tp7204
Rp7205
g5
(S'4ah78q1qgp2a5isqqme1j76jo8n0co4a1p2uphef4htpkhbku29a9lgrnfg8g00'
p7206
tp7207
Rp7208
sg1
((dp7209
I0
I84
sI1
I7
sI2
tp7210
Rp7211
g5
(S'-1uo843r66p1f6p8k2s6b9kc8'
p7212
tp7213
Rp7214
sg1
((dp7215
I0
I68
sI2
tp7216
Rp7217
g5
(S'12epac8d1q0bqh0ba4bu3nimsrfnsujsoi5d54p3r8hhqsi0ilrfq8fppqm06nfk3l68he86hu'
p7218
tp7219
Rp7220
sg1
((dp7221
I0
I99
sI1
I4
sI2
tp7222
Rp7223
g5
(S'-3l4v4tpr6l0gv36gpccs7cr9pb9pel4490s04a0auq5o2l87e899su7vlq0mk'
p7224
tp7225
Rp7226
sg1
((dp7227
I0
I51
sI1
I8
sI2
tp7228
Rp7229
g5
(S'-ji8c85u8hh9vvcjcg280'
p7230
tp7231
Rp7232
sg1
((dp7233
I0
I154
sI1
I3
sI2
tp7234
Rp7235
g5
(S'-jtfpv92apkqm0cppqsk7u8anu2sunlgh9rdoq572gt10ivb3hv2po'
p7236
tp7237
Rp7238
sg1
((dp7239
I0
I53
sI1
I1
sI2
tp7240
Rp7241
g5
(S'rgrgm7p2bsltelrneu1j2amm3eu0at3kbbrjn1m293utcmh8287dvm2jmmpimpvmrulka'
p7242
tp7243
Rp7244
sg1
((dp7245
I0
I5
sI1
I5
sI2
tp7246
Rp7247
g5
(S'-1t5v7oq6srkn3r53vig4star4s752vq6000'
p7248
tp7249
Rp7250
sg1
((dp7251
I0
I121
sI1
I4
sI2
tp7252
Rp7253
g5
(S'-b75u3o2guls70saqs9eu5jgadvkb944hdd0n3f0daoo0m5vlj4poagu4lfm'
p7254
tp7255
Rp7256
sg1
((dp7257
I0
I176
sI1
I3
sI2
tp7258
Rp7259
g5
(S'-14mm35krbic071s1tidk4jq1gvsluitmaqos2r9o'
p7260
tp7261
Rp7262
sg1
((dp7263
I0
I75
sI1
I1
sI2
tp7264
Rp7265
g5
(S'3erisulsjjvdlg6ce8dq02pdidsie1f9e5jvp0kjk258i3lqmifafeqq611hr2j7rg6t4mto'
p7266
tp7267
Rp7268
sg1
((dp7269
I0
I3
sI2
tp7270
Rp7271
g5
(S'2go0b8fpd4i705thv6ljadnrj2ucfg00000000000000000'
p7272
tp7273
Rp7274
sg1
((dp7275
I0
I153
sI2
tp7276
Rp7277
g5
(S'-1gvpk8jrc31fouto8u0tv6ns2fu9nrkdb0pdgi1kpgc575efcl27rsqhn6qar92'
p7278
tp7279
Rp7280
sg1
((dp7281
I0
I27
sI1
I5
sI2
tp7282
Rp7283
g5
(S'1v1io6cavtdtcdvhhhg3ch2glie1ef5gtkba5fk3l9g0fgqm'
p7284
tp7285
Rp7286
sg1
((dp7287
I0
I143
sI1
I4
sI2
tp7288
Rp7289
g5
(S'-6qnv0g1ki27rc4l69cf0s2r7emgeeuu8jn82nl0u163ei0elvcrqo'
p7290
tp7291
Rp7292
sg1
((dp7293
I0
I14
sI1
I9
sI2
tp7294
Rp7295
g5
(S'-bnt9nsa4j1puu8'
p7296
tp7297
Rp7298
sg1
((dp7299
I0
I54
sI2
tp7300
Rp7301
g5
(S'179450tiibufd0foccdos4gvgcvqg6nm8g7p3s4vnckb5d72cbj09prg7hq8hnb2npvqtkhc'
p7302
tp7303
Rp7304
sg1
((dp7305
I0
I97
sI1
I1
sI2
tp7306
Rp7307
g5
(S'-1qja32a72rfhfpvq49dsld7giurnm08itr33tase6cn22asd3qov4i20jhmjsjpmnbhoj0ia'
p7308
tp7309
Rp7310
sg1
((dp7311
I0
I49
sI1
I5
sI2
tp7312
Rp7313
g5
(S'j3mvs5sn2oqlbrfmklg89v324tln17u0r6dg8v0n0di21i4076k0'
p7314
tp7315
Rp7316
sg1
((dp7317
I0
I165
sI1
I4
sI2
tp7318
Rp7319
g5
(S'-39rlfrctjogvup5p1mcgg5ii3iuf2q3hobl92o6au'
p7320
tp7321
Rp7322
sg1
((dp7323
I0
I119
sI1
I1
sI2
tp7324
Rp7325
g5
(S'-kf933e87vitf185qajdb7mvp3uuhv0oianmt5gib517bvg07885dhivpjeql63cmjo3gc'
p7326
tp7327
Rp7328
sg1
((dp7329
I0
I71
sI1
I5
sI2
tp7330
Rp7331
g5
(S'1uhrd3o4cngnpaed4q3smgerohsn7c4vi7silq8d5ggelj3ugsso6m'
p7332
tp7333
Rp7334
sg1
((dp7335
I0
I187
sI1
I4
sI2
tp7336
Rp7337
g5
(S'-n6c1mgp8ckn45bptno'
p7338
tp7339
Rp7340
sg1
((dp7341
I0
I8
sI1
I4
sI2
tp7342
Rp7343
g5
(S'-jjrbkci5v4aik1nq8dcctev6penubl7dtr6ta000'
p7344
tp7345
Rp7346
sg1
((dp7347
I0
I23
sI1
I9
sI2
tp7348
Rp7349
g5
(S'-dt2b3d8pn5po'
p7350
tp7351
Rp7352
sg1
((dp7353
I0
I141
sI1
I1
sI2
tp7354
Rp7355
g5
(S'-1u19qak8dsl4ntk3bhm8vad00d8qvh6oqspe6rtitdcfohst7ap0nv0845pi3v93q'
p7356
tp7357
Rp7358
sg1
((dp7359
I0
I93
sI1
I5
sI2
tp7360
Rp7361
g5
(S'jhj3q79fiek3rbcn7mj7s97tg5gkkekl4naplcc8ema88koo64oq'
p7362
tp7363
Rp7364
sg1
((dp7365
I0
I30
sI1
I4
sI2
tp7366
Rp7367
g5
(S'dekcoedj7nqo29sft5lnhs22okd2srgrmo6g3di9rp41h3apkq6km'
p7368
tp7369
Rp7370
sg1
((dp7371
I0
I163
sI1
I1
sI2
tp7372
Rp7373
g5
(S'-fktglni937rofvks6eplrb54ghd7md29lfqph0fsii1garje4ibf91g0'
p7374
tp7375
Rp7376
sg1
((dp7377
I0
I115
sI1
I5
sI2
tp7378
Rp7379
g5
(S'4gmim6e07bkb75qd15vclmp2b16aolo709rte25ajdvjiqb8'
p7380
tp7381
Rp7382
sg1
((dp7383
I0
I52
sI1
I4
sI2
tp7384
Rp7385
g5
(S'd75mq8i4hiu4k1lq5efsqasq4ra6ad34q2ibeti650hrq90tu6chh4k0ss'
p7386
tp7387
Rp7388
sg1
((dp7389
I0
I185
sI1
I1
sI2
tp7390
Rp7391
g5
(S'-1b6uf0i9dkiqf4hfehff91gnof6vsofq60f1lfb1s'
p7392
tp7393
Rp7394
sg1
((dp7395
I0
I4
sI1
I8
sI2
tp7396
Rp7397
g5
(S'16dvkt342b0if2uvicv02c'
p7398
tp7399
Rp7400
sg1
((dp7401
I0
I21
sI1
I2
sI2
tp7402
Rp7403
g5
(S'-jr8bpvo12crnueou9lopo6tafgpsn6vn870dk67ul19pl33msdpk000'
p7404
tp7405
Rp7406
sg1
((dp7407
I0
I6
sI1
I1
sI2
tp7408
Rp7409
g5
(S'4jlu2k3ku7riiho9l4d8qldppb64ns46to0000000000000'
p7410
tp7411
Rp7412
sg1
((dp7413
I0
I137
sI1
I5
sI2
tp7414
Rp7415
g5
(S'-5p6f4fgnja8re8b2v67vmif9d47hp4h57206l0'
p7416
tp7417
Rp7418
sg1
((dp7419
I0
I125
sI2
tp7420
Rp7421
g5
(S'-80bmprhhvbbifra7pns2s8ggo2avp7st6suadb7ibkpofc80fdmmc7jmmnvncef23mgfbeu'
p7422
tp7423
Rp7424
sg1
((dp7425
I0
I74
sI1
I4
sI2
tp7426
Rp7427
g5
(S'-mfeu5fda49ogif7mtpp21b5eck9pgbqap81ssl3k330kj7jti93hmp659bi8'
p7428
tp7429
Rp7430
sg1
((dp7431
I0
I43
sI1
I2
sI2
tp7432
Rp7433
g5
(S'-1m8u66a0mhppifgqkaen302e411j0j9f9i2rii2r6l1itreji0cs839l0tq99opfg'
p7434
tp7435
Rp7436
sg1
((dp7437
I0
I28
sI1
I1
sI2
tp7438
Rp7439
g5
(S'-1ei90smu2ih9l4q36detcn6r1f77ctufuabn6msv7uumcp9gk643j9pcfue000'
p7440
tp7441
Rp7442
sg1
((dp7443
I0
I26
sI2
tp7444
Rp7445
g5
(S'27e61tipikfr2cqkgp0vmreomat0o3651htoub7lap0h3ci508aacee90000000'
p7446
tp7447
Rp7448
sg1
((dp7449
I0
I159
sI1
I5
sI2
tp7450
Rp7451
g5
(S'3j1jc1ejmbv9qvqla'
p7452
tp7453
Rp7454
sg1
((dp7455
I0
I96
sI1
I4
sI2
tp7456
Rp7457
g5
(S'2n73i9gcdrg8nee4v0a7l52mgfv899a8oiqeqpjh7nt4bte2kft3s58op0rug'
p7458
tp7459
Rp7460
sg1
((dp7461
I0
I48
sI1
I8
sI2
tp7462
Rp7463
g5
(S'3bb9vdltbm89djr1m4g7ci'
p7464
tp7465
Rp7466
sg1
((dp7467
I0
I65
sI1
I2
sI2
tp7468
Rp7469
g5
(S'-5km5rnjnlo79gc47vsss5n1ratk4ajo8vqckh28ueq10vcdo8eu5cfg5qhkpqvh9ivi0s'
p7470
tp7471
Rp7472
sg1
((dp7473
I0
I50
sI1
I1
sI2
tp7474
Rp7475
g5
(S'-3526pmie35j8tti643phkjsaak4tgtu51e1f81talum5otg1epgq0rvdr60f9hblk0a9a'
p7476
tp7477
Rp7478
sg1
((dp7479
I0
I17
sI1
I6
sI2
tp7480
Rp7481
g5
(S'-1ur2akk31o4i5hfmsuni0o1icdmb6bkdb5m95ag'
p7482
tp7483
Rp7484
sg1
((dp7485
I0
I2
sI1
I5
sI2
tp7486
Rp7487
g5
(S'-1vk5e6kjf96ftknjbd5khg5qdj6gs000'
p7488
tp7489
Rp7490
sg1
((dp7491
I0
I118
sI1
I4
sI2
tp7492
Rp7493
g5
(S'1djbrvppg8omg3srrea2opn7u8tvc95fut0gn375ksdlbrrsqmht91mh3u2s'
p7494
tp7495
Rp7496
sg1
((dp7497
I0
I35
sI2
tp7498
Rp7499
g5
(S'-10h9sj20cd986ouqghrdli2p381mmuebeq8habf5v0qps2poeftoimm7o7ntgge0000'
p7500
tp7501
Rp7502
sg1
((dp7503
I0
I87
sI1
I2
sI2
tp7504
Rp7505
g5
(S'-3iocfoalhumm8l4n3gppngeh5674suh8c87cu99cgho2cu1df8lrpu2998h5m2a86953gc'
p7506
tp7507
Rp7508
sg1
((dp7509
I0
I72
sI1
I1
sI2
tp7510
Rp7511
g5
(S'-2gijmf0bs5a1jut80c67btanm7biurh9h2s32rl8aloqu60csq5t2uafvuvpsip87m92eoug'
p7512
tp7513
Rp7514
sg1
((dp7515
I0
I111
sI2
tp7516
Rp7517
g5
(S'-156lt72chebg6lbe3udgh5j27ol4nu7m1nqrer3otj9pf8245hmtcgba6gc950vg6l4jh6nu58'
p7518
tp7519
Rp7520
sg1
((dp7521
I0
I39
sI1
I6
sI2
tp7522
Rp7523
g5
(S'-7cro0jlpegihnkkidaisjc15a2ni5tktiluikrghh4p70'
p7524
tp7525
Rp7526
sg1
((dp7527
I0
I24
sI1
I5
sI2
tp7528
Rp7529
g5
(S'-11icatm7t9o1vesvo5s9ei62g030m8cdt125qf8tao2vvlu'
p7530
tp7531
Rp7532
sg1
((dp7533
I0
I2
sI2
tp7534
Rp7535
g5
(S'-1n496bii9nj9i691sl43c4pnvoe8000000000000000000'
p7536
tp7537
Rp7538
sg1
((dp7539
I0
I140
sI1
I4
sI2
tp7540
Rp7541
g5
(S'bjlhnm3bopjehhduc1ftuij5vbe23v3g5tchd07m6t7ji5lifvdk50'
p7542
tp7543
Rp7544
sg1
((dp7545
I0
I30
sI1
I8
sI2
tp7546
Rp7547
g5
(S'uj70c4fnu462m12sd62er5rcgs'
p7548
tp7549
Rp7550
sg1
((dp7551
I0
I12
sI2
tp7552
Rp7553
g5
(S'-45328jikvor9r4q9m70f9cvjfmg929bq5fas21udc2000000000000'
p7554
tp7555
Rp7556
sg1
((dp7557
I0
I109
sI1
I2
sI2
tp7558
Rp7559
g5
(S'-1dgm28c2o83o4nivo3q80mn25dv6f4t8578prvijvbg78oftjjg5mnd5ptb4amiiqt2s'
p7560
tp7561
Rp7562
sg1
((dp7563
I0
I94
sI1
I1
sI2
tp7564
Rp7565
g5
(S'3c1fkejdgcev7g03dq0anij8rp2go5jh9r467avl2pf8mbfrdrfevakrk59kt2co3qn515d8'
p7566
tp7567
Rp7568
sg1
((dp7569
I0
I61
sI1
I6
sI2
tp7570
Rp7571
g5
(S'-ovdql8r8lnh9ap5kgl3g4mef2mnj2ofct9l71sesm0m70'
p7572
tp7573
Rp7574
sg1
((dp7575
I0
I46
sI1
I5
sI2
tp7576
Rp7577
g5
(S'4r1susorrsvp7natj4t00pfgi4blkt8lto1ub5uv7bll2unt0glq'
p7578
tp7579
Rp7580
sg1
((dp7581
I0
I162
sI1
I4
sI2
tp7582
Rp7583
g5
(S'536pk4mvq2g8qprfo6b5coq935t67tmpqav6oiks9lo'
p7584
tp7585
Rp7586
sg1
((dp7587
I1
I2
sI2
tp7588
Rp7589
g5
(S'1korrh728333pcbrke795rkej80000000000000'
p7590
tp7591
Rp7592
sg1
((dp7593
I0
I15
sI1
I3
sI2
tp7594
Rp7595
g5
(S'-3pq10iqslk9uuvkgpu3kkjucenvi7cvgosfli3g4gj90m0000'
p7596
tp7597
Rp7598
sg1
((dp7599
I0
I131
sI1
I2
sI2
tp7600
Rp7601
g5
(S'-a7nhjb1an1ojtqh04lisp6lnchq6i210a35j5n9ktav4v9rcjssosj1n46cpd4ig'
p7602
tp7603
Rp7604
sg1
((dp7605
I0
I116
sI1
I1
sI2
tp7606
Rp7607
g5
(S'1o70da1u7pkdsa6m4smnijrsk1o48rqbq7h1cl1nbctqkj8sqta2t84cn7af72u2lnsmia'
p7608
tp7609
Rp7610
sg1
((dp7611
I0
I196
sI2
tp7612
Rp7613
g5
(S'3m8k7loubft4o4923a'
p7614
tp7615
Rp7616
sg1
((dp7617
I0
I83
sI1
I6
sI2
tp7618
Rp7619
g5
(S'-id01qju4oepj2v0ctv9gbf75sbjqhk3fr111fna3g8'
p7620
tp7621
Rp7622
sg1
((dp7623
I0
I68
sI1
I5
sI2
tp7624
Rp7625
g5
(S'-1h4k4r6i5v2adlgd6s7v1ajvsmqs3d0d89mn4859lc7cb92vf91r2c'
p7626
tp7627
Rp7628
sg1
((dp7629
I0
I184
sI1
I4
sI2
tp7630
Rp7631
g5
(S'jnriu67rknvcshtat5kqtc'
p7632
tp7633
Rp7634
sg1
((dp7635
I0
I97
sI2
tp7636
Rp7637
g5
(S'-25708eem64t1bkpknb4pn9mplc5v9gkrd3clsd5kklsvcd1sba719gae6892eu4qvou9ei6piok'
p7638
tp7639
Rp7640
sg1
((dp7641
I0
I20
sI1
I9
sI2
tp7642
Rp7643
g5
(S'-eadukv8jba8bq'
p7644
tp7645
Rp7646
sg1
((dp7647
I0
I22
sI1
I2
sI2
tp7648
Rp7649
g5
(S'50n7r0qjr98n2v3q3r5b74i9ep5r7tk073qog2sosu1hrlm2r5p94o00'
p7650
tp7651
Rp7652
sg1
((dp7653
I0
I37
sI1
I3
sI2
tp7654
Rp7655
g5
(S'ks723td20qqvikccp1jebdg1o6rk8nfr35kvqmrf696p308q2r5qbas02ck'
p7656
tp7657
Rp7658
sg1
((dp7659
I0
I153
sI1
I2
sI2
tp7660
Rp7661
g5
(S'-f325oa24hlnsqaep8nsvcb542cq3h6ods5h5b5oh7eabf2usq5p9ujno4s'
p7662
tp7663
Rp7664
sg1
((dp7665
I0
I138
sI1
I1
sI2
tp7666
Rp7667
g5
(S'19nf9p5ketk5434tv7tpiqdm35bgkn2pjfkfbe7koitfum9ahfqb8d9fuesofma9gi'
p7668
tp7669
Rp7670
sg1
((dp7671
I0
I105
sI1
I6
sI2
tp7672
Rp7673
g5
(S'-f17ujd08i2io1cva0jlpcijp9ji64h8slfo'
p7674
tp7675
Rp7676
sg1
((dp7677
I0
I90
sI1
I5
sI2
tp7678
Rp7679
g5
(S'-2bm10ge1bmi0efelgh8m32jp30jnvsf5p4j54p9dsme5khp3njvfe'
p7680
tp7681
Rp7682
sg1
((dp7683
I0
I44
sI1
I2
sI2
tp7684
Rp7685
g5
(S'4hg2jnbs6cilrp5rtldvld3p3eb7jdasf6u7ibko1dhb4oovemto3vhctb9hkf7bo'
p7686
tp7687
Rp7688
sg1
((dp7689
I0
I59
sI1
I3
sI2
tp7690
Rp7691
g5
(S'-63qs6m9g7bc30kihlvnqh99vg6g6mflcuic8vu0vq5ljgjk4n8qjsbor17kfksq0'
p7692
tp7693
Rp7694
sg1
((dp7695
I0
I175
sI1
I2
sI2
tp7696
Rp7697
g5
(S'-17qnt9adrlhb7l5dmnuugslm1gntdopbrpdk27pfi14i7b8'
p7698
tp7699
Rp7700
sg1
((dp7701
I0
I160
sI1
I1
sI2
tp7702
Rp7703
g5
(S'2bqvbmbik4v578la3a5n2kpj90m2os9l3ddscp6a0i5f4e063ukk9quvds'
p7704
tp7705
Rp7706
sg1
((dp7707
I0
I61
sI1
I8
sI2
tp7708
Rp7709
g5
(S'-8e1gbjja58efu'
p7710
tp7711
Rp7712
sg1
((dp7713
I0
I11
sI1
I7
sI2
tp7714
Rp7715
g5
(S'1qulht5jvqmi1fksafnvr3k9ni4959g'
p7716
tp7717
Rp7718
sg1
((dp7719
I0
I127
sI1
I6
sI2
tp7720
Rp7721
g5
(S'-10g9si2ae3ummstmg'
p7722
tp7723
Rp7724
sg1
((dp7725
I0
I112
sI1
I5
sI2
tp7726
Rp7727
g5
(S'-2i4q9hdbh74it9p7crgni6kupe83ommnio9ai6voa452d0dn4'
p7728
tp7729
Rp7730
sg1
((dp7731
I0
I182
sI2
tp7732
Rp7733
g5
(S'8taiu96ov960meieiltu3273di61np70fu4mcfif7rb6u'
p7734
tp7735
Rp7736
sg1
((dp7737
I0
I66
sI1
I2
sI2
tp7738
Rp7739
g5
(S'88th3m1ailasb9mo37c6hdqm9csmldedot4i8nmng4a7jjrce055jc1d84mq91ljigffk'
p7740
tp7741
Rp7742
sg1
((dp7743
I0
I81
sI1
I3
sI2
tp7744
Rp7745
g5
(S'-nomr6dd704bal9h3fbk8f0518d58vb5dh44g4of44pvvm2ts11huejo2smc3b7m90'
p7746
tp7747
Rp7748
sg1
((dp7749
I0
I197
sI1
I2
sI2
tp7750
Rp7751
g5
(S'-2hem8o'
p7752
tp7753
Rp7754
sg1
((dp7755
I0
I182
sI1
I1
sI2
tp7756
Rp7757
g5
(S'-3k7gmf5dqjfehhql30r07s2nh2kugqtrdakc1orkje2'
p7758
tp7759
Rp7760
sg1
((dp7761
I0
I18
sI1
I6
sI2
tp7762
Rp7763
g5
(S'a1da51vj11om03354k1pithluk0glff58k68o1g'
p7764
tp7765
Rp7766
sg1
((dp7767
I0
I33
sI1
I7
sI2
tp7768
Rp7769
g5
(S'chrkgh7mojrjv05kqs0lq0crso9gffv2gpng'
p7770
tp7771
Rp7772
sg1
((dp7773
I0
I134
sI1
I5
sI2
tp7774
Rp7775
g5
(S'-10d7f8l472irr9pifmv37mu8ngp8canrn4k2p40m'
p7776
tp7777
Rp7778
sg1
((dp7779
I0
I83
sI2
tp7780
Rp7781
g5
(S'-21phovhn4f8iutbq16bl7ielsjskjar43tgpgvov20u0uar9d5r03ce1hjciqjvu1lqebmtpeek'
p7782
tp7783
Rp7784
sg1
((dp7785
I0
I88
sI1
I2
sI2
tp7786
Rp7787
g5
(S'35a6gftp36is52au4uopulfp371av5p40id6nnpen6grqu9l55eaf5uah9ckaermeidmrs'
p7788
tp7789
Rp7790
sg1
((dp7791
I0
I103
sI1
I3
sI2
tp7792
Rp7793
g5
(S'-3sq39bnv7hqe662ao3c1cf0vl4b4f16vod0n31e2b3r45ldn3qtbjh6e2rjl3fspk'
p7794
tp7795
Rp7796
sg1
((dp7797
I0
I40
sI1
I6
sI2
tp7798
Rp7799
g5
(S'bl1g5a6c06nk429pbj6hrfcoor6athnhtc5ps7ksva920'
p7800
tp7801
Rp7802
sg1
((dp7803
I0
I55
sI1
I7
sI2
tp7804
Rp7805
g5
(S'q5jtep4h2415cbul4sogo2g2f065smaj00'
p7806
tp7807
Rp7808
sg1
((dp7809
I0
I156
sI1
I5
sI2
tp7810
Rp7811
g5
(S'120ai8tji50fmr6h0703ea'
p7812
tp7813
Rp7814
sg1
((dp7815
I0
I110
sI1
I2
sI2
tp7816
Rp7817
g5
(S'plc77cgk874l5tjm02gqgr6han8t6flvgh43i42um9v9m1mljcol6uh5i1o80i7nioo'
p7818
tp7819
Rp7820
sg1
((dp7821
I0
I125
sI1
I3
sI2
tp7822
Rp7823
g5
(S'-170kah7fgo5fdp5lh5dr29t986itj2gcc7a5hvetfr9483hi2db7sfk76sosdo'
p7824
tp7825
Rp7826
sg1
((dp7827
I0
I62
sI1
I6
sI2
tp7828
Rp7829
g5
(S'fmqsu2slkpjtjn17v6mk3u408tdvg9e42p1sqor70218g'
p7830
tp7831
Rp7832
sg1
((dp7833
I0
I77
sI1
I7
sI2
tp7834
Rp7835
g5
(S'-16tm45aeme5mlig05tcos26c05fp0'
p7836
tp7837
Rp7838
sg1
((dp7839
I0
I168
sI2
tp7840
Rp7841
g5
(S'1vo77tm60c35cbmfc5g8tv8n7qed378nr2ttnpotpor6092pi8m02dpm'
p7842
tp7843
Rp7844
sg1
((dp7845
I0
I16
sI1
I3
sI2
tp7846
Rp7847
g5
(S'165d5rcaip7hciqcc3cm51hldih0erba1jua7897q5400q4g00'
p7848
tp7849
Rp7850
sg1
((dp7851
I0
I132
sI1
I2
sI2
tp7852
Rp7853
g5
(S'60up3fi16374j341d7pv31v56h8pi6hqan5nt6q2vjuq24o1865st3hp26mao47o'
p7854
tp7855
Rp7856
sg1
((dp7857
I0
I147
sI1
I3
sI2
tp7858
Rp7859
g5
(S'dsme2t63kn8sebrlb9j6v5du00pcsd079m0m6pe9bofb4jso8qt30r3c'
p7860
tp7861
Rp7862
sg1
((dp7863
I0
I69
sI2
tp7864
Rp7865
g5
(S'-1hlngt9arctmlvtb3m1eo694pdo87krkvlssjsaen1gies7ie6k1lachq9p3jcj4h7g4evqvk4'
p7866
tp7867
Rp7868
sg1
((dp7869
I0
I84
sI1
I6
sI2
tp7870
Rp7871
g5
(S'5v3hh5bqhluf69p30tudek06rkuidkr1siosgsrf6g'
p7872
tp7873
Rp7874
sg1
((dp7875
I0
I38
sI1
I3
sI2
tp7876
Rp7877
g5
(S'-1uproegljmti1h0k6n95qu5ij8dcn8r6tf1rmpgf12qqkl0sptjapub8mj70'
p7878
tp7879
Rp7880
sg1
((dp7881
I0
I154
sI1
I2
sI2
tp7882
Rp7883
g5
(S'3tiq7dmr0rs8iuu1033cuhupqltknqfrv4uj5tnu1f133ii4vhli3b1iqk'
p7884
tp7885
Rp7886
sg1
((dp7887
I0
I169
sI1
I3
sI2
tp7888
Rp7889
g5
(S'-3d4cnsbugcdnjgf5535s3a6ih9kj0nbh8679rbgrpl1s0'
p7890
tp7891
Rp7892
sg1
((dp7893
I0
I106
sI1
I6
sI2
tp7894
Rp7895
g5
(S'2rtj7ig9hgfnmar2fi7lbs2d8igq4ecd7i8'
p7896
tp7897
Rp7898
sg1
((dp7899
I0
I5
sI1
I4
sI2
tp7900
Rp7901
g5
(S'6fk15elqspn75q6p581lgga9go9vl1hh580000'
p7902
tp7903
Rp7904
sg1
((dp7905
I0
I60
sI1
I3
sI2
tp7906
Rp7907
g5
(S'93q642679t2h6jvimfpkdal66oumeh47a8l6g687bmbhovlna6avt2796p7e5on0'
p7908
tp7909
Rp7910
sg1
((dp7911
I0
I176
sI1
I2
sI2
tp7912
Rp7913
g5
(S'33b7gv5ld3d30lv2bfk0fnud7rrl1iq66ulj3v2p9g6pg4'
p7914
tp7915
Rp7916
sg1
((dp7917
I0
I191
sI1
I3
sI2
tp7918
Rp7919
g5
(S'brg97l21ek01fg6233n9io8'
p7920
tp7921
Rp7922
sg1
((dp7923
I0
I154
sI2
tp7924
Rp7925
g5
(S'bmbc8q66j186ebvlk95qk7absfl395fn2d6nfqv8ejl89g2k0qr8av8rg3oovq'
p7926
tp7927
Rp7928
sg1
((dp7929
I0
I12
sI1
I7
sI2
tp7930
Rp7931
g5
(S'-9ihngm2gt7mr95cu6bb8putn1e04n7g'
p7932
tp7933
Rp7934
sg1
((dp7935
I0
I128
sI1
I6
sI2
tp7936
Rp7937
g5
(S'n75a92j3voerp0'
p7938
tp7939
Rp7940
sg1
((dp7941
I0
I27
sI1
I4
sI2
tp7942
Rp7943
g5
(S'-972at3u89iu6v1q904cnrlr22nu5n3r6rn2bk6aek9jmn1jh5eeo'
p7944
tp7945
Rp7946
sg1
((dp7947
I0
I14
sI1
I8
sI2
tp7948
Rp7949
g5
(S'mm0t6i0sbulh65e70lqbs22i6'
p7950
tp7951
Rp7952
sg1
((dp7953
I0
I82
sI1
I3
sI2
tp7954
Rp7955
g5
(S'rbha7n2jkrinsvhnbijidk6upnmnfso47p66fpugei6g97ioum5rk7f4po1rbmb7s'
p7956
tp7957
Rp7958
sg1
((dp7959
I0
I55
sI2
tp7960
Rp7961
g5
(S'-29d1jmafrf0vdq56kl5dohdu3d6lt3upj425hhcm4gf1n6g4k766kgsp3tfmepid7dlndp7g'
p7962
tp7963
Rp7964
sg1
((dp7965
I0
I34
sI1
I7
sI2
tp7966
Rp7967
g5
(S'-mr0r6nfcfkltk5squt200in1h03bqu1ljc40'
p7968
tp7969
Rp7970
sg1
((dp7971
I0
I49
sI1
I4
sI2
tp7972
Rp7973
g5
(S'-1e8k3aia68t9hi5bsts921q2nptrt1psee5574bjt1bvbe6rpd5vvnqn5o'
p7974
tp7975
Rp7976
sg1
((dp7977
I0
I104
sI1
I3
sI2
tp7978
Rp7979
g5
(S'3et51er9oihr3hhc6s7oj7sk1j3kfhcncocn6fljhi6vtt8nid99h5rqqcbpskmm0'
p7980
tp7981
Rp7982
sg1
((dp7983
I0
I3
sI1
I1
sI2
tp7984
Rp7985
g5
(S'5hncfkgb1m5aqakmk8jl3hppkmedl000000000000000'
p7986
tp7987
Rp7988
sg1
((dp7989
I0
I56
sI1
I7
sI2
tp7990
Rp7991
g5
(S'-1dg0mlaapu3f4hkm4iuhficjaigstkq5t70'
p7992
tp7993
Rp7994
sg1
((dp7995
I0
I71
sI1
I4
sI2
tp7996
Rp7997
g5
(S'-gm4gfkp4vjcudj921pliv6pbk0aegkop9ph4082oajl73o7odjg932prfnr8'
p7998
tp7999
Rp8000
sg1
((dp8001
I0
I58
sI1
I8
sI2
tp8002
Rp8003
g5
(S'noo29c389e3gimc'
p8004
tp8005
Rp8006
sg1
((dp8007
I0
I23
sI1
I8
sI2
tp8008
Rp8009
g5
(S'-1eqhovelep501vp71sq3b56uo78'
p8010
tp8011
Rp8012
sg1
((dp8013
I0
I126
sI1
I3
sI2
tp8014
Rp8015
g5
(S'efgqmu13t5kos6nhku2vsosdnfqjslupi43pbdhr66jvvju0jk59dmi2i99ps'
p8016
tp8017
Rp8018
sg1
((dp8019
I0
I25
sI1
I1
sI2
tp8020
Rp8021
g5
(S'9hpvhopmlujcp7r2k2i5dqkqh176kgc0qq6lc107j3t7nm4pduc78s1t0000'
p8022
tp8023
Rp8024
sg1
((dp8025
I0
I140
sI2
tp8026
Rp8027
g5
(S'6q2f572ueel50g9i0vqr6sblbhgc394ft2lec36nbtm3b8i0hmumq8d83lo40qndf04'
p8028
tp8029
Rp8030
sg1
((dp8031
I0
I78
sI1
I7
sI2
tp8032
Rp8033
g5
(S'6b0atq6m6vrt7b4muaamhbrlgm90'
p8034
tp8035
Rp8036
sg1
((dp8037
I0
I93
sI1
I4
sI2
tp8038
Rp8039
g5
(S'3svr0cgr8gkvdj56dstt02a624ob69gfl4tmasau20q3rc7v9eumepvobiaak'
p8040
tp8041
Rp8042
sg1
((dp8043
I0
I41
sI2
tp8044
Rp8045
g5
(S'-smjhl6rlsjbdgpbj5ekruvhk35f91cqba908k4gnrh3al3lto4snpmq0a3shtlfp5000'
p8046
tp8047
Rp8048
sg1
((dp8049
I0
I148
sI1
I3
sI2
tp8050
Rp8051
g5
(S'-3r2nf4ce3l9dgn6d0a763b07j95cokp0u6arj37r2oa02rtpeiefdi24'
p8052
tp8053
Rp8054
sg1
((dp8055
I0
I47
sI1
I1
sI2
tp8056
Rp8057
g5
(S'8tfa0p610g1d531dmgt8koegeva6ag1fh62vmgqk7htpt8292gp5ua1ntk9j5fkf0arc'
p8058
tp8059
Rp8060
sg1
((dp8061
I0
I115
sI1
I4
sI2
tp8062
Rp8063
g5
(S'-3b5bjnrb4cprs58u3m48halfji56nfdbppm69u83qpcckpqdcsbdeamvm2ko'
p8064
tp8065
Rp8066
sg1
((dp8067
I0
I170
sI1
I3
sI2
tp8068
Rp8069
g5
(S'8okean27au8b8urjvkrre0c81psciihqc8guuj2bjoi4'
p8070
tp8071
Rp8072
sg1
((dp8073
I0
I69
sI1
I1
sI2
tp8074
Rp8075
g5
(S'1btahksuj77jnvchj6td1dffbjd4bllhb00avo1rmgud9pbqbev91mum91dbbdskh05lftei'
p8076
tp8077
Rp8078
sg1
((dp8079
I0
I21
sI1
I5
sI2
tp8080
Rp8081
g5
(S'79rmi094uchoq0bu6f2t1biq9mo302b0mfniqlj6bn8gg'
p8082
tp8083
Rp8084
sg1
((dp8085
I0
I137
sI1
I4
sI2
tp8086
Rp8087
g5
(S'-dq0lp61k4c404f39bdrt089n0f1nrvebnf0h6tntoraoc1ajge36b1m'
p8088
tp8089
Rp8090
sg1
((dp8091
I0
I126
sI2
tp8092
Rp8093
g5
(S'3kls45qu62r25hig66kkpftvm6vbmri2ro00mkl2lqvcbqmdoiebmge257pmlr3tt7872m6'
p8094
tp8095
Rp8096
sg1
((dp8097
I0
I192
sI1
I3
sI2
tp8098
Rp8099
g5
(S'hu7egoup79ue9951dveb0'
p8100
tp8101
Rp8102
sg1
((dp8103
I0
I91
sI1
I1
sI2
tp8104
Rp8105
g5
(S'-4k8k3vnuk2947kt82mtn6o8ciub6q5ri0ou6b7t4pukqfps2euusei7nak1r0700dkebglm6'
p8106
tp8107
Rp8108
sg1
((dp8109
I0
I43
sI1
I5
sI2
tp8110
Rp8111
g5
(S'-25s6umpvem7bcmn114i10o8lessk4t5k018mtp0i90gnq7i6fg74'
p8112
tp8113
Rp8114
sg1
((dp8115
I0
I159
sI1
I4
sI2
tp8116
Rp8117
g5
(S'-4djok9fu9aequ3u0mqbutqh758ee6ujd07a6q4cpa2ids'
p8118
tp8119
Rp8120
sg1
((dp8121
I0
I27
sI2
tp8122
Rp8123
g5
(S'-bn8kflkgjmgqrcg4reb9ioe2hnhsavd8srnbg5enidob4vjfjf8sl6sju000000'
p8124
tp8125
Rp8126
sg1
((dp8127
I0
I113
sI1
I1
sI2
tp8128
Rp8129
g5
(S'-3gibtlg94l8hb7j11pe7j220ut4mnn1chatebev44b6ckeqggdakk4f2lh27gqp8m5v7ge'
p8130
tp8131
Rp8132
sg1
((dp8133
I0
I65
sI1
I5
sI2
tp8134
Rp8135
g5
(S'-gifkcvssr6jr5akqjh7jrp7o4grl01gu8abqsp7t2cqbq93qgeh6g'
p8136
tp8137
Rp8138
sg1
((dp8139
I0
I181
sI1
I4
sI2
tp8140
Rp8141
g5
(S'-593vscf2r1o4e7cntu0p5kp3go'
p8142
tp8143
Rp8144
sg1
((dp8145
I0
I2
sI1
I4
sI2
tp8146
Rp8147
g5
(S'ibn862qn10hii8q8sntbkqvejg1os000000'
p8148
tp8149
Rp8150
sg1
((dp8151
I0
I135
sI1
I1
sI2
tp8152
Rp8153
g5
(S'-lhtuo9kn9km91iaisi3hokv2vuhiroo59jakgt1j4jfni7dhve0n0ueap32p570h7u'
p8154
tp8155
Rp8156
sg1
((dp8157
I0
I87
sI1
I5
sI2
tp8158
Rp8159
g5
(S'5k49bgf9243osnjbrissgegjssoap1mfdj6tmf23k2em8c651a1ke'
p8160
tp8161
Rp8162
sg1
((dp8163
I0
I112
sI2
tp8164
Rp8165
g5
(S'nk3qbkopem1r7g6feaetk25tp06f9g5o7e04280ju3rm7au8hvh2u5odgll03bgoh7di78nca'
p8166
tp8167
Rp8168
sg1
((dp8169
I0
I24
sI1
I4
sI2
tp8170
Rp8171
g5
(S'3vvphmmgun3b36rraupdpvldbdfntnvm19oua7ruukicbi69q3q'
p8172
tp8173
Rp8174
sg1
((dp8175
I0
I157
sI1
I1
sI2
tp8176
Rp8177
g5
(S'-6pijf8rbehei6v4c1tob0fr0il2i8veema78pkj1f5o738kl4gsv5a8ismi'
p8178
tp8179
Rp8180
sg1
((dp8181
I0
I13
sI2
tp8182
Rp8183
g5
(S'22q7lr0d8gv0320gq34bius0q05r3rn5mi5arg1rckhg00000000000'
p8184
tp8185
Rp8186
sg1
((dp8187
I0
I109
sI1
I5
sI2
tp8188
Rp8189
g5
(S'7cn4eief47ltcc5osje6s1fbk5bun5qcd945tmh9ij032irnc'
p8190
tp8191
Rp8192
sg1
((dp8193
I0
I46
sI1
I4
sI2
tp8194
Rp8195
g5
(S'66cg7pai37h4hm4a3i81vatdb8dt8a7moqbnovodjrmtv4vgd71dj3u9o'
p8196
tp8197
Rp8198
sg1
((dp8199
I0
I179
sI1
I1
sI2
tp8200
Rp8201
g5
(S'cib5g3iqi30onvb352l7e3snirke3cshql4gkeua8iag5u'
p8202
tp8203
Rp8204
sg1
((dp8205
I0
I15
sI1
I2
sI2
tp8206
Rp8207
g5
(S'-4ef4g8fqk61hgd4qfhvvaa79to729kql35auipj7duc2lg00000'
p8208
tp8209
Rp8210
sg1
((dp8211
I1
I1
sI2
tp8212
Rp8213
g5
(S'-41pr1gourugte4s04q7gtn2uo0000000000000000'
p8214
tp8215
Rp8216
sg1
((dp8217
I0
I197
sI2
tp8218
Rp8219
g5
(S'-2bpfdi3q2'
p8220
tp8221
Rp8222
sg1
((dp8223
I0
I131
sI1
I5
sI2
tp8224
Rp8225
g5
(S'u5f8o4la1od2lpo7erec4qgo0rcp0pq521r3lb7gs'
p8226
tp8227
Rp8228
sg1
((dp8229
I0
I68
sI1
I4
sI2
tp8230
Rp8231
g5
(S'93qmem3pqs1s185puiok963objcpeuits6too1non8tge211keleric2e768'
p8232
tp8233
Rp8234
sg1
((dp8235
I0
I98
sI2
tp8236
Rp8237
g5
(S'1rbbmhhckogq2mccll75bdf49ab7sngl4paeenm1tnie5c9l1ajp56520n5tem82kknomi3ufk8'
p8238
tp8239
Rp8240
sg1
((dp8241
I0
I20
sI1
I8
sI2
tp8242
Rp8243
g5
(S'lmepmkp9grjf6agh84e6qh1972'
p8244
tp8245
Rp8246
sg1
((dp8247
I0
I37
sI1
I2
sI2
tp8248
Rp8249
g5
(S'-29vceqrq6rk1gq8vd4cl9uenuvfc2q5a2ma7gcd424e289a636k4ul104e9kuqg'
p8250
tp8251
Rp8252
sg1
((dp8253
I0
I22
sI1
I1
sI2
tp8254
Rp8255
g5
(S'-129n1votm2kj8ofn1gd500hkcgv9ass7ttk7omh4q00l1hlmhs3c4u00000'
p8256
tp8257
Rp8258
sg1
((dp8259
I0
I153
sI1
I5
sI2
tp8260
Rp8261
g5
(S'-1v7np9pcu1rh036bkcbck2oo0'
p8262
tp8263
Rp8264
sg1
((dp8265
I0
I90
sI1
I4
sI2
tp8266
Rp8267
g5
(S'-66n00c6od1mnpvdf70esgbg9g37d5u85urvaokqb8vnavkpemu52ltbsgso1q'
p8268
tp8269
Rp8270
sg1
((dp8271
I0
I59
sI1
I2
sI2
tp8272
Rp8273
g5
(S'-aped6s5knfkt2beao6gbop091jtnid5uqklckubaresk1o8c9cl6totd90t549phbav4'
p8274
tp8275
Rp8276
sg1
((dp8277
I0
I44
sI1
I1
sI2
tp8278
Rp8279
g5
(S'-j4npbskv7q4q89qvqrat3v29tmo7lo275dnr6oea1e0ov5r0jc7i58vkgictqj3giro'
p8280
tp8281
Rp8282
sg1
((dp8283
I0
I11
sI1
I6
sI2
tp8284
Rp8285
g5
(S'-2ff34b8ihieuf4mnoq6pf5jlbvrhg4g9n0g'
p8286
tp8287
Rp8288
sg1
((dp8289
I0
I112
sI1
I4
sI2
tp8290
Rp8291
g5
(S'1nlefmdgh5mkvmketkq3pef54g5hfr70qlal0q90ho9jn7n9vq872f1379dq'
p8292
tp8293
Rp8294
sg1
((dp8295
I0
I64
sI1
I8
sI2
tp8296
Rp8297
g5
(S'6h8e6t92u'
p8298
tp8299
Rp8300
sg1
((dp8301
I0
I183
sI2
tp8302
Rp8303
g5
(S'-q6l77bqn86aksadeufgkp0voob7abl4r6fmmobcrn3oq'
p8304
tp8305
Rp8306
sg1
((dp8307
I0
I81
sI1
I2
sI2
tp8308
Rp8309
g5
(S'-4n7q5rul4vq74ttu2i5uur9db5el2jig9gp1d98fpr8m2m58ogthcc4pnfil8of06e4ru8'
p8310
tp8311
Rp8312
sg1
((dp8313
I0
I66
sI1
I1
sI2
tp8314
Rp8315
g5
(S'-igkf4jbvda1vgafftmvqb2pk800m69fesdiljaroc613ulq9kg17q9i6e98no17ga8at7oc'
p8316
tp8317
Rp8318
sg1
((dp8319
I0
I33
sI1
I6
sI2
tp8320
Rp8321
g5
(S'-6mpk7ijo93ostom03g02s77bt7hl8eobv6q758pv4e88'
p8322
tp8323
Rp8324
sg1
((dp8325
I0
I18
sI1
I5
sI2
tp8326
Rp8327
g5
(S'-7a99sdjudstjlrnchla1lgf6he84frigh652bngal9k'
p8328
tp8329
Rp8330
sg1
((dp8331
I0
I134
sI1
I4
sI2
tp8332
Rp8333
g5
(S'bkbba777t1edoucrqv94ppr5l20is4fir3of85q5dq3m1vi6pc1f9av4'
p8334
tp8335
Rp8336
sg1
((dp8337
I0
I84
sI2
tp8338
Rp8339
g5
(S'2bibieo0pur7ccqrmiri58t474pfj8ijf4eutj72iebcopin5d1ktfvcvbc1r3oaru1as05dko8'
p8340
tp8341
Rp8342
sg1
((dp8343
I0
I103
sI1
I2
sI2
tp8344
Rp8345
g5
(S'-10sfqqrbfap5qmj1ra1femoc65eoaipane6iqpdvb9595js0f1d14r396cheb71dipjl0'
p8346
tp8347
Rp8348
sg1
((dp8349
I0
I88
sI1
I1
sI2
tp8350
Rp8351
g5
(S'4gd78ed0r2n60hh1qsjarn22m55hi7ms6l582ttiv0ka98bqgq8kicohrh061g00s161pl30'
p8352
tp8353
Rp8354
sg1
((dp8355
I0
I55
sI1
I6
sI2
tp8356
Rp8357
g5
(S'-3gr034jsqsak8ftp7e9u174t7t8uof87p17oh352t3sf98'
p8358
tp8359
Rp8360
sg1
((dp8361
I0
I40
sI1
I5
sI2
tp8362
Rp8363
g5
(S'9t3plk0e8h6fi6ahbru04f53jh802o6bems1jbr2v94mck3m4ts'
p8364
tp8365
Rp8366
sg1
((dp8367
I0
I156
sI1
I4
sI2
tp8368
Rp8369
g5
(S'28eljddnilll3ti8blv8njj8r80tihld15ln26vdr8ub3mc'
p8370
tp8371
Rp8372
sg1
((dp8373
I0
I9
sI1
I3
sI2
tp8374
Rp8375
g5
(S'-136gp47a6ok8lb4qqhukc0ftgf5a8phiqd87kl1000000'
p8376
tp8377
Rp8378
sg1
((dp8379
I0
I125
sI1
I2
sI2
tp8380
Rp8381
g5
(S'-1gsp5o67aeaa7q4ksjc6j0cncoc0sl1v09pc63lr044ihklemom3ubk73soipkma4'
p8382
tp8383
Rp8384
sg1
((dp8385
I0
I110
sI1
I1
sI2
tp8386
Rp8387
g5
(S'71km0fr95upkkgqnbctn53qiq86i6gtflpmfi044do63o53sfgd7bnvdsvoan4oa3sv87q'
p8388
tp8389
Rp8390
sg1
((dp8391
I0
I77
sI1
I6
sI2
tp8392
Rp8393
g5
(S'10c08c6374ph5e6dbs8lbvtkank5bfl25m6ogevne07o'
p8394
tp8395
Rp8396
sg1
((dp8397
I0
I62
sI1
I5
sI2
tp8398
Rp8399
g5
(S'19061rlkeef3bh0l79a7bikqvvho4qv3v2n9u5n68ch1khuhl384o8'
p8400
tp8401
Rp8402
sg1
((dp8403
I0
I169
sI2
tp8404
Rp8405
g5
(S'-9tsh9drghvgq28n21qi7eia83tu7nl7m0vika73v9ek9b8ulmgs90s0'
p8406
tp8407
Rp8408
sg1
((dp8409
I0
I178
sI1
I4
sI2
tp8410
Rp8411
g5
(S'g1rb9hfumi0r5bj2loqgl55ul0gqg'
p8412
tp8413
Rp8414
sg1
((dp8415
I0
I16
sI1
I2
sI2
tp8416
Rp8417
g5
(S'2daqnii16ug7rfid5krrmolc3v6vutpdhn738t9o6uiggc6g0000'
p8418
tp8419
Rp8420
sg1
((dp8421
I0
I31
sI1
I3
sI2
tp8422
Rp8423
g5
(S'8qr807a9idnkj65d8na2bvu81tqrlej3h15s470kc2j2sgvrjfhgpqkcs'
p8424
tp8425
Rp8426
sg1
((dp8427
I0
I147
sI1
I2
sI2
tp8428
Rp8429
g5
(S'-liksoda63fvoirhd17dfvsej63pjg8dib905joqjg5p9jfdggms2ikn9ihes'
p8430
tp8431
Rp8432
sg1
((dp8433
I0
I132
sI1
I1
sI2
tp8434
Rp8435
g5
(S'8fousvj0sijo2ajkfnfdpqbutei8f649ku8vjrps8f3fukm4mgv2lvi1m0lfvpkrc5k'
p8436
tp8437
Rp8438
sg1
((dp8439
I0
I33
sI1
I8
sI2
tp8440
Rp8441
g5
(S'-9vuioojm0l9plpaecjr8mv2u7k'
p8442
tp8443
Rp8444
sg1
((dp8445
I0
I70
sI2
tp8446
Rp8447
g5
(S'26rdjsd858en9d6rda8kbg8mblt67lmn6sm1br4814jpmtuhisrqe86kiad8krfrjl38ssenvi'
p8448
tp8449
Rp8450
sg1
((dp8451
I0
I139
sI2
tp8452
Rp8453
g5
(S'-j2bqp00v07rqffkuoge24lln7dtpgmg02mlhooooukog9dekvk0sk6g129i82s8c39m'
p8454
tp8455
Rp8456
sg1
((dp8457
I0
I99
sI1
I6
sI2
tp8458
Rp8459
g5
(S'-27ci6u38h8dpb3p76ighjgssiiujnsgd2doaf0'
p8460
tp8461
Rp8462
sg1
((dp8463
I0
I84
sI1
I5
sI2
tp8464
Rp8465
g5
(S'-3nufonp87d0foj8955udovinb289ipov856ochd4dt74cilvq7j5i'
p8466
tp8467
Rp8468
sg1
((dp8469
I0
I38
sI1
I2
sI2
tp8470
Rp8471
g5
(S'7jkjletdi2m621lhiarofj3qogb78fgin1e0ueih1tmhchv6vfe5mhf09spvnag'
p8472
tp8473
Rp8474
sg1
((dp8475
I0
I53
sI1
I3
sI2
tp8476
Rp8477
g5
(S'-3if83qo5k30ekf05a0qa9p5p1151k1ovpq5iaihhijle9nskkdv4oasf7s7n36c'
p8478
tp8479
Rp8480
sg1
((dp8481
I0
I169
sI1
I2
sI2
tp8482
Rp8483
g5
(S'-134mqv4lih4s6qpi79pd0q582q0s2rpnlbckhsjjenvl86vjris'
p8484
tp8485
Rp8486
sg1
((dp8487
I0
I154
sI1
I1
sI2
tp8488
Rp8489
g5
(S'cucovmp0mi1j3472chc5519hr6vt2tpgsu2qbnfkbmbesa9bod3u6q95mgau'
p8490
tp8491
Rp8492
sg1
((dp8493
I0
I5
sI1
I7
sI2
tp8494
Rp8495
g5
(S'-1uqatcaulf9s57pqdglk5moavk8'
p8496
tp8497
Rp8498
sg1
((dp8499
I0
I121
sI1
I6
sI2
tp8500
Rp8501
g5
(S'-li5a85kosr12mf42jm96gom8'
p8502
tp8503
Rp8504
sg1
((dp8505
I0
I106
sI1
I5
sI2
tp8506
Rp8507
g5
(S'64seka65bd2otc2hfgmtd22cc28dk0stmihq6sq5fq4bb59tgc'
p8508
tp8509
Rp8510
sg1
((dp8511
I0
I60
sI1
I2
sI2
tp8512
Rp8513
g5
(S'ichgpujb37jiqv6c3mi546nekis5d1v39ohtr1hqduohqkicp3ubtmpkfqleqqcm98m8'
p8514
tp8515
Rp8516
sg1
((dp8517
I0
I75
sI1
I3
sI2
tp8518
Rp8519
g5
(S'94qm4emj444el9deg79qkmp9k11p05fklpc3cbdhfp6a2fmb1prba6cn3vd4j9p24'
p8520
tp8521
Rp8522
sg1
((dp8523
I0
I191
sI1
I2
sI2
tp8524
Rp8525
g5
(S'-13m49hn5eacvto1bhu4adhtn7bigng'
p8526
tp8527
Rp8528
sg1
((dp8529
I0
I176
sI1
I1
sI2
tp8530
Rp8531
g5
(S'-1athn4aiaurrd4vaffm35748f39u98phoj4n962l569h8ud38'
p8532
tp8533
Rp8534
sg1
((dp8535
I0
I12
sI1
I6
sI2
tp8536
Rp8537
g5
(S'25t64qe4tqb4g64neo7sneh9ho7up5vj8ij8'
p8538
tp8539
Rp8540
sg1
((dp8541
I0
I27
sI1
I7
sI2
tp8542
Rp8543
g5
(S'-1lstip3fjni87363kt4tfui36h7bl0bv00b8'
p8544
tp8545
Rp8546
sg1
((dp8547
I0
I155
sI2
tp8548
Rp8549
g5
(S'-2lq9d43cothcc26f9gqc935bgguoruobqngbd52q92gro0aatav9b21rppp5ji'
p8550
tp8551
Rp8552
sg1
((dp8553
I0
I128
sI1
I5
sI2
tp8554
Rp8555
g5
(S'-12f3995u0bo81pmsuj1gvp2voj34ns9796k3ehftv7k'
p8556
tp8557
Rp8558
sg1
((dp8559
I0
I82
sI1
I2
sI2
tp8560
Rp8561
g5
(S'4op69aku4iabdjhf79qdodgjvd4m5ni4sv8klrdc8acoga66a1or4u7nlbldp6vv135ot4'
p8562
tp8563
Rp8564
sg1
((dp8565
I0
I97
sI1
I3
sI2
tp8566
Rp8567
g5
(S'5ekt4djl8fck8k8eretuolfqe78ta9ccuu8ja6c49o9684ktvfuq33dvhtrtml7gc'
p8568
tp8569
Rp8570
sg1
((dp8571
I0
I56
sI2
tp8572
Rp8573
g5
(S'45nf9cl503kiqijo88jmpe4i8ukpcjgbg0vembva9dnk77lf7hoihds2eaqhm7spr624tglo'
p8574
tp8575
Rp8576
sg1
((dp8577
I0
I34
sI1
I6
sI2
tp8578
Rp8579
g5
(S'dhcllt2bca0i30aiqh4ttl1jl57k2e7gpbj9oqje0mu0'
p8580
tp8581
Rp8582
sg1
((dp8583
I0
I49
sI1
I7
sI2
tp8584
Rp8585
g5
(S'-6agrnt38hm54lc3cb9cinepd0opo5trh52rg'
p8586
tp8587
Rp8588
sg1
((dp8589
I0
I150
sI1
I5
sI2
tp8590
Rp8591
g5
(S'-3hu1v8nb99if2khjhed95semddc6'
p8592
tp8593
Rp8594
sg1
((dp8595
I0
I104
sI1
I2
sI2
tp8596
Rp8597
g5
(S'k9pcbnuhm73iv2ia0okadgtf2nds6pd70fr88kodh1guv9cpam079ch5e0dpv4ilqto4'
p8598
tp8599
Rp8600
sg1
((dp8601
I0
I119
sI1
I3
sI2
tp8602
Rp8603
g5
(S'-3ij76h7kdhj2l9onqvrme87mehcpq2sg0o86ie9m8r2kiju2kjan4u2419gqr8g'
p8604
tp8605
Rp8606
sg1
((dp8607
I0
I5
sI1
I9
sI2
tp8608
Rp8609
g5
(S'-6b7rom6oa6fss'
p8610
tp8611
Rp8612
sg1
((dp8613
I0
I56
sI1
I6
sI2
tp8614
Rp8615
g5
(S'34941o7ka3t2v9sl7u6hlr08c5ebp1amapo3bkvum7or9g'
p8616
tp8617
Rp8618
sg1
((dp8619
I0
I71
sI1
I7
sI2
tp8620
Rp8621
g5
(S'-5o0ai9aqjha1vf30sck8t5dejcnvjco'
p8622
tp8623
Rp8624
sg1
((dp8625
I0
I40
sI2
tp8626
Rp8627
g5
(S'a3eh0l27v2r3hv0soo15iu17va84fotqp2ibqek78deiulvpdk4q9pa1as9p35geu000'
p8628
tp8629
Rp8630
sg1
((dp8631
I0
I10
sI1
I3
sI2
tp8632
Rp8633
g5
(S'ejlr1er7n5jqrakurdg5jbng9knklkqlnrga6une00000'
p8634
tp8635
Rp8636
sg1
((dp8637
I0
I126
sI1
I2
sI2
tp8638
Rp8639
g5
(S'1l15ru8p7l57f9arus4hkqdequ0a0en51qgjnlion3lb07r4kfivcup2jnbgf271o'
p8640
tp8641
Rp8642
sg1
((dp8643
I0
I141
sI1
I3
sI2
tp8644
Rp8645
g5
(S'br1g08e1kt4trhumedimhjj2580da61ir2n3caftcqr4d78qtp7t10qcao'
p8646
tp8647
Rp8648
sg1
((dp8649
I0
I78
sI1
I6
sI2
tp8650
Rp8651
g5
(S'-a0n9ghd9kmcei529phfp939amafeq50v7nekrvn38to'
p8652
tp8653
Rp8654
sg1
((dp8655
I0
I93
sI1
I7
sI2
tp8656
Rp8657
g5
(S'13ii00m5jano09q1o'
p8658
tp8659
Rp8660
sg1
((dp8661
I0
I42
sI2
tp8662
Rp8663
g5
(S'2epc7goasoiii4qna8sa4701jukhpic9sr5r39q5pjbmg6fcj05vbavdf4gdplk7ce000'
p8664
tp8665
Rp8666
sg1
((dp8667
I0
I32
sI1
I3
sI2
tp8668
Rp8669
g5
(S'-15tefjujo8ilmdqj0v0j6jk68ss861u0emcfgl20h1kmap3t847iv9u8g4'
p8670
tp8671
Rp8672
sg1
((dp8673
I0
I148
sI1
I2
sI2
tp8674
Rp8675
g5
(S'70ko6io9dhjq81ej951lq2revtsjv4rd18c67ri6c7rse3clir55udut9vd4'
p8676
tp8677
Rp8678
sg1
((dp8679
I0
I163
sI1
I3
sI2
tp8680
Rp8681
g5
(S'-7hjqi8dq2243nutt7avfr6ur8n8bv7ag2pfb83ofh4ndaduo'
p8682
tp8683
Rp8684
sg1
((dp8685
I0
I7
sI2
tp8686
Rp8687
g5
(S'-87c0u7q9qvt38589bn60tl34dbdd8nr0omo000000000000000'
p8688
tp8689
Rp8690
sg1
((dp8691
I0
I100
sI1
I6
sI2
tp8692
Rp8693
g5
(S'k2k2kjfkae24iqqm3edteo2lcedgi0qdjqbs8'
p8694
tp8695
Rp8696
sg1
((dp8697
I0
I54
sI1
I3
sI2
tp8698
Rp8699
g5
(S'91fcnui0csojrui63c07tt6k30m1ai0hndrgvosm4b50hbv8atona5cr5qsukgs'
p8700
tp8701
Rp8702
sg1
((dp8703
I0
I170
sI1
I2
sI2
tp8704
Rp8705
g5
(S'46ubdig3pkm45qk9a5upo3vcf85nfc35n0do2a6qk075o5dsu4'
p8706
tp8707
Rp8708
sg1
((dp8709
I0
I185
sI1
I3
sI2
tp8710
Rp8711
g5
(S'3jotl8avdrt46djv3a6gl2osj8fpelk'
p8712
tp8713
Rp8714
sg1
((dp8715
I0
I6
sI1
I7
sI2
tp8716
Rp8717
g5
(S'cv67vvcbf857942np7gbu0ttso'
p8718
tp8719
Rp8720
sg1
((dp8721
I0
I122
sI1
I6
sI2
tp8722
Rp8723
g5
(S'jnqu86og3anfkcba2vdtt0g'
p8724
tp8725
Rp8726
sg1
((dp8727
I0
I21
sI1
I4
sI2
tp8728
Rp8729
g5
(S'-10riptvurjhk0466m8m1lguouronc2uh2n5rnmkptjot1tm1sc'
p8730
tp8731
Rp8732
sg1
((dp8733
I0
I127
sI2
tp8734
Rp8735
g5
(S'-1jov1rc4d9epmfljuubp5mgp715ojvrr3u2k7emgddj3l62oe9k878fgda14hnpe5aq2s60'
p8736
tp8737
Rp8738
sg1
((dp8739
I0
I76
sI1
I3
sI2
tp8740
Rp8741
g5
(S'-63gvgu0abvk1cejl70ih066340cd3aos8r2j06f5qc3apehc4mrmt69fippqv5n10'
p8742
tp8743
Rp8744
sg1
((dp8745
I0
I192
sI1
I2
sI2
tp8746
Rp8747
g5
(S'ukc5m97b2ajian37cdseumekj1s'
p8748
tp8749
Rp8750
sg1
((dp8751
I0
I28
sI1
I7
sI2
tp8752
Rp8753
g5
(S'29vik229anko9sm27c4f270k5547mvasovn0'
p8754
tp8755
Rp8756
sg1
((dp8757
I0
I43
sI1
I4
sI2
tp8758
Rp8759
g5
(S'-1c18fchkv1cuss96c2ojg0jerni8tb4pndn11l0k3jpj1fu5ohflidroe'
p8760
tp8761
Rp8762
sg1
((dp8763
I0
I28
sI2
tp8764
Rp8765
g5
(S'1q42npvh9a8i5q4i6lqmbj24s7qvqjpor5dcri6ekis146a44s1pp1i3ol000000'
p8766
tp8767
Rp8768
sg1
((dp8769
I0
I98
sI1
I3
sI2
tp8770
Rp8771
g5
(S'-1trh8b9vn9deu7msl5699ekoigm2l12pdbb329mirjcfsq59l73vtdq83r25gc52c'
p8772
tp8773
Rp8774
sg1
((dp8775
I0
I50
sI1
I7
sI2
tp8776
Rp8777
g5
(S'3uivjoeq42pql3oq36igru3q8hguoav9o4eg'
p8778
tp8779
Rp8780
sg1
((dp8781
I0
I65
sI1
I4
sI2
tp8782
Rp8783
g5
(S'mq579a7aga0cul1170siknea0ju8rla6luhh69qadtcl2bn0fs7rba13u2a'
p8784
tp8785
Rp8786
sg1
((dp8787
I0
I120
sI1
I3
sI2
tp8788
Rp8789
g5
(S'1ptdk2uftdq08ofd2tvo3iikkqk4j5men9o4br131fdsemp08tdt4knn1gmcaj8'
p8790
tp8791
Rp8792
sg1
((dp8793
I0
I19
sI1
I1
sI2
tp8794
Rp8795
g5
(S'1lq9mdouq7m6jtocl62g3lt8svb9paili4nvbg9qr7q6vcguovg000000'
p8796
tp8797
Rp8798
sg1
((dp8799
I0
I72
sI1
I7
sI2
tp8800
Rp8801
g5
(S'1r0p621c9niikvcj6239ig4fprrb6h8'
p8802
tp8803
Rp8804
sg1
((dp8805
I0
I113
sI2
tp8806
Rp8807
g5
(S'-eli7hscltodj3vq9d7im3uuh2164jbu67rsvhalulglkkadue79roeicovps9egeo3c3rffju'
p8808
tp8809
Rp8810
sg1
((dp8811
I0
I87
sI1
I4
sI2
tp8812
Rp8813
g5
(S'-n0h62aeo8il1h8crta1grbr1igv3jjs5ae2bqa7lidvt9k20fd2ecror3jlk'
p8814
tp8815
Rp8816
sg1
((dp8817
I0
I39
sI1
I8
sI2
tp8818
Rp8819
g5
(S'-5u9ieg9l4dqjhov3pbpcf2nue'
p8820
tp8821
Rp8822
sg1
((dp8823
I0
I142
sI1
I3
sI2
tp8824
Rp8825
g5
(S'-48mae2c80gfrit90hl6o3e815ovialpr0poqe1lkqbghffadfpnedaoqu8'
p8826
tp8827
Rp8828
sg1
((dp8829
I0
I41
sI1
I1
sI2
tp8830
Rp8831
g5
(S'uo3hgp3o2g986tthuh18el4tqttut8omaasu7a02vctoolkbt5446mna71tfsm8sd0'
p8832
tp8833
Rp8834
sg1
((dp8835
I0
I14
sI2
tp8836
Rp8837
g5
(S'-luthsd61uo798so3mrovj3cn63n93h0jcrsugjt88fbg00000000000'
p8838
tp8839
Rp8840
sg1
((dp8841
I0
I94
sI1
I7
sI2
tp8842
Rp8843
g5
(S'-92opomvhp7jollg'
p8844
tp8845
Rp8846
sg1
((dp8847
I0
I109
sI1
I4
sI2
tp8848
Rp8849
g5
(S'ds48fic0ph4jkco6p8099kp37hejdc6h21j8hvhfdo37uavetkua1h9e1puu'
p8850
tp8851
Rp8852
sg1
((dp8853
I0
I164
sI1
I3
sI2
tp8854
Rp8855
g5
(S'2i4atpah0har7j1n8khfk97kp53pa630iib2obmrlbqi8hf8'
p8856
tp8857
Rp8858
sg1
((dp8859
I0
I63
sI1
I1
sI2
tp8860
Rp8861
g5
(S'63rr7bnkgfn9j3huqqngqub25n6ul0ru11v1ubc9t5nv0va9lfvkd8asl7u8pnim96uha7k'
p8862
tp8863
Rp8864
sg1
((dp8865
I0
I33
sI2
tp8866
Rp8867
g5
(S'-2evnogi7vhb1c7jsk7j0h9nu38ufuq3spi5brsgg04usjlp7l06pgrdco9be8o0000'
p8868
tp8869
Rp8870
sg1
((dp8871
I0
I15
sI1
I5
sI2
tp8872
Rp8873
g5
(S'-2cd45l5up8uvo43s5q9dkv9ck64buiut4jrvqk0rmg'
p8874
tp8875
Rp8876
sg1
((dp8877
I0
I131
sI1
I4
sI2
tp8878
Rp8879
g5
(S'-6vtltqqcmo80momu62e2c4eubj0f5dm77696aapldup4dis7q0mm74ffi'
p8880
tp8881
Rp8882
sg1
((dp8883
I0
I2
sI1
I9
sI2
tp8884
Rp8885
g5
(S'2n3t8n17ofso'
p8886
tp8887
Rp8888
sg1
((dp8889
I0
I186
sI1
I3
sI2
tp8890
Rp8891
g5
(S'ljlb4239fvpp8iis5a6otm0655i9o'
p8892
tp8893
Rp8894
sg1
((dp8895
I0
I85
sI1
I1
sI2
tp8896
Rp8897
g5
(S'-2h8ulntqljuk1u412554gf5h7pq20lp88hfgp5rq5e9b04c9glio5eg7bq7stn1222t9m4nk'
p8898
tp8899
Rp8900
sg1
((dp8901
I0
I99
sI2
tp8902
Rp8903
g5
(S'-1hqnlt9i1jl3pbrvi5sra64lf6v81dtoc4pkv1cnk7ffdfgo9uoi4o5bss3s2upr600p89rl608'
p8904
tp8905
Rp8906
sg1
((dp8907
I0
I37
sI1
I5
sI2
tp8908
Rp8909
g5
(S'-f1t0hepa681vmjnp1fqgrv4k4gaaidjs0r9hri0ohri4hprmum'
p8910
tp8911
Rp8912
sg1
((dp8913
I0
I153
sI1
I4
sI2
tp8914
Rp8915
g5
(S'-mo82ah0uontkt5rgota64mn9cvv6d3c8jej39hfsud61df7i'
p8916
tp8917
Rp8918
s.