(dp0
csage.rings.polynomial.polydict
make_ETuple
p1
((dp2
I0
I80
sI1
I3
sI2
tp3
Rp4
csage.rings.integer
make_integer
p5
(S'6q25h54i8tqchm97s'
p6
tp7
Rp8
sg1
((dp9
I2
tp10
Rp11
g5
(S'30bp4b6fdklh31sr7gfbs8000000'
p12
tp13
Rp14
sg1
((dp15
I0
I107
sI1
I1
sI2
tp16
Rp17
g5
(S'-11v40e69cfbrn59hqhc329a932bm'
p18
tp19
Rp20
sg1
((dp21
I0
I68
sI1
I2
sI2
tp22
Rp23
g5
(S'1ap21ebqoajubve6eejilcf7uihc0p4'
p24
tp25
Rp26
sg1
((dp27
I0
I83
sI1
I3
sI2
tp28
Rp29
g5
(S'-87vuobmutld4i72o'
p30
tp31
Rp32
sg1
((dp33
I0
I46
sI2
tp34
Rp35
g5
(S'35lbkhs1icf75kg1phrjfdv2br07gm25b4ea88kc0e8'
p36
tp37
Rp38
sg1
((dp39
I0
I56
sI1
I1
sI2
tp40
Rp41
g5
(S'5k056ipl9hneor3bq4f9q5qu1gtg3a0bmn1it2g'
p42
tp43
Rp44
sg1
((dp45
I0
I47
sI1
I4
sI2
tp46
Rp47
g5
(S'6p3a8o2muujlmqsse'
p48
tp49
Rp50
sg1
((dp51
I0
I92
sI2
tp52
Rp53
g5
(S'46lb5h9e0npdmrdpsottuut9ps40t7hile47bfi'
p54
tp55
Rp56
sg1
((dp57
I0
I8
sI1
I5
sI2
tp58
Rp59
g5
(S'1sttqjllgq00'
p60
tp61
Rp62
sg1
((dp63
I0
I9
sI1
I5
sI2
tp64
Rp65
g5
(S'-cujnv49s2i2q'
p66
tp67
Rp68
sg1
((dp69
I0
I1
sI1
I1
sI2
tp70
Rp71
g5
(S'-7nb6s99o428icukuct8e000000'
p72
tp73
Rp74
sg1
((dp75
I0
I90
sI1
I2
sI2
tp76
Rp77
g5
(S'-25mbfaf2h5if17e3nc1odsltg'
p78
tp79
Rp80
sg1
((dp81
I0
I93
sI1
I2
sI2
tp82
Rp83
g5
(S'-1hh6l42mjtsv2qpijro58tpg'
p84
tp85
Rp86
sg1
((dp87
I0
I78
sI1
I1
sI2
tp88
Rp89
g5
(S'crres6103fj4hdkdl9tgjl7t6o4l7f1ns9d6'
p90
tp91
Rp92
sg1
((dp93
I0
I71
sI1
I2
sI2
tp94
Rp95
g5
(S'ksthrfrc5m9r9eodcm5vpl47np1qo'
p96
tp97
Rp98
sg1
((dp99
I0
I39
sI2
tp100
Rp101
g5
(S'5a80rghs3j4ie9m3k48gpjvajnq2fnqe48qnlq0ld2'
p102
tp103
Rp104
sg1
((dp105
I0
I18
sI1
I4
sI2
tp106
Rp107
g5
(S'1fc31nfr1t496m1cdcku'
p108
tp109
Rp110
sg1
((dp111
I0
I85
sI2
tp112
Rp113
g5
(S'1e3ij8jhchod4peu8uuo17shjk75itfd27694eo0m'
p114
tp115
Rp116
sg1
((dp117
I0
I23
sI1
I1
sI2
tp118
Rp119
g5
(S'-6a6ml6cjvdnur4iauvd1paqeohg9r7ncii4'
p120
tp121
Rp122
sg1
((dp123
I0
I112
sI1
I2
sI2
tp124
Rp125
g5
(S'-d5ikk2u43a12rbfs'
p126
tp127
Rp128
sg1
((dp129
I0
I115
sI1
I2
sI2
tp130
Rp131
g5
(S'-eh2164n3jpgu1c8'
p132
tp133
Rp134
sg1
((dp135
I0
I100
sI1
I1
sI2
tp136
Rp137
g5
(S'-ba0rmn9oqqng4a3s96rmo5tup8po4'
p138
tp139
Rp140
sg1
((dp141
I0
I40
sI1
I4
sI2
tp142
Rp143
g5
(S'24nibqvtpsrd5gnf7vq'
p144
tp145
Rp146
sg1
((dp147
I0
I5
sI1
I3
sI2
tp148
Rp149
g5
(S'vk1a9o9q555u661upg00'
p150
tp151
Rp152
sg1
((dp153
I0
I18
sI1
I3
sI2
tp154
Rp155
g5
(S'-ub42auunolkmggc0i2ska8kvg'
p156
tp157
Rp158
sg1
((dp159
I0
I32
sI2
tp160
Rp161
g5
(S'22pqjv5rlm9r5vv175d189pmpnng9s8cbmcd9c3p0'
p162
tp163
Rp164
sg1
((dp165
I0
I45
sI1
I1
sI2
tp166
Rp167
g5
(S'824qqulf7f1msnkaafpbeb1hj4r8rj209nqk0h4'
p168
tp169
Rp170
sg1
((dp171
I0
I6
sI1
I2
sI2
tp172
Rp173
g5
(S'hega99l4h9m7ol6tv6vmne000'
p174
tp175
Rp176
sg1
((dp177
I0
I21
sI1
I3
sI2
tp178
Rp179
g5
(S'14tnr5n2jikjfnj3mgur4vd2bo'
p180
tp181
Rp182
sg1
((dp183
I0
I78
sI2
tp184
Rp185
g5
(S'3biaia8s6nemcpo7br72o61cuqk704u833qurmpn44'
p186
tp187
Rp188
sg1
((dp189
I0
I122
sI1
I1
sI2
tp190
Rp191
g5
(S'53m5282d4iij65776'
p192
tp193
Rp194
sg1
((dp195
I0
I124
sI2
tp196
Rp197
g5
(S'jfum8q1j4esj3cvaq'
p198
tp199
Rp200
sg1
((dp201
I0
I62
sI1
I4
sI2
tp202
Rp203
g5
(S'165jedu'
p204
tp205
Rp206
sg1
((dp207
I0
I40
sI1
I3
sI2
tp208
Rp209
g5
(S'acegho6k7gvc99cq2aqh1mg97ms'
p210
tp211
Rp212
sg1
((dp213
I0
I67
sI1
I1
sI2
tp214
Rp215
g5
(S'-80tv56sm2t7vbgb7ltlgohe0hbe91i8rcp2q62'
p216
tp217
Rp218
sg1
((dp219
I0
I28
sI1
I2
sI2
tp220
Rp221
g5
(S'1603m4hpott34v2jt0p103lg1nkschfrm0'
p222
tp223
Rp224
sg1
((dp225
I0
I43
sI1
I3
sI2
tp226
Rp227
g5
(S'28r9cb3v004sbrurcuum1q8djdk'
p228
tp229
Rp230
sg1
((dp231
I0
I31
sI1
I2
sI2
tp232
Rp233
g5
(S'5038g36aente4378ggnk05qd2irr5h344g'
p234
tp235
Rp236
sg1
((dp237
I0
I25
sI2
tp238
Rp239
g5
(S'-3u5tk73j3n6spkjm57jit9a66oebqab5q88prtg'
p240
tp241
Rp242
sg1
((dp243
I0
I16
sI1
I1
sI2
tp244
Rp245
g5
(S'2o8mps5nu275fh2bd6gcg1rk6fgkrqlc20'
p246
tp247
Rp248
sg1
((dp249
I0
I19
sI1
I5
sI2
tp250
Rp251
g5
(S'-af1j1s6l5bv8'
p252
tp253
Rp254
sg1
((dp255
I0
I7
sI1
I4
sI2
tp256
Rp257
g5
(S'2g1qc1o251a2kh110'
p258
tp259
Rp260
sg1
((dp261
I0
I71
sI2
tp262
Rp263
g5
(S'21mltbjat7hrri1ouhvfs0u9f1geoh2bjs9pl2emid0'
p264
tp265
Rp266
sg1
((dp267
I0
I117
sI2
tp268
Rp269
g5
(S'n8if4telgkmeboqr975utu3lu'
p270
tp271
Rp272
sg1
((dp273
I0
I62
sI1
I3
sI2
tp274
Rp275
g5
(S'4arb83rf8hvfblhstqmm0tg'
p276
tp277
Rp278
sg1
((dp279
I0
I89
sI1
I1
sI2
tp280
Rp281
g5
(S'-kkqahmlsenk5a35niokhgvftc8dkm4img'
p282
tp283
Rp284
sg1
((dp285
I0
I50
sI1
I2
sI2
tp286
Rp287
g5
(S'6r2elj5u2kpptheh7ibtpra85aphpu6hpk'
p288
tp289
Rp290
sg1
((dp291
I0
I65
sI1
I3
sI2
tp292
Rp293
g5
(S'2db39vb8vrrf4bnvqju4qs'
p294
tp295
Rp296
sg1
((dp297
I0
I53
sI1
I2
sI2
tp298
Rp299
g5
(S'25dspntrlqjfloksbrf33316hr9oql0lh4'
p300
tp301
Rp302
sg1
((dp303
I0
I38
sI1
I1
sI2
tp304
Rp305
g5
(S'c66rsst387hfr7gf9p5371blsq4vf9btp79svm'
p306
tp307
Rp308
sg1
((dp309
I0
I29
sI1
I4
sI2
tp310
Rp311
g5
(S'3e48d3jgv0v1r5e4un8m'
p312
tp313
Rp314
sg1
((dp315
I0
I18
sI2
tp316
Rp317
g5
(S'-6b56gjj1t8mo0scv9re0adqh0bvbsbfd4kpg0'
p318
tp319
Rp320
sg1
((dp321
I0
I84
sI1
I3
sI2
tp322
Rp323
g5
(S'-l1gg5o4dp8gavc4'
p324
tp325
Rp326
sg1
((dp327
I0
I64
sI2
tp328
Rp329
g5
(S'bhbrg7qls59m9gqn4stiei5i0fg3vjapt90qiof8bn8'
p330
tp331
Rp332
sg1
((dp333
I0
I111
sI1
I1
sI2
tp334
Rp335
g5
(S'oc5sflcouv18vr6ihr8coa220'
p336
tp337
Rp338
sg1
((dp339
I0
I72
sI1
I2
sI2
tp340
Rp341
g5
(S'hhiefvus5u16huhks2p9gp1n6p0k'
p342
tp343
Rp344
sg1
((dp345
I0
I87
sI1
I3
sI2
tp346
Rp347
g5
(S'-f6vl70ibkbrv5o'
p348
tp349
Rp350
sg1
((dp351
I0
I75
sI1
I2
sI2
tp352
Rp353
g5
(S'bshot9mp2gtgo0tpdn5qml0ako30'
p354
tp355
Rp356
sg1
((dp357
I0
I60
sI1
I1
sI2
tp358
Rp359
g5
(S'9fb4snbkmpgjetvdlkul54taesa9f5n9ei7t06'
p360
tp361
Rp362
sg1
((dp363
I0
I51
sI1
I4
sI2
tp364
Rp365
g5
(S'1gjvkcfg1gj84jii'
p366
tp367
Rp368
sg1
((dp369
I0
I12
sI1
I5
sI2
tp370
Rp371
g5
(S'1jata5ri4j2kk'
p372
tp373
Rp374
sg1
((dp375
I1
I4
sI2
tp376
Rp377
g5
(S'jtcfuv27rung0'
p378
tp379
Rp380
sg1
((dp381
I0
I11
sI2
tp382
Rp383
g5
(S'4nghe66se0mk60g3i5e2ubhgmer4aap0000'
p384
tp385
Rp386
sg1
((dp387
I0
I94
sI1
I2
sI2
tp388
Rp389
g5
(S'2rlfp50e36c96na58llpmvc0'
p390
tp391
Rp392
sg1
((dp393
I0
I97
sI1
I2
sI2
tp394
Rp395
g5
(S'-5logp3uavtt30q1f7bbpbsg'
p396
tp397
Rp398
sg1
((dp399
I0
I57
sI2
tp400
Rp401
g5
(S'j3714m909is29n62vkdm9hqtcmnjo0m8fp59rpbg5se'
p402
tp403
Rp404
sg1
((dp405
I0
I82
sI1
I1
sI2
tp406
Rp407
g5
(S'8kgiku9f58chb6ed85rlo0sgo6pd673alq6'
p408
tp409
Rp410
sg1
((dp411
I0
I103
sI2
tp412
Rp413
g5
(S'5vtltj3usfda1g3u3b0t6o8dl06k5ss3l6q'
p414
tp415
Rp416
sg1
((dp417
I0
I22
sI1
I4
sI2
tp418
Rp419
g5
(S'-4ph0rbuv51ojevjncnh8'
p420
tp421
Rp422
sg1
((dp423
I1
I3
sI2
tp424
Rp425
g5
(S'-3tsu1t4am30m258000'
p426
tp427
Rp428
sg1
((dp429
I0
I27
sI1
I1
sI2
tp430
Rp431
g5
(S'-1d5fahvu9o428ic6esl18jc0ad281giceu0f6'
p432
tp433
Rp434
sg1
((dp435
I0
I116
sI1
I2
sI2
tp436
Rp437
g5
(S'15cr7p3l4lads98'
p438
tp439
Rp440
sg1
((dp441
I0
I3
sI1
I3
sI2
tp442
Rp443
g5
(S'-1mvvka94p7tgb6055000'
p444
tp445
Rp446
sg1
((dp447
I0
I119
sI1
I2
sI2
tp448
Rp449
g5
(S'-3tp063g2a72o'
p450
tp451
Rp452
sg1
((dp453
I0
I104
sI1
I1
sI2
tp454
Rp455
g5
(S'9dte33hv62irsg1bv8hakbemmpko'
p456
tp457
Rp458
sg1
((dp459
I0
I4
sI2
tp460
Rp461
g5
(S'gdamak7mbbv9fsrriijh81b6ug00000'
p462
tp463
Rp464
sg1
((dp465
I0
I50
sI2
tp466
Rp467
g5
(S'8uli8po0vlomdun9qgtg4p249hf8miuouravb6cir2c'
p468
tp469
Rp470
sg1
((dp471
I0
I44
sI1
I4
sI2
tp472
Rp473
g5
(S'3j6qkikn4g31b6opvo'
p474
tp475
Rp476
sg1
((dp477
I0
I22
sI1
I3
sI2
tp478
Rp479
g5
(S'aaihb44493tpuo4lfraanqei40'
p480
tp481
Rp482
sg1
((dp483
I0
I96
sI2
tp484
Rp485
g5
(S'2140i708hpmijr9a8iie7b12ccibqls5b808hc'
p486
tp487
Rp488
sg1
((dp489
I0
I49
sI1
I1
sI2
tp490
Rp491
g5
(S'dnik4s4be2t3ci20k0v1irloii9fob6gpvogedm'
p492
tp493
Rp494
sg1
((dp495
I0
I10
sI1
I2
sI2
tp496
Rp497
g5
(S'-4rfh7mmkq4bps1613q8k0bq6l00'
p498
tp499
Rp500
sg1
((dp501
I0
I25
sI1
I3
sI2
tp502
Rp503
g5
(S'36f2cg15a870jp3dgv7eeiuq558'
p504
tp505
Rp506
sg1
((dp507
I0
I13
sI1
I2
sI2
tp508
Rp509
g5
(S'18q9iki4s4imcrrg8od6sskqtrd80'
p510
tp511
Rp512
sg1
((dp513
I0
I126
sI1
I1
sI2
tp514
Rp515
g5
(S'ejfp40qo'
p516
tp517
Rp518
sg1
((dp519
I0
I5
sI1
I4
sI2
tp520
Rp521
g5
(S'-39tpshi0r821ihc0'
p522
tp523
Rp524
sg1
((dp525
I0
I1
sI1
I5
sI2
tp526
Rp527
g5
(S'-s9880n40'
p528
tp529
Rp530
sg1
((dp531
I0
I44
sI1
I3
sI2
tp532
Rp533
g5
(S'114ufv6i8p29ed6vd28raruog1o'
p534
tp535
Rp536
sg1
((dp537
I0
I71
sI1
I1
sI2
tp538
Rp539
g5
(S'-qoqu70po5q477l9t7toppfml8c1stiefblg2i'
p540
tp541
Rp542
sg1
((dp543
I0
I32
sI1
I2
sI2
tp544
Rp545
g5
(S'7a7ilu6bgp2ed6qtem0slf90i06epvt49k'
p546
tp547
Rp548
sg1
((dp549
I0
I47
sI1
I3
sI2
tp550
Rp551
g5
(S'-5nrg5ia2g0hrfvvcvsfflhpdq0'
p552
tp553
Rp554
sg1
((dp555
I0
I35
sI1
I2
sI2
tp556
Rp557
g5
(S'hefi6hc2lef3c4gh61m7vm8e9vpj305bqs'
p558
tp559
Rp560
sg1
((dp561
I0
I89
sI2
tp562
Rp563
g5
(S'1vufphueg37la2oh4oqmktnagd75357h1l9ev11o'
p564
tp565
Rp566
sg1
((dp567
I0
I30
sI1
I5
sI2
tp568
Rp569
g5
(S'-3h05iq'
p570
tp571
Rp572
sg1
((dp573
I0
I23
sI1
I5
sI2
tp574
Rp575
g5
(S'-78p5ido7f2o'
p576
tp577
Rp578
sg1
((dp579
I0
I11
sI1
I4
sI2
tp580
Rp581
g5
(S'-7gn7fqc081gvqelv70'
p582
tp583
Rp584
sg1
((dp585
I0
I66
sI1
I3
sI2
tp586
Rp587
g5
(S'34cb84c398f3rru9pkiuo'
p588
tp589
Rp590
sg1
((dp591
I0
I93
sI1
I1
sI2
tp592
Rp593
g5
(S'10g4tniio04r77khgbdqvp5vbu7g9kf3e'
p594
tp595
Rp596
sg1
((dp597
I0
I54
sI1
I2
sI2
tp598
Rp599
g5
(S'1c47mr554832belgjgss6p9td6j1pnrb9k'
p600
tp601
Rp602
sg1
((dp603
I0
I69
sI1
I3
sI2
tp604
Rp605
g5
(S'-7iber1ers5iel6dbh6t0'
p606
tp607
Rp608
sg1
((dp609
I0
I57
sI1
I2
sI2
tp610
Rp611
g5
(S'94jobcfvv4j5nvihk84gstu54r9j41vc0'
p612
tp613
Rp614
sg1
((dp615
I0
I42
sI1
I1
sI2
tp616
Rp617
g5
(S'38sn6hlhdu0dpq3svd9vvo9gp3kq0jaq22pimg4'
p618
tp619
Rp620
sg1
((dp621
I0
I36
sI2
tp622
Rp623
g5
(S'uvk67s89i7fmqc5tb5m40lf917mrptjas2l3mlkp0'
p624
tp625
Rp626
sg1
((dp627
I0
I33
sI1
I4
sI2
tp628
Rp629
g5
(S'1felbe801o0j59sqajqe'
p630
tp631
Rp632
sg1
((dp633
I0
I82
sI2
tp634
Rp635
g5
(S'asd0gk9rl6ru35d1hs91j9ioho4voijfimr8opmbg'
p636
tp637
Rp638
sg1
((dp639
I0
I88
sI1
I3
sI2
tp640
Rp641
g5
(S'-jvhdegt5gc2l4'
p642
tp643
Rp644
sg1
((dp645
I0
I115
sI1
I1
sI2
tp646
Rp647
g5
(S'86hgia6b24q87mnqip41dlq'
p648
tp649
Rp650
sg1
((dp651
I0
I76
sI1
I2
sI2
tp652
Rp653
g5
(S'edqdbvr4n0tiejvsnu3sbvg9fcgk'
p654
tp655
Rp656
sg1
((dp657
I0
I91
sI1
I3
sI2
tp658
Rp659
g5
(S'4dkl2qap37o'
p660
tp661
Rp662
sg1
((dp663
I0
I79
sI1
I2
sI2
tp664
Rp665
g5
(S'1e6q25s1d0mj8cfn7knsiabilmto'
p666
tp667
Rp668
sg1
((dp669
I0
I64
sI1
I1
sI2
tp670
Rp671
g5
(S'-i06p6rirgv3335tk707rssqbm1sg450f1etn7a'
p672
tp673
Rp674
sg1
((dp675
I0
I55
sI1
I4
sI2
tp676
Rp677
g5
(S'-1gag5aire6f26m'
p678
tp679
Rp680
sg1
((dp681
I0
I29
sI2
tp682
Rp683
g5
(S'503i4ja47jknellvvhhi9jm47eaj2s885ugtn8nc'
p684
tp685
Rp686
sg1
((dp687
I0
I16
sI1
I5
sI2
tp688
Rp689
g5
(S'1rl0dth1d5t18'
p690
tp691
Rp692
sg1
((dp693
I0
I4
sI1
I4
sI2
tp694
Rp695
g5
(S'1qqgthnba4cc9360'
p696
tp697
Rp698
sg1
((dp699
I0
I75
sI2
tp700
Rp701
g5
(S'e1ra4dsut01k8c36vhvfk4mt887fvqf4cm2npd8f2c'
p702
tp703
Rp704
sg1
((dp705
I0
I98
sI1
I2
sI2
tp706
Rp707
g5
(S'-25suekr33369am1qs8qgqak'
p708
tp709
Rp710
sg1
((dp711
I0
I101
sI1
I2
sI2
tp712
Rp713
g5
(S'jitohnaampu1snj3h15bc'
p714
tp715
Rp716
sg1
((dp717
I0
I121
sI2
tp718
Rp719
g5
(S'-4kp9qn26husrm4564b9htq'
p720
tp721
Rp722
sg1
((dp723
I0
I86
sI1
I1
sI2
tp724
Rp725
g5
(S'-n10ersc85q8jaah0ul9hes9htf1od552j8'
p726
tp727
Rp728
sg1
((dp729
I0
I26
sI1
I4
sI2
tp730
Rp731
g5
(S'8v2pu5jsu3fa3hicmg4m'
p732
tp733
Rp734
sg1
((dp735
I0
I22
sI2
tp736
Rp737
g5
(S'-od1egv0lqh0g6ed1lt9cqh619jnoh14dsujuh0'
p738
tp739
Rp740
sg1
((dp741
I0
I4
sI1
I3
sI2
tp742
Rp743
g5
(S'-41877cbt5dh8dddp8e00'
p744
tp745
Rp746
sg1
((dp747
I0
I31
sI1
I1
sI2
tp748
Rp749
g5
(S'-h98fdad3rf8moi6ud9733fo3fh8tppvplijuk'
p750
tp751
Rp752
sg1
((dp753
I0
I120
sI1
I2
sI2
tp754
Rp755
g5
(S'3jr1hj9qou0'
p756
tp757
Rp758
sg1
((dp759
I0
I7
sI1
I3
sI2
tp760
Rp761
g5
(S'650ch7elp1m05eepuvd00'
p762
tp763
Rp764
sg1
((dp765
I0
I123
sI1
I2
sI2
tp766
Rp767
g5
(S'-k3cild8'
p768
tp769
Rp770
sg1
((dp771
I0
I108
sI1
I1
sI2
tp772
Rp773
g5
(S'23gnnhfqhsgfssoprcprptuuvai'
p774
tp775
Rp776
sg1
((dp777
I0
I68
sI2
tp778
Rp779
g5
(S'4vvbmvg9tauvd0flu5n37uujs3as1a28ant3op87578'
p780
tp781
Rp782
sg1
((dp783
I0
I9
sI1
I1
sI2
tp784
Rp785
g5
(S'-4u42h6dd1aqeqi7iejpqlh6boh5g000'
p786
tp787
Rp788
sg1
((dp789
I0
I114
sI2
tp790
Rp791
g5
(S'dm30pff7a8ipb89n5lrbedddfo6k'
p792
tp793
Rp794
sg1
((dp795
I0
I34
sI1
I2
sI2
tp796
Rp797
g5
(S'dkr3eg012ipd9bheenk8nfkj0b4ten9dd8'
p798
tp799
Rp800
sg1
((dp801
I0
I48
sI1
I4
sI2
tp802
Rp803
g5
(S'286pudqqvlrqfhjhu'
p804
tp805
Rp806
sg1
((dp807
I0
I26
sI1
I3
sI2
tp808
Rp809
g5
(S'5431jqio8198dhbqkqngr8h59bo'
p810
tp811
Rp812
sg1
((dp813
I0
I53
sI1
I1
sI2
tp814
Rp815
g5
(S'balopqjd70oeto3rr3s7lm4q6bpltpa2hg8idm8'
p816
tp817
Rp818
sg1
((dp819
I0
I14
sI1
I2
sI2
tp820
Rp821
g5
(S'afrpj0h1ehhvmas45uucqimfllkm0'
p822
tp823
Rp824
sg1
((dp825
I0
I29
sI1
I3
sI2
tp826
Rp827
g5
(S'g6thph3npj1svs3rf2k9hf5fkvk'
p828
tp829
Rp830
sg1
((dp831
I0
I17
sI1
I2
sI2
tp832
Rp833
g5
(S'1dkvgtv2bah4do04d1bs7cd7dq2gmp0'
p834
tp835
Rp836
sg1
((dp837
I0
I2
sI1
I1
sI2
tp838
Rp839
g5
(S'-2671b1mo66jm1q77qmafgo00000'
p840
tp841
Rp842
sg1
((dp843
I0
I15
sI2
tp844
Rp845
g5
(S'cjld6u2acmj0ecm8u772jepm1un12sn01000'
p846
tp847
Rp848
sg1
((dp849
I0
I61
sI2
tp850
Rp851
g5
(S'gkpfm05lafb1hn3hklfpi9sks4kb3l4ggnlec0m80hs'
p852
tp853
Rp854
sg1
((dp855
I0
I48
sI1
I3
sI2
tp856
Rp857
g5
(S'-68hltbt120a93p6rvb4fqtrkmc'
p858
tp859
Rp860
sg1
((dp861
I0
I107
sI2
tp862
Rp863
g5
(S'68cqo0j3tgeeptdm1ojl0pgi1a6am218g'
p864
tp865
Rp866
sg1
((dp867
I0
I36
sI1
I2
sI2
tp868
Rp869
g5
(S'lce5181r77fl2525buu4sui82mjtsajibo'
p870
tp871
Rp872
sg1
((dp873
I0
I51
sI1
I3
sI2
tp874
Rp875
g5
(S'-28ah8ofhhg9skkgj7ul1om5tgk'
p876
tp877
Rp878
sg1
((dp879
I0
I3
sI2
tp880
Rp881
g5
(S'1e4skqgjdsae6sfl4e9hdv8mk000000'
p882
tp883
Rp884
sg1
((dp885
I0
I39
sI1
I2
sI2
tp886
Rp887
g5
(S'us399i9vu4o8tr1e68na5qngv86tokkj6g'
p888
tp889
Rp890
sg1
((dp891
I0
I24
sI1
I1
sI2
tp892
Rp893
g5
(S'-1td1num57otqo9gjl5k49t1mea47i82t9rfo'
p894
tp895
Rp896
sg1
((dp897
I0
I27
sI1
I5
sI2
tp898
Rp899
g5
(S'-3h0vig5a6'
p900
tp901
Rp902
sg1
((dp903
I0
I15
sI1
I4
sI2
tp904
Rp905
g5
(S'-5mrbs4d79pruqtk4ka'
p906
tp907
Rp908
sg1
((dp909
I0
I20
sI1
I1
sI2
tp910
Rp911
g5
(S'4bd4nf7edpodp0vqqodjoe2jangtkijo5e8'
p912
tp913
Rp914
sg1
((dp915
I0
I54
sI2
tp916
Rp917
g5
(S'g5veqfmrl7qqj9kpmc9d3hiukml3ppt2n93gpm3lhmo'
p918
tp919
Rp920
sg1
((dp921
I0
I70
sI1
I3
sI2
tp922
Rp923
g5
(S'7tuqoj4kc7d0tieoi84g'
p924
tp925
Rp926
sg1
((dp927
I0
I97
sI1
I1
sI2
tp928
Rp929
g5
(S'-da73jf04peoa3b60le9b3aenv53pbbm'
p930
tp931
Rp932
sg1
((dp933
I0
I58
sI1
I2
sI2
tp934
Rp935
g5
(S'50vkrcbic1hu0ikr38ejo4495ur060tcc'
p936
tp937
Rp938
sg1
((dp939
I0
I73
sI1
I3
sI2
tp940
Rp941
g5
(S'dcl6p5r1li6d2r3lr88'
p942
tp943
Rp944
sg1
((dp945
I0
I61
sI1
I2
sI2
tp946
Rp947
g5
(S'lcdf99q0t315389su1l4p2tjh0ls8otg'
p948
tp949
Rp950
sg1
((dp951
I0
I46
sI1
I1
sI2
tp952
Rp953
g5
(S'9rk8f40b8os9kge8kut420lccgl5l7d51m3hdkq'
p954
tp955
Rp956
sg1
((dp957
I0
I100
sI2
tp958
Rp959
g5
(S'ehm3v51mervkc1q86fl2ees9gva2uickhgj4'
p960
tp961
Rp962
sg1
((dp963
I0
I37
sI1
I4
sI2
tp964
Rp965
g5
(S'bb70cir8dp4k8q24i48'
p966
tp967
Rp968
sg1
((dp969
I0
I92
sI1
I3
sI2
tp970
Rp971
g5
(S'vjcab665g'
p972
tp973
Rp974
sg1
((dp975
I0
I119
sI1
I1
sI2
tp976
Rp977
g5
(S'1tp7lckvdlr0a9n3sooqu'
p978
tp979
Rp980
sg1
((dp981
I0
I80
sI1
I2
sI2
tp982
Rp983
g5
(S'4vgt95m27sb9t3dfbl3mmodtssg'
p984
tp985
Rp986
sg1
((dp987
I0
I95
sI1
I3
sI2
tp988
Rp989
g5
(S'2fc'
p990
tp991
Rp992
sg1
((dp993
I0
I83
sI1
I2
sI2
tp994
Rp995
g5
(S'-2e9aictcm5tbe0tiq4e1vofi2k8'
p996
tp997
Rp998
sg1
((dp999
I0
I68
sI1
I1
sI2
tp1000
Rp1001
g5
(S'-56iu7spdkeql6dcuq947jgqjel4b13tqnpqnui'
p1002
tp1003
Rp1004
sg1
((dp1005
I0
I47
sI2
tp1006
Rp1007
g5
(S'49hnnj915fpt4e7g8lg1huqb9i5pum0sb22fo9gsaqa'
p1008
tp1009
Rp1010
sg1
((dp1011
I0
I59
sI1
I4
sI2
tp1012
Rp1013
g5
(S'-428q10qipaa'
p1014
tp1015
Rp1016
sg1
((dp1017
I0
I93
sI2
tp1018
Rp1019
g5
(S'1iap5dv17m8qkqcpdll8vvb4m9uc41m5ikhqfe0'
p1020
tp1021
Rp1022
sg1
((dp1023
I0
I20
sI1
I5
sI2
tp1024
Rp1025
g5
(S'3eue8fqipg28'
p1026
tp1027
Rp1028
sg1
((dp1029
I0
I8
sI1
I4
sI2
tp1030
Rp1031
g5
(S'86d4uobh80gp5jf8o'
p1032
tp1033
Rp1034
sg1
((dp1035
I0
I13
sI1
I1
sI2
tp1036
Rp1037
g5
(S'-b1ler7ti23j76gobfe1obvoa4cbvag00'
p1038
tp1039
Rp1040
sg1
((dp1041
I0
I102
sI1
I2
sI2
tp1042
Rp1043
g5
(S'-n9m433ba6ioqd3h4d4dg0'
p1044
tp1045
Rp1046
sg1
((dp1047
I0
I105
sI1
I2
sI2
tp1048
Rp1049
g5
(S'6nms80j8ljukklaksrf4'
p1050
tp1051
Rp1052
sg1
((dp1053
I0
I90
sI1
I1
sI2
tp1054
Rp1055
g5
(S'1r94r5jma23jlfngqcpuu0djsip9ne0cg'
p1056
tp1057
Rp1058
sg1
((dp1059
I0
I9
sI1
I2
sI2
tp1060
Rp1061
g5
(S'-1iqd9m3dg0ocrmpfma77kn07c00'
p1062
tp1063
Rp1064
sg1
((dp1065
I0
I40
sI2
tp1066
Rp1067
g5
(S'8ro2i9jqddrmbioiuhj9svfjtfmgtj3q41ul8a76kg'
p1068
tp1069
Rp1070
sg1
((dp1071
I0
I86
sI2
tp1072
Rp1073
g5
(S'm34t3dk7r8aqvueim1b9jclnn9vk0000rou00rk0'
p1074
tp1075
Rp1076
sg1
((dp1077
I0
I8
sI1
I3
sI2
tp1078
Rp1079
g5
(S'-7hdqffcohh08aaod09rs0'
p1080
tp1081
Rp1082
sg1
((dp1083
I0
I35
sI1
I1
sI2
tp1084
Rp1085
g5
(S'-gmotkeeq17q3riep65alkfv985ufi1725ubfm'
p1086
tp1087
Rp1088
sg1
((dp1089
I0
I124
sI1
I2
sI2
tp1090
Rp1091
g5
(S'6a89ls'
p1092
tp1093
Rp1094
sg1
((dp1095
I0
I11
sI1
I3
sI2
tp1096
Rp1097
g5
(S'-aj1be66bfabmnf983hn62c0'
p1098
tp1099
Rp1100
sg1
((dp1101
I0
I127
sI1
I2
sI2
tp1102
Rp1103
g5
(S'-c'
p1104
tp1105
Rp1106
sg1
((dp1107
I0
I112
sI1
I1
sI2
tp1108
Rp1109
g5
(S'-9pq7h4hebuskdai2dogrf4t7a'
p1110
tp1111
Rp1112
sg1
((dp1113
I0
I52
sI1
I4
sI2
tp1114
Rp1115
g5
(S'afffq48fommf3kg'
p1116
tp1117
Rp1118
sg1
((dp1119
I0
I71
sI1
I3
sI2
tp1120
Rp1121
g5
(S'b9ot7dv7q1j9grm982g'
p1122
tp1123
Rp1124
sg1
((dp1125
I0
I33
sI2
tp1126
Rp1127
g5
(S'4ai3nm9s02kc1nk7s9ajv3umti8ofi5dja3e9f5uq'
p1128
tp1129
Rp1130
sg1
((dp1131
I0
I57
sI1
I1
sI2
tp1132
Rp1133
g5
(S'3qlf3ihpcgpq1ovl6p59a4kc4em140bkkvht76e'
p1134
tp1135
Rp1136
sg1
((dp1137
I0
I18
sI1
I2
sI2
tp1138
Rp1139
g5
(S'5gl9h3nuju4bagoj6a1ih63ft15t76g'
p1140
tp1141
Rp1142
sg1
((dp1143
I0
I33
sI1
I3
sI2
tp1144
Rp1145
g5
(S'vkic2a7elfmi0k801h5dk2uf20s'
p1146
tp1147
Rp1148
sg1
((dp1149
I0
I21
sI1
I2
sI2
tp1150
Rp1151
g5
(S'5ec2uu322acn69em8t1te1ml92p7bt3g'
p1152
tp1153
Rp1154
sg1
((dp1155
I0
I6
sI1
I1
sI2
tp1156
Rp1157
g5
(S'ftjjdc98l2k7838hdvbeo1je40000'
p1158
tp1159
Rp1160
sg1
((dp1161
I0
I79
sI2
tp1162
Rp1163
g5
(S'1v8j0sbn2frmb20rrkvia1r1n7tfvm4r7gat5g7g7m'
p1164
tp1165
Rp1166
sg1
((dp1167
I0
I125
sI2
tp1168
Rp1169
g5
(S'-1iv794hnk86mqpo'
p1170
tp1171
Rp1172
sg1
((dp1173
I0
I52
sI1
I3
sI2
tp1174
Rp1175
g5
(S'-199gspjnl9ptk4cn6jotav23pg'
p1176
tp1177
Rp1178
sg1
((dp1179
I0
I79
sI1
I1
sI2
tp1180
Rp1181
g5
(S'6ip958q27jo643rlen5qiik4kfo1if9ppi04'
p1182
tp1183
Rp1184
sg1
((dp1185
I0
I40
sI1
I2
sI2
tp1186
Rp1187
g5
(S'10906fas0tfv87p8ul1r56ephr76pdh8bsc'
p1188
tp1189
Rp1190
sg1
((dp1191
I0
I55
sI1
I3
sI2
tp1192
Rp1193
g5
(S'-4evec1gihk2tvporktg773smg'
p1194
tp1195
Rp1196
sg1
((dp1197
I0
I43
sI1
I2
sI2
tp1198
Rp1199
g5
(S'tfkqfk5e20b3o63pu3rgsjcensvhbs62g0'
p1200
tp1201
Rp1202
sg1
((dp1203
I0
I28
sI1
I1
sI2
tp1204
Rp1205
g5
(S'-30eqineqdsm9igrpvm519fte5a9joaljo0rn0'
p1206
tp1207
Rp1208
sg1
((dp1209
I0
I26
sI2
tp1210
Rp1211
g5
(S'-21rpecm7l62nujk8vhd6lq1evbubv017s70rfho'
p1212
tp1213
Rp1214
sg1
((dp1215
I0
I31
sI1
I5
sI2
tp1216
Rp1217
g5
(S'ihqc'
p1218
tp1219
Rp1220
sg1
((dp1221
I0
I19
sI1
I4
sI2
tp1222
Rp1223
g5
(S'53l8b7alrvdbf55e1n8e'
p1224
tp1225
Rp1226
sg1
((dp1227
I0
I72
sI2
tp1228
Rp1229
g5
(S'1ee2kj40rrs3rhlcts6p144m4m9aoepa0bfqroj8fcs'
p1230
tp1231
Rp1232
sg1
((dp1233
I0
I118
sI2
tp1234
Rp1235
g5
(S'm2m5idmlfujqt2oko59oceu0'
p1236
tp1237
Rp1238
sg1
((dp1239
I0
I74
sI1
I3
sI2
tp1240
Rp1241
g5
(S'132u0h1sea6v3gaqhis'
p1242
tp1243
Rp1244
sg1
((dp1245
I0
I101
sI1
I1
sI2
tp1246
Rp1247
g5
(S'34htvstr3fbn1qpkudh5vaqm703i4a'
p1248
tp1249
Rp1250
sg1
((dp1251
I0
I62
sI1
I2
sI2
tp1252
Rp1253
g5
(S'a33v1bhvi240rrjch55gfmcd9ju8j0oo'
p1254
tp1255
Rp1256
sg1
((dp1257
I0
I77
sI1
I3
sI2
tp1258
Rp1259
g5
(S'-3296moeufda6k3pj0k'
p1260
tp1261
Rp1262
sg1
((dp1263
I0
I65
sI1
I2
sI2
tp1264
Rp1265
g5
(S'qdhki5g79618o3v6i1j2d8c6h4dofac'
p1266
tp1267
Rp1268
sg1
((dp1269
I0
I50
sI1
I1
sI2
tp1270
Rp1271
g5
(S'e11vflflu8nq11v3k4bmenbbl8gjco9li8o3kn2'
p1272
tp1273
Rp1274
sg1
((dp1275
I0
I41
sI1
I4
sI2
tp1276
Rp1277
g5
(S'13ft661u48tu3p9ute0'
p1278
tp1279
Rp1280
sg1
((dp1281
I0
I2
sI1
I5
sI2
tp1282
Rp1283
g5
(S'-etcd12b00'
p1284
tp1285
Rp1286
sg1
((dp1287
I0
I19
sI2
tp1288
Rp1289
g5
(S'-v7cfp36ih45j33vq3g9f5157315tg421nlug0'
p1290
tp1291
Rp1292
sg1
((dp1293
I0
I65
sI2
tp1294
Rp1295
g5
(S'9n17pjmbcj0bvsgj15r4bphd8qj8rahgki5ib1o5s64'
p1296
tp1297
Rp1298
sg1
((dp1299
I0
I123
sI1
I1
sI2
tp1300
Rp1301
g5
(S'ib8u1aj8me7dia6'
p1302
tp1303
Rp1304
sg1
((dp1305
I0
I84
sI1
I2
sI2
tp1306
Rp1307
g5
(S'-n3bdq3h5c79548ihm5e4hq1ot8'
p1308
tp1309
Rp1310
sg1
((dp1311
I0
I87
sI1
I2
sI2
tp1312
Rp1313
g5
(S'29iormp817k939kkh4nc85e728'
p1314
tp1315
Rp1316
sg1
((dp1317
I0
I72
sI1
I1
sI2
tp1318
Rp1319
g5
(S'-b65ku8pv4freq7k3evat6h8b0pee8r1dqefgo'
p1320
tp1321
Rp1322
sg1
((dp1323
I0
I111
sI2
tp1324
Rp1325
g5
(S'172h9vsh6ch0loutganif600r5r4ndk'
p1326
tp1327
Rp1328
sg1
((dp1329
I0
I63
sI1
I4
sI2
tp1330
Rp1331
g5
(S'-3fjs'
p1332
tp1333
Rp1334
sg1
((dp1335
I0
I24
sI1
I5
sI2
tp1336
Rp1337
g5
(S'14r10je07g'
p1338
tp1339
Rp1340
sg1
((dp1341
I0
I2
sI2
tp1342
Rp1343
g5
(S'31inu5kqo634m0dd76noiekg000000'
p1344
tp1345
Rp1346
sg1
((dp1347
I0
I12
sI1
I4
sI2
tp1348
Rp1349
g5
(S'i2qftbp4tfpifgkci4'
p1350
tp1351
Rp1352
sg1
((dp1353
I0
I17
sI1
I1
sI2
tp1354
Rp1355
g5
(S'9jk5hfrlr8dkjl13g71o57npitj1h9nec0'
p1356
tp1357
Rp1358
sg1
((dp1359
I0
I106
sI1
I2
sI2
tp1360
Rp1361
g5
(S'-329uskeil4hc6gpms5hc'
p1362
tp1363
Rp1364
sg1
((dp1365
I0
I12
sI2
tp1366
Rp1367
g5
(S'hvri6otojirsqdjigbk0749eg51susl8000'
p1368
tp1369
Rp1370
sg1
((dp1371
I0
I109
sI1
I2
sI2
tp1372
Rp1373
g5
(S'-7mnn5kud6rhvt7r8gc'
p1374
tp1375
Rp1376
sg1
((dp1377
I0
I94
sI1
I1
sI2
tp1378
Rp1379
g5
(S'8knmckc21661k744cfqqqglnehfjc1a8'
p1380
tp1381
Rp1382
sg1
((dp1383
I0
I58
sI2
tp1384
Rp1385
g5
(S'j5eh6rh62och1bsi93g2chemv1ffcp6bmnl4smv0boi'
p1386
tp1387
Rp1388
sg1
((dp1389
I0
I104
sI2
tp1390
Rp1391
g5
(S'16vj6jcbak775vq064m37eoh54i576bksuc'
p1392
tp1393
Rp1394
sg1
((dp1395
I0
I12
sI1
I3
sI2
tp1396
Rp1397
g5
(S'-uvdca13ea9g77ime0gqjaeg'
p1398
tp1399
Rp1400
sg1
((dp1401
I0
I39
sI1
I1
sI2
tp1402
Rp1403
g5
(S'o8102006i4n45ujj8pqd7ld25nnaff5vothvcu'
p1404
tp1405
Rp1406
sg1
((dp1407
I1
I2
sI2
tp1408
Rp1409
g5
(S'5l4pelpdjhcgbkjhm80000'
p1410
tp1411
Rp1412
sg1
((dp1413
I0
I15
sI1
I3
sI2
tp1414
Rp1415
g5
(S'-j13kb6vtnd8fr14k4teoq91o'
p1416
tp1417
Rp1418
sg1
((dp1419
I0
I3
sI1
I2
sI2
tp1420
Rp1421
g5
(S'-3m7nd8tug8hlu655a78q0000'
p1422
tp1423
Rp1424
sg1
((dp1425
I0
I116
sI1
I1
sI2
tp1426
Rp1427
g5
(S'538l41hl5pngqam4g4up60g'
p1428
tp1429
Rp1430
sg1
((dp1431
I0
I5
sI2
tp1432
Rp1433
g5
(S'4mhk3qpe4hb6ts2e8uu3r5otr4g00000'
p1434
tp1435
Rp1436
sg1
((dp1437
I0
I56
sI1
I4
sI2
tp1438
Rp1439
g5
(S'eq1vmocig58ge'
p1440
tp1441
Rp1442
sg1
((dp1443
I0
I51
sI2
tp1444
Rp1445
g5
(S'aq5tq6i1iu77ats8a5l7ngpmar9drpll6ohn9ncljas'
p1446
tp1447
Rp1448
sg1
((dp1449
I0
I34
sI1
I4
sI2
tp1450
Rp1451
g5
(S'16fnp0ejurpf4efabcb4'
p1452
tp1453
Rp1454
sg1
((dp1455
I0
I97
sI2
tp1456
Rp1457
g5
(S'kbvm7pushlbf3cunlkf02or04p75a09ajuchm'
p1458
tp1459
Rp1460
sg1
((dp1461
I0
I61
sI1
I1
sI2
tp1462
Rp1463
g5
(S'-7cf4nasrqd4uqu48cunurlabgbmuoel72cpheu'
p1464
tp1465
Rp1466
sg1
((dp1467
I0
I22
sI1
I2
sI2
tp1468
Rp1469
g5
(S'efuhmn8kj8cqnhku0nb3orip53eihrq8'
p1470
tp1471
Rp1472
sg1
((dp1473
I0
I37
sI1
I3
sI2
tp1474
Rp1475
g5
(S'nilcvcelss6lkcb5qh5h46v091c'
p1476
tp1477
Rp1478
sg1
((dp1479
I0
I25
sI1
I2
sI2
tp1480
Rp1481
g5
(S'5gjjtgbpm4c5vaou59jcjtc65mgd0spj0'
p1482
tp1483
Rp1484
sg1
((dp1485
I0
I10
sI1
I1
sI2
tp1486
Rp1487
g5
(S'-tg04qg10tlpmdklivdefib8dug7m000'
p1488
tp1489
Rp1490
sg1
((dp1491
I0
I13
sI1
I5
sI2
tp1492
Rp1493
g5
(S'-ts7th2vs2668'
p1494
tp1495
Rp1496
sg1
((dp1497
I0
I1
sI1
I4
sI2
tp1498
Rp1499
g5
(S'-gicqueo67dam00'
p1500
tp1501
Rp1502
sg1
((dp1503
I0
I56
sI1
I3
sI2
tp1504
Rp1505
g5
(S'-1mmj1l63h9m52q0asdnhpu11c'
p1506
tp1507
Rp1508
sg1
((dp1509
I0
I83
sI1
I1
sI2
tp1510
Rp1511
g5
(S'4h819s6rga0t0k1855lho9fitf6rq1klfc'
p1512
tp1513
Rp1514
sg1
((dp1515
I0
I44
sI1
I2
sI2
tp1516
Rp1517
g5
(S'qjbd06lnavumb2fuoabivreockrlec308k'
p1518
tp1519
Rp1520
sg1
((dp1521
I0
I59
sI1
I3
sI2
tp1522
Rp1523
g5
(S'-ktm7j7c72tg80g04ikrd13s'
p1524
tp1525
Rp1526
sg1
((dp1527
I0
I44
sI2
tp1528
Rp1529
g5
(S'1iqhoqe8bh7ijiio94c71lang15o5o9v7otitfpnhiq'
p1530
tp1531
Rp1532
sg1
((dp1533
I0
I47
sI1
I2
sI2
tp1534
Rp1535
g5
(S'fpchbv4irt6ntl26htudva7lvf7funnmco'
p1536
tp1537
Rp1538
sg1
((dp1539
I0
I32
sI1
I1
sI2
tp1540
Rp1541
g5
(S'-pk2fkcuin4h12greobt88gh2h5t92dujqrj42'
p1542
tp1543
Rp1544
sg1
((dp1545
I0
I90
sI2
tp1546
Rp1547
g5
(S'qpbq0cdanmv89qlrvoagoalahg75kk223nq9ice'
p1548
tp1549
Rp1550
sg1
((dp1551
I0
I23
sI1
I4
sI2
tp1552
Rp1553
g5
(S'-22i6jgi4s25rvnid8asu'
p1554
tp1555
Rp1556
sg1
((dp1557
I0
I5
sI1
I5
sI2
tp1558
Rp1559
g5
(S'-619jgj7fm1g'
p1560
tp1561
Rp1562
sg1
((dp1563
I0
I78
sI1
I3
sI2
tp1564
Rp1565
g5
(S'-1cm8hqtlorcevcbn1o'
p1566
tp1567
Rp1568
sg1
((dp1569
I0
I105
sI1
I1
sI2
tp1570
Rp1571
g5
(S'-j080kuv948b1u4ldnrdknk3v0hea'
p1572
tp1573
Rp1574
sg1
((dp1575
I0
I66
sI1
I2
sI2
tp1576
Rp1577
g5
(S'adms301fm79gk09cf8vtfhe85p683mk'
p1578
tp1579
Rp1580
sg1
((dp1581
I0
I81
sI1
I3
sI2
tp1582
Rp1583
g5
(S'1kdk3n7fdclt3uua8'
p1584
tp1585
Rp1586
sg1
((dp1587
I0
I69
sI1
I2
sI2
tp1588
Rp1589
g5
(S'd8vn00vas564kkm9ec2132k1gm4k2o'
p1590
tp1591
Rp1592
sg1
((dp1593
I0
I54
sI1
I1
sI2
tp1594
Rp1595
g5
(S'9hcmiifqrmt87gfaqjvsm2lqva69cuc9olpsp02'
p1596
tp1597
Rp1598
sg1
((dp1599
I0
I37
sI2
tp1600
Rp1601
g5
(S'1o7m12cmopmgmf3cbed6jssur5jr30bvagdbb5kd6m'
p1602
tp1603
Rp1604
sg1
((dp1605
I0
I45
sI1
I4
sI2
tp1606
Rp1607
g5
(S'1fpger24ii8oos09du'
p1608
tp1609
Rp1610
sg1
((dp1611
I0
I6
sI1
I5
sI2
tp1612
Rp1613
g5
(S'-3ntl60h1igc'
p1614
tp1615
Rp1616
sg1
((dp1617
I0
I83
sI2
tp1618
Rp1619
g5
(S'5mumie9albcrj3amqi5nlns31s5gjscnn9j3aovia'
p1620
tp1621
Rp1622
sg1
((dp1623
I0
I127
sI1
I1
sI2
tp1624
Rp1625
g5
(S'hdq'
p1626
tp1627
Rp1628
sg1
((dp1629
I0
I88
sI1
I2
sI2
tp1630
Rp1631
g5
(S'q1in6mbgl5f7rje5inh8mbmeo'
p1632
tp1633
Rp1634
sg1
((dp1635
I0
I91
sI1
I2
sI2
tp1636
Rp1637
g5
(S'-1ph11gq8jp2ecktfg3dte5g6g'
p1638
tp1639
Rp1640
sg1
((dp1641
I0
I76
sI1
I1
sI2
tp1642
Rp1643
g5
(S'tv6ljm96alsk3onj5ksu473m4ffpehoepobo'
p1644
tp1645
Rp1646
sg1
((dp1647
I0
I28
sI1
I5
sI2
tp1648
Rp1649
g5
(S'12uk1i7k'
p1650
tp1651
Rp1652
sg1
((dp1653
I0
I30
sI2
tp1654
Rp1655
g5
(S'd14krd8giujpiolbkjqjfq83ob0chhjdpuimlv46'
p1656
tp1657
Rp1658
sg1
((dp1659
I0
I16
sI1
I4
sI2
tp1660
Rp1661
g5
(S'-kf1tsigj8r9hoh54lvc'
p1662
tp1663
Rp1664
sg1
((dp1665
I0
I21
sI1
I1
sI2
tp1666
Rp1667
g5
(S'743g6pl5eveklub7r9e5flsahshm791ocog'
p1668
tp1669
Rp1670
sg1
((dp1671
I0
I110
sI1
I2
sI2
tp1672
Rp1673
g5
(S'-4kk2n7oqeq55l3n7ng'
p1674
tp1675
Rp1676
sg1
((dp1677
I0
I76
sI2
tp1678
Rp1679
g5
(S'8unnuhbdl4odbm34ffa72bf33age0iepnv3umpenoi'
p1680
tp1681
Rp1682
sg1
((dp1683
I0
I113
sI1
I2
sI2
tp1684
Rp1685
g5
(S'-jbivhplu6i2nhd90'
p1686
tp1687
Rp1688
sg1
((dp1689
I0
I98
sI1
I1
sI2
tp1690
Rp1691
g5
(S'-4v3bhgr1coemkcn54uiv23ivvlk5iam'
p1692
tp1693
Rp1694
sg1
((dp1695
I0
I122
sI2
tp1696
Rp1697
g5
(S'58teqq4d13bltlu0dklic'
p1698
tp1699
Rp1700
sg1
((dp1701
I0
I38
sI1
I4
sI2
tp1702
Rp1703
g5
(S'6o1uds6n8efp5tle5mo'
p1704
tp1705
Rp1706
sg1
((dp1707
I0
I16
sI1
I3
sI2
tp1708
Rp1709
g5
(S'-33kqahou5lv6g275krp38mv50'
p1710
tp1711
Rp1712
sg1
((dp1713
I0
I43
sI1
I1
sI2
tp1714
Rp1715
g5
(S'4l9qe2i8vqlfp389ppmpjirp3fmlaiv686e6m02'
p1716
tp1717
Rp1718
sg1
((dp1719
I0
I4
sI1
I2
sI2
tp1720
Rp1721
g5
(S'-135q3eccvuthrbqpkmg2g000'
p1722
tp1723
Rp1724
sg1
((dp1725
I0
I19
sI1
I3
sI2
tp1726
Rp1727
g5
(S'-1ni7snkp3tlleu678sebo7ecjk'
p1728
tp1729
Rp1730
sg1
((dp1731
I0
I23
sI2
tp1732
Rp1733
g5
(S'-1jvr5t6p1edlvm13n815gj79b8rg9pquculamr0'
p1734
tp1735
Rp1736
sg1
((dp1737
I0
I7
sI1
I2
sI2
tp1738
Rp1739
g5
(S'1bbthtmtbl059j6j0h3plt000'
p1740
tp1741
Rp1742
sg1
((dp1743
I0
I120
sI1
I1
sI2
tp1744
Rp1745
g5
(S'1giacm6glgm58fugisu4'
p1746
tp1747
Rp1748
sg1
((dp1749
I0
I69
sI2
tp1750
Rp1751
g5
(S'3pu56k55kik9rkvb12324s20k75gr5aj9cjht4oqgui'
p1752
tp1753
Rp1754
sg1
((dp1755
I0
I75
sI1
I1
sI2
tp1756
Rp1757
g5
(S'sipqhci9pn8rr5bbmnkuqgdpt8uctg6semkc'
p1758
tp1759
Rp1760
sg1
((dp1761
I0
I60
sI1
I4
sI2
tp1762
Rp1763
g5
(S'2rurtme6ie'
p1764
tp1765
Rp1766
sg1
((dp1767
I0
I115
sI2
tp1768
Rp1769
g5
(S'kivpl1n1egd46qmsrim7if865sq'
p1770
tp1771
Rp1772
sg1
((dp1773
I0
I38
sI1
I3
sI2
tp1774
Rp1775
g5
(S'j31rhrqhmom4nj7cqj7f509o8l0'
p1776
tp1777
Rp1778
sg1
((dp1779
I0
I65
sI1
I1
sI2
tp1780
Rp1781
g5
(S'-f20dk6k4vt9fk4tq8319rpecq7lq5hepa3pjl2'
p1782
tp1783
Rp1784
sg1
((dp1785
I0
I26
sI1
I2
sI2
tp1786
Rp1787
g5
(S'b4ce40v2591rv2nj9i99r7vf3fr8dkv28'
p1788
tp1789
Rp1790
sg1
((dp1791
I0
I41
sI1
I3
sI2
tp1792
Rp1793
g5
(S'6shqtud50jqlkl28gf7a0s9r90s'
p1794
tp1795
Rp1796
sg1
((dp1797
I0
I29
sI1
I2
sI2
tp1798
Rp1799
g5
(S'20jn32s5mmqhpeiga827grco9gqa8qvqpo'
p1800
tp1801
Rp1802
sg1
((dp1803
I0
I14
sI1
I1
sI2
tp1804
Rp1805
g5
(S'2e1qhpmqd0gf2bkpmdbimcvosa4jb4b00'
p1806
tp1807
Rp1808
sg1
((dp1809
I0
I17
sI1
I5
sI2
tp1810
Rp1811
g5
(S'i7pq2omqsveg'
p1812
tp1813
Rp1814
sg1
((dp1815
I0
I16
sI2
tp1816
Rp1817
g5
(S'jip9iuh5c8fqj8jq96hvprr5s3li8om07ng0'
p1818
tp1819
Rp1820
sg1
((dp1821
I0
I62
sI2
tp1822
Rp1823
g5
(S'f3efjpbjdh5upsrc6bh8i6du5bkfpqqtqpesh8q2lik'
p1824
tp1825
Rp1826
sg1
((dp1827
I0
I60
sI1
I3
sI2
tp1828
Rp1829
g5
(S'8avclhuof0urroeh94t0hc4'
p1830
tp1831
Rp1832
sg1
((dp1833
I0
I87
sI1
I1
sI2
tp1834
Rp1835
g5
(S'-9nttb977tegf6npf2rt8bj2ddgksdpaipm'
p1836
tp1837
Rp1838
sg1
((dp1839
I0
I48
sI1
I2
sI2
tp1840
Rp1841
g5
(S'cc0f649chsqok4ultdofohmbmo96dgm25c'
p1842
tp1843
Rp1844
sg1
((dp1845
I0
I63
sI1
I3
sI2
tp1846
Rp1847
g5
(S'1dscvjutvt01aalteq3bnh4'
p1848
tp1849
Rp1850
sg1
((dp1851
I0
I108
sI2
tp1852
Rp1853
g5
(S's6kkh23pkbtgvul6njsee2nhq8picm4g'
p1854
tp1855
Rp1856
sg1
((dp1857
I0
I34
sI1
I3
sI2
tp1858
Rp1859
g5
(S'vruua8052q2c2tavrhdavjc6ik0'
p1860
tp1861
Rp1862
sg1
((dp1863
I0
I51
sI1
I2
sI2
tp1864
Rp1865
g5
(S'4qlf7adic6lve3ng25iva3lk4idg5djjdc'
p1866
tp1867
Rp1868
sg1
((dp1869
I0
I36
sI1
I1
sI2
tp1870
Rp1871
g5
(S'16anvulntsqup97qi0lfpg5pgnjmhp76nn76f8'
p1872
tp1873
Rp1874
sg1
((dp1875
I1
I6
sI2
tp1876
Rp1877
g5
(S'1o'
p1878
tp1879
Rp1880
sg1
((dp1881
I0
I27
sI1
I4
sI2
tp1882
Rp1883
g5
(S'27vbbaa5e6smjhg9cu9q'
p1884
tp1885
Rp1886
sg1
((dp1887
I0
I9
sI2
tp1888
Rp1889
g5
(S'7f1aj59ds1cs4hm6ov4cecdkfqmk2g0000'
p1890
tp1891
Rp1892
sg1
((dp1893
I0
I82
sI1
I3
sI2
tp1894
Rp1895
g5
(S'-4tk4b78rvfrkqatg'
p1896
tp1897
Rp1898
sg1
((dp1899
I0
I109
sI1
I1
sI2
tp1900
Rp1901
g5
(S'26303ekmdjlm1t4jqkf5miql7dc'
p1902
tp1903
Rp1904
sg1
((dp1905
I0
I70
sI1
I2
sI2
tp1906
Rp1907
g5
(S'3fl782ejk7qb0r9hfd2rm3k5k4s0m4'
p1908
tp1909
Rp1910
sg1
((dp1911
I0
I85
sI1
I3
sI2
tp1912
Rp1913
g5
(S'fp28tf47k3ql9t4'
p1914
tp1915
Rp1916
sg1
((dp1917
I0
I55
sI2
tp1918
Rp1919
g5
(S'hhounsaibo4qpobd9358j4kl7cioplu5g1p4d68er9a'
p1920
tp1921
Rp1922
sg1
((dp1923
I0
I73
sI1
I2
sI2
tp1924
Rp1925
g5
(S'-1bv9rc5q73n07ain0dsplrrq7hf6c'
p1926
tp1927
Rp1928
sg1
((dp1929
I0
I58
sI1
I1
sI2
tp1930
Rp1931
g5
(S'2a4j16fvoh7odn7io975fhr8rb49hd42ag904ji'
p1932
tp1933
Rp1934
sg1
((dp1935
I0
I101
sI2
tp1936
Rp1937
g5
(S'3klka5r2n3f9m8v33g1n47ik0fv20rf4pt08'
p1938
tp1939
Rp1940
sg1
((dp1941
I0
I49
sI1
I4
sI2
tp1942
Rp1943
g5
(S'lubics5a4pt82jr0'
p1944
tp1945
Rp1946
sg1
((dp1947
I0
I10
sI1
I5
sI2
tp1948
Rp1949
g5
(S'-f6bf3csnsole'
p1950
tp1951
Rp1952
sg1
((dp1953
I0
I3
sI1
I1
sI2
tp1954
Rp1955
g5
(S'2n0rhuq23tche9atn8l2l600000'
p1956
tp1957
Rp1958
sg1
((dp1959
I0
I92
sI1
I2
sI2
tp1960
Rp1961
g5
(S'-l0arn0rfvs1f549mivdbm8ug'
p1962
tp1963
Rp1964
sg1
((dp1965
I0
I95
sI1
I2
sI2
tp1966
Rp1967
g5
(S'1heq88kq9icnu9qamhhi8o48'
p1968
tp1969
Rp1970
sg1
((dp1971
I0
I80
sI1
I1
sI2
tp1972
Rp1973
g5
(S'2sp59jhev3t9ipa3ghn5ie66pnfdi40jmooq'
p1974
tp1975
Rp1976
sg1
((dp1977
I0
I48
sI2
tp1978
Rp1979
g5
(S'5kovq2st6uh54pna3t890nf3mabsshu30gr36c9ks94'
p1980
tp1981
Rp1982
sg1
((dp1983
I0
I94
sI2
tp1984
Rp1985
g5
(S'i1n6eg31nk6dggulfkrkuek77e9k6im4bmj414'
p1986
tp1987
Rp1988
sg1
((dp1989
I0
I20
sI1
I4
sI2
tp1990
Rp1991
g5
(S'5n9neifippt5dvr7jauq'
p1992
tp1993
Rp1994
sg1
((dp1995
I0
I8
sI2
tp1996
Rp1997
g5
(S'1d3i30ktglee1cgd2iiaegcqiqrpfk0000'
p1998
tp1999
Rp2000
sg1
((dp2001
I0
I25
sI1
I1
sI2
tp2002
Rp2003
g5
(S'-6sj53n53rq6epr08nkp6cnguqre1m3s54g8a'
p2004
tp2005
Rp2006
sg1
((dp2007
I0
I114
sI1
I2
sI2
tp2008
Rp2009
g5
(S'3ua8imsshiq9qarc'
p2010
tp2011
Rp2012
sg1
((dp2013
I0
I1
sI1
I3
sI2
tp2014
Rp2015
g5
(S'1a2qhm8n1n0ujna0000'
p2016
tp2017
Rp2018
sg1
((dp2019
I0
I117
sI1
I2
sI2
tp2020
Rp2021
g5
(S'-284fdsnqi1lves'
p2022
tp2023
Rp2024
sg1
((dp2025
I0
I102
sI1
I1
sI2
tp2026
Rp2027
g5
(S'1cisljnbfgf667tuf0lgl85t2c5mtm'
p2028
tp2029
Rp2030
sg1
((dp2031
I0
I110
sI2
tp2032
Rp2033
g5
(S'cj9notioi4hp3119dvn873f9vhltnl8'
p2034
tp2035
Rp2036
sg1
((dp2037
I0
I41
sI2
tp2038
Rp2039
g5
(S'eb76pl4ffv3krfbd5768m4djvspb7li6kpcmtuhj6k'
p2040
tp2041
Rp2042
sg1
((dp2043
I0
I42
sI1
I4
sI2
tp2044
Rp2045
g5
(S'hf2pa8447ftg9fdpsq'
p2046
tp2047
Rp2048
sg1
((dp2049
I0
I20
sI1
I3
sI2
tp2050
Rp2051
g5
(S'-1p02g8cefc8ao052p00mdlm77s'
p2052
tp2053
Rp2054
sg1
((dp2055
I0
I47
sI1
I1
sI2
tp2056
Rp2057
g5
(S'bgj71pmv563tot5mndd9bkhgua5ms8ppd3jud6a'
p2058
tp2059
Rp2060
sg1
((dp2061
I0
I8
sI1
I2
sI2
tp2062
Rp2063
g5
(S'-9o0i9v6b7eujp9lh4v0vdfjj00'
p2064
tp2065
Rp2066
sg1
((dp2067
I0
I23
sI1
I3
sI2
tp2068
Rp2069
g5
(S'ss2lrr4aigpq4erjsh537ah3d0'
p2070
tp2071
Rp2072
sg1
((dp2073
I0
I87
sI2
tp2074
Rp2075
g5
(S'a864qfhsh0g1530s3lbaq6se2o33s5trh2q8t79a'
p2076
tp2077
Rp2078
sg1
((dp2079
I0
I11
sI1
I2
sI2
tp2080
Rp2081
g5
(S'-6bo7kk6gpepv66dijtitf07vv00'
p2082
tp2083
Rp2084
sg1
((dp2085
I0
I124
sI1
I1
sI2
tp2086
Rp2087
g5
(S'q3mshpupnsar8'
p2088
tp2089
Rp2090
sg1
((dp2091
I0
I9
sI1
I3
sI2
tp2092
Rp2093
g5
(S'-72lqlgho33a07gk9jf7d80'
p2094
tp2095
Rp2096
sg1
((dp2097
I0
I42
sI1
I3
sI2
tp2098
Rp2099
g5
(S'4653kftedbe0f2fn3tn0s1sfh40'
p2100
tp2101
Rp2102
sg1
((dp2103
I0
I69
sI1
I1
sI2
tp2104
Rp2105
g5
(S'-33n0rdeb56gt5gabg719rue03jueff3679dm6u'
p2106
tp2107
Rp2108
sg1
((dp2109
I0
I34
sI2
tp2110
Rp2111
g5
(S'8jt9hrj5vk0o6hirc1496g1o3bq2734rd3bds985g'
p2112
tp2113
Rp2114
sg1
((dp2115
I0
I45
sI1
I3
sI2
tp2116
Rp2117
g5
(S'a3gub028suotan5uqg32fee9ak'
p2118
tp2119
Rp2120
sg1
((dp2121
I0
I33
sI1
I2
sI2
tp2122
Rp2123
g5
(S'a74nigsb6n8ig5rua3tk5c6rmq9drelksc'
p2124
tp2125
Rp2126
sg1
((dp2127
I0
I18
sI1
I1
sI2
tp2128
Rp2129
g5
(S'rnjt36nh2ofehf7bdl51jvlpids9oc4000'
p2130
tp2131
Rp2132
sg1
((dp2133
I0
I21
sI1
I5
sI2
tp2134
Rp2135
g5
(S'2b89nhqldpqi'
p2136
tp2137
Rp2138
sg1
((dp2139
I0
I80
sI2
tp2140
Rp2141
g5
(S'146bf6e93fftimq030p90ckncjiut3skpf02ljclju'
p2142
tp2143
Rp2144
sg1
((dp2145
I0
I126
sI2
tp2146
Rp2147
g5
(S'2hd245v1rdu'
p2148
tp2149
Rp2150
sg1
((dp2151
I0
I64
sI1
I3
sI2
tp2152
Rp2153
g5
(S'bfrc07asd0t6p5odhle6vg'
p2154
tp2155
Rp2156
sg1
((dp2157
I0
I91
sI1
I1
sI2
tp2158
Rp2159
g5
(S'4clukd0vjtso2a9td53giapga4tk50clm'
p2160
tp2161
Rp2162
sg1
((dp2163
I0
I52
sI1
I2
sI2
tp2164
Rp2165
g5
(S'39eo2ea2fuij4coaoqct4h62rnbejqqig8'
p2166
tp2167
Rp2168
sg1
((dp2169
I0
I67
sI1
I3
sI2
tp2170
Rp2171
g5
(S'-ab7uq2n5ajukerej9gtg4'
p2172
tp2173
Rp2174
sg1
((dp2175
I0
I55
sI1
I2
sI2
tp2176
Rp2177
g5
(S'r29mormndg6jq23laekvfccr8cl8aead0'
p2178
tp2179
Rp2180
sg1
((dp2181
I0
I40
sI1
I1
sI2
tp2182
Rp2183
g5
(S'1aqgjle55f1vkb3f48gbncksqtrk6hjh2gjdhds'
p2184
tp2185
Rp2186
sg1
((dp2187
I0
I31
sI1
I4
sI2
tp2188
Rp2189
g5
(S'3t9fuo87or58nrpaqfq8'
p2190
tp2191
Rp2192
sg1
((dp2193
I0
I27
sI2
tp2194
Rp2195
g5
(S'a9duf0aobrdl5b20mdkv02kljd98hqosmni5nu0'
p2196
tp2197
Rp2198
sg1
((dp2199
I0
I73
sI2
tp2200
Rp2201
g5
(S'vvri7brq4doqpamstcn7mnf8mdhrsa7aencut6a2p2'
p2202
tp2203
Rp2204
sg1
((dp2205
I0
I86
sI1
I3
sI2
tp2206
Rp2207
g5
(S'1dfargbkpc2gmh8'
p2208
tp2209
Rp2210
sg1
((dp2211
I0
I113
sI1
I1
sI2
tp2212
Rp2213
g5
(S'-2iu42dlh43b15ue501f0l7hc2'
p2214
tp2215
Rp2216
sg1
((dp2217
I0
I74
sI1
I2
sI2
tp2218
Rp2219
g5
(S'-9b738nfbnkd57a25i3jrstnjtm9g'
p2220
tp2221
Rp2222
sg1
((dp2223
I0
I89
sI1
I3
sI2
tp2224
Rp2225
g5
(S'3kh6bjbfac748'
p2226
tp2227
Rp2228
sg1
((dp2229
I0
I119
sI2
tp2230
Rp2231
g5
(S'7kprr2klomgmvsbb7v2gpag'
p2232
tp2233
Rp2234
sg1
((dp2235
I0
I77
sI1
I2
sI2
tp2236
Rp2237
g5
(S'9hn1jggu5a6c7vuut5m4grbbflr8'
p2238
tp2239
Rp2240
sg1
((dp2241
I0
I62
sI1
I1
sI2
tp2242
Rp2243
g5
(S'-g4dhn84u4sljai401jkt39r64k8117sg22bhme'
p2244
tp2245
Rp2246
sg1
((dp2247
I0
I53
sI1
I4
sI2
tp2248
Rp2249
g5
(S'15s2rtlk9s05ag6'
p2250
tp2251
Rp2252
sg1
((dp2253
I0
I14
sI1
I5
sI2
tp2254
Rp2255
g5
(S'-2fnbqqlaoq8lk'
p2256
tp2257
Rp2258
sg1
((dp2259
I0
I2
sI1
I4
sI2
tp2260
Rp2261
g5
(S'5fcf23rnd1r2gg0'
p2262
tp2263
Rp2264
sg1
((dp2265
I0
I20
sI2
tp2266
Rp2267
g5
(S'-3dgkks9pvbkvmk6a0p9skgv3f5jq1l5drdqc20'
p2268
tp2269
Rp2270
sg1
((dp2271
I0
I96
sI1
I1
sI2
tp2272
Rp2273
g5
(S'-i2qmr3r96jnnmb4s0m86dfcgra92ahc'
p2274
tp2275
Rp2276
sg1
((dp2277
I0
I66
sI2
tp2278
Rp2279
g5
(S'7vfl3gjrsj279u8ddms194h4vs0khm0aero82p7jdc0'
p2280
tp2281
Rp2282
sg1
((dp2283
I0
I99
sI1
I2
sI2
tp2284
Rp2285
g5
(S'694va98oeoj0ik9ntsioo0'
p2286
tp2287
Rp2288
sg1
((dp2289
I0
I84
sI1
I1
sI2
tp2290
Rp2291
g5
(S'-1k66a7jnj2c0k0t1206o84kvimk880snsla'
p2292
tp2293
Rp2294
sg1
((dp2295
I0
I112
sI2
tp2296
Rp2297
g5
(S'3868c8f9u8ffsi6r21833h14cf9j0a'
p2298
tp2299
Rp2300
sg1
((dp2301
I0
I5
sI1
I1
sI2
tp2302
Rp2303
g5
(S'2slucm5jro0erebo4bi2pgnkg0000'
p2304
tp2305
Rp2306
sg1
((dp2307
I0
I30
sI1
I2
sI2
tp2308
Rp2309
g5
(S'38964nhh75g7g0r9cpqgcreeorb33mrscc'
p2310
tp2311
Rp2312
sg1
((dp2313
I0
I24
sI1
I4
sI2
tp2314
Rp2315
g5
(S'7f49ejhijbbml3digi8c'
p2316
tp2317
Rp2318
sg1
((dp2319
I0
I2
sI1
I3
sI2
tp2320
Rp2321
g5
(S'3532gb453oddaoho000'
p2322
tp2323
Rp2324
sg1
((dp2325
I0
I29
sI1
I1
sI2
tp2326
Rp2327
g5
(S'-5s6113p83gvkp7i2tlnb3lr843111ug2ji4ti'
p2328
tp2329
Rp2330
sg1
((dp2331
I0
I118
sI1
I2
sI2
tp2332
Rp2333
g5
(S'3bi6e0h76ptko'
p2334
tp2335
Rp2336
sg1
((dp2337
I0
I13
sI2
tp2338
Rp2339
g5
(S'1s6ucreapfcpmpspnelsqd72fdo72lb78000'
p2340
tp2341
Rp2342
sg1
((dp2343
I0
I121
sI1
I2
sI2
tp2344
Rp2345
g5
(S'-2jog4mt1h0'
p2346
tp2347
Rp2348
sg1
((dp2349
I0
I106
sI1
I1
sI2
tp2350
Rp2351
g5
(S'-701klo16rlmte927of6m1q23vsaa'
p2352
tp2353
Rp2354
sg1
((dp2355
I0
I59
sI2
tp2356
Rp2357
g5
(S'io7ohv0ehecng88makh2bnm8ggikk6c0ktucpf1blk8'
p2358
tp2359
Rp2360
sg1
((dp2361
I0
I105
sI2
tp2362
Rp2363
g5
(S'79nimeu5qhoadgedcu6hdne7k7lf24s9le'
p2364
tp2365
Rp2366
sg1
((dp2367
I0
I46
sI1
I4
sI2
tp2368
Rp2369
g5
(S'ikpefun2skna1io4o'
p2370
tp2371
Rp2372
sg1
((dp2373
I0
I24
sI1
I3
sI2
tp2374
Rp2375
g5
(S'1qsr7i1qc3oqf2fca195ot1ecio'
p2376
tp2377
Rp2378
sg1
((dp2379
I0
I51
sI1
I1
sI2
tp2380
Rp2381
g5
(S'dmf62v9f254n5hbng0s2i31f1k2blhsua1ef1r4'
p2382
tp2383
Rp2384
sg1
((dp2385
I0
I12
sI1
I2
sI2
tp2386
Rp2387
g5
(S'2rjr1edb8otpp8c2is3782io16c0'
p2388
tp2389
Rp2390
sg1
((dp2391
I0
I27
sI1
I3
sI2
tp2392
Rp2393
g5
(S'7rasqj6n6baeoafjv4iappctlp8'
p2394
tp2395
Rp2396
sg1
((dp2397
I0
I1
sI2
tp2398
Rp2399
g5
(S'49cupf2i43fjfukst40gob0000000'
p2400
tp2401
Rp2402
sg1
((dp2403
I0
I15
sI1
I2
sI2
tp2404
Rp2405
g5
(S'216ur7kq4t3tu9sinm1v900kku1fi0'
p2406
tp2407
Rp2408
sg1
((dp2409
I0
I30
sI1
I1
sI2
tp2410
Rp2411
g5
(S'-ah6ifm7p35n6ienu1d2jdkbiv1u48rvqjr6do'
p2412
tp2413
Rp2414
sg1
((dp2415
I1
I1
sI2
tp2416
Rp2417
g5
(S'-9h0ifu976kps11hqefsg00000'
p2418
tp2419
Rp2420
sg1
((dp2421
I0
I3
sI1
I5
sI2
tp2422
Rp2423
g5
(S'5pfc6gljm0'
p2424
tp2425
Rp2426
sg1
((dp2427
I0
I6
sI2
tp2428
Rp2429
g5
(S'14ar1e5812gsr2kgr2um744bhcck00000'
p2430
tp2431
Rp2432
sg1
((dp2433
I0
I52
sI2
tp2434
Rp2435
g5
(S'cmo2lvkfmlu64thtd4j76npirnkfenqhstshgfj30h0'
p2436
tp2437
Rp2438
sg1
((dp2439
I0
I46
sI1
I3
sI2
tp2440
Rp2441
g5
(S'-1cdv34e0pl5nbouopo5d5kch6o'
p2442
tp2443
Rp2444
sg1
((dp2445
I0
I73
sI1
I1
sI2
tp2446
Rp2447
g5
(S'-3dcjcfsaqao2p7iqvubhfqq72rmjfrhhb5ar8'
p2448
tp2449
Rp2450
sg1
((dp2451
I0
I98
sI2
tp2452
Rp2453
g5
(S'61t32jp2gqupchrr7inn0b4vv58bq3uh194sg'
p2454
tp2455
Rp2456
sg1
((dp2457
I0
I49
sI1
I3
sI2
tp2458
Rp2459
g5
(S'-54bm1ttnv10jja1uib56bdc9uc'
p2460
tp2461
Rp2462
sg1
((dp2463
I0
I37
sI1
I2
sI2
tp2464
Rp2465
g5
(S'p4vn635la57nrurggsgdu58r4g5kbrg7ms'
p2466
tp2467
Rp2468
sg1
((dp2469
I0
I22
sI1
I1
sI2
tp2470
Rp2471
g5
(S'75njj6oie4ldevsqo636cldatic62jqrgrk'
p2472
tp2473
Rp2474
sg1
((dp2475
I0
I9
sI1
I4
sI2
tp2476
Rp2477
g5
(S'-7onvdq1hd3nbcrs3g'
p2478
tp2479
Rp2480
sg1
((dp2481
I0
I25
sI1
I5
sI2
tp2482
Rp2483
g5
(S'90hfehblfs'
p2484
tp2485
Rp2486
sg1
((dp2487
I0
I13
sI1
I4
sI2
tp2488
Rp2489
g5
(S'3lke69o0qhbk86fmie4'
p2490
tp2491
Rp2492
sg1
((dp2493
I0
I68
sI1
I3
sI2
tp2494
Rp2495
g5
(S'-4kcasedvj7b2333vem4gc'
p2496
tp2497
Rp2498
sg1
((dp2499
I0
I95
sI1
I1
sI2
tp2500
Rp2501
g5
(S'si5d38rq40016p99h0k1okkph6bqucq'
p2502
tp2503
Rp2504
sg1
((dp2505
I0
I56
sI1
I2
sI2
tp2506
Rp2507
g5
(S'g0m7191pfm6i4905bibr9avj97rmoltvg'
p2508
tp2509
Rp2510
sg1
((dp2511
I0
I45
sI2
tp2512
Rp2513
g5
(S'28urim669n78pt6s9o679upqummhelh1mjam714opk0'
p2514
tp2515
Rp2516
sg1
((dp2517
I0
I59
sI1
I2
sI2
tp2518
Rp2519
g5
(S'2lalo0414orehtjirvghargk6d9b2npko'
p2520
tp2521
Rp2522
sg1
((dp2523
I0
I44
sI1
I1
sI2
tp2524
Rp2525
g5
(S'69a6lnci3pf8i5i3mhng8h0ham38mh5cg5mvivk'
p2526
tp2527
Rp2528
sg1
((dp2529
I0
I35
sI1
I4
sI2
tp2530
Rp2531
g5
(S't7f898ih2thjb4dmegq'
p2532
tp2533
Rp2534
sg1
((dp2535
I0
I91
sI2
tp2536
Rp2537
g5
(S'aq9o47ua2dgs5iju12akk1embjr9r8bbnqrmv4s'
p2538
tp2539
Rp2540
sg1
((dp2541
I0
I90
sI1
I3
sI2
tp2542
Rp2543
g5
(S'7b1t5ofpoamc'
p2544
tp2545
Rp2546
sg1
((dp2547
I0
I117
sI1
I1
sI2
tp2548
Rp2549
g5
(S'ksp75pt1hje65qer54m4ci'
p2550
tp2551
Rp2552
sg1
((dp2553
I0
I78
sI1
I2
sI2
tp2554
Rp2555
g5
(S'4fp65ggobmmb5a5an5sh4vpacfes'
p2556
tp2557
Rp2558
sg1
((dp2559
I0
I93
sI1
I3
sI2
tp2560
Rp2561
g5
(S'2dlpfct4'
p2562
tp2563
Rp2564
sg1
((dp2565
I0
I81
sI1
I2
sI2
tp2566
Rp2567
g5
(S'-5lmpcq4s562trr0luuafsg59ak8'
p2568
tp2569
Rp2570
sg1
((dp2571
I0
I66
sI1
I1
sI2
tp2572
Rp2573
g5
(S'-bekbtnvdj2ie3d89h26tk4sf4m3dl5ujh2pfku'
p2574
tp2575
Rp2576
sg1
((dp2577
I0
I38
sI2
tp2578
Rp2579
g5
(S'337s4encabsbqif1olrb1p3n9blluk2ldo4161c174'
p2580
tp2581
Rp2582
sg1
((dp2583
I0
I5
sI1
I2
sI2
tp2584
Rp2585
g5
(S'3k59j0qvvapmm1lmnci3ro000'
p2586
tp2587
Rp2588
sg1
((dp2589
I0
I57
sI1
I4
sI2
tp2590
Rp2591
g5
(S'-18u53gk70d6o4'
p2592
tp2593
Rp2594
sg1
((dp2595
I0
I18
sI1
I5
sI2
tp2596
Rp2597
g5
(S'-lec90s59fj2o'
p2598
tp2599
Rp2600
sg1
((dp2601
I0
I6
sI1
I4
sI2
tp2602
Rp2603
g5
(S'-5rc5u198bckgijd0'
p2604
tp2605
Rp2606
sg1
((dp2607
I0
I84
sI2
tp2608
Rp2609
g5
(S'2t8ask4ecm3s004bp34itu5ps8jbno1ph5ihpvf98'
p2610
tp2611
Rp2612
sg1
((dp2613
I0
I11
sI1
I1
sI2
tp2614
Rp2615
g5
(S'-3q0g88e7irc5144q8cuapd54f7grl000'
p2616
tp2617
Rp2618
sg1
((dp2619
I0
I100
sI1
I2
sI2
tp2620
Rp2621
g5
(S'8qb21ncstocbakt3ijtjdc'
p2622
tp2623
Rp2624
sg1
((dp2625
I0
I103
sI1
I2
sI2
tp2626
Rp2627
g5
(S'-34s5hof74bidvenac964g'
p2628
tp2629
Rp2630
sg1
((dp2631
I0
I88
sI1
I1
sI2
tp2632
Rp2633
g5
(S'-35g7sk4pmqdm3r98b4cr7vsmmfvj3760b0'
p2634
tp2635
Rp2636
sg1
((dp2637
I0
I28
sI1
I4
sI2
tp2638
Rp2639
g5
(S'nn95h3qvnbirhphgmle'
p2640
tp2641
Rp2642
sg1
((dp2643
I0
I31
sI2
tp2644
Rp2645
g5
(S'uid66elkhah73mfuvnbu4alol77t62idh024e9ra'
p2646
tp2647
Rp2648
sg1
((dp2649
I0
I6
sI1
I3
sI2
tp2650
Rp2651
g5
(S'4mikchsduatuebgh6q300'
p2652
tp2653
Rp2654
sg1
((dp2655
I0
I33
sI1
I1
sI2
tp2656
Rp2657
g5
(S'-115dlmlbroc66is6duaajofb7gnlfcvf639br0'
p2658
tp2659
Rp2660
sg1
((dp2661
I0
I122
sI1
I2
sI2
tp2662
Rp2663
g5
(S'1f1a43epc'
p2664
tp2665
Rp2666
sg1
((dp2667
I0
I77
sI2
tp2668
Rp2669
g5
(S'5hvuidolt55mchgcbu0e0aen7ahhtphrd0pb57h448'
p2670
tp2671
Rp2672
sg1
((dp2673
I0
I125
sI1
I2
sI2
tp2674
Rp2675
g5
(S'-1c2sg'
p2676
tp2677
Rp2678
sg1
((dp2679
I0
I110
sI1
I1
sI2
tp2680
Rp2681
g5
(S'ej4vanjkqc1u5q7lk38vtfoi2a'
p2682
tp2683
Rp2684
sg1
((dp2685
I0
I123
sI2
tp2686
Rp2687
g5
(S'-p5l0hdfmfmof0kfoc5s'
p2688
tp2689
Rp2690
sg1
((dp2691
I0
I50
sI1
I4
sI2
tp2692
Rp2693
g5
(S'651qlh1v9b4s9lng'
p2694
tp2695
Rp2696
sg1
((dp2697
I0
I28
sI1
I3
sI2
tp2698
Rp2699
g5
(S'bif1jmlfcmqim2g3626a99bb5oc'
p2700
tp2701
Rp2702
sg1
((dp2703
I0
I55
sI1
I1
sI2
tp2704
Rp2705
g5
(S'7iibjm48q5m1dird9dq6af0fuuk8s2kg47c8li8'
p2706
tp2707
Rp2708
sg1
((dp2709
I0
I16
sI1
I2
sI2
tp2710
Rp2711
g5
(S'ad1nm6h405p2ee7ngl68f4v5d9p8k8'
p2712
tp2713
Rp2714
sg1
((dp2715
I0
I31
sI1
I3
sI2
tp2716
Rp2717
g5
(S'q0b80higtsg8ieimb9c8tsketng'
p2718
tp2719
Rp2720
sg1
((dp2721
I0
I19
sI1
I2
sI2
tp2722
Rp2723
g5
(S'j5clrrm40song7e3nr175etb13av0a0'
p2724
tp2725
Rp2726
sg1
((dp2727
I0
I24
sI2
tp2728
Rp2729
g5
(S'-2t16r0pu1pmtj2hksmmv37un3l4rlsqdgoeq2uo'
p2730
tp2731
Rp2732
sg1
((dp2733
I0
I4
sI1
I1
sI2
tp2734
Rp2735
g5
(S'89ehpblpp18r06gbe967840c0000'
p2736
tp2737
Rp2738
sg1
((dp2739
I0
I7
sI1
I5
sI2
tp2740
Rp2741
g5
(S'2b78mj70lmbs'
p2742
tp2743
Rp2744
sg1
((dp2745
I0
I70
sI2
tp2746
Rp2747
g5
(S'2qkng1blo5dnrt65tov5grb0i740n58lut4dkf7kalc'
p2748
tp2749
Rp2750
sg1
((dp2751
I0
I19
sI1
I1
sI2
tp2752
Rp2753
g5
(S'23pl36ps59cs0apd2u2ti69fdf3q0i654u0'
p2754
tp2755
Rp2756
sg1
((dp2757
I0
I116
sI2
tp2758
Rp2759
g5
(S'oaaarr3k3s0968qei7mgr567qc'
p2760
tp2761
Rp2762
sg1
((dp2763
I0
I50
sI1
I3
sI2
tp2764
Rp2765
g5
(S'-3jahjs0ed6qjv20iqia5c76ieo'
p2766
tp2767
Rp2768
sg1
((dp2769
I0
I77
sI1
I1
sI2
tp2770
Rp2771
g5
(S'lkajttk1dcbm7a989m9tu24k2kmos5i0j71i'
p2772
tp2773
Rp2774
sg1
((dp2775
I0
I38
sI1
I2
sI2
tp2776
Rp2777
g5
(S'sdgqllv1mgdqgmt96t54mduuhc049hqci0'
p2778
tp2779
Rp2780
sg1
((dp2781
I0
I53
sI1
I3
sI2
tp2782
Rp2783
g5
(S'-ljk47jjj7lelvdnesiiq259ns'
p2784
tp2785
Rp2786
sg1
((dp2787
I0
I41
sI1
I2
sI2
tp2788
Rp2789
g5
(S'10fvk0evjai291dv96i85bqn2tciut8r9do'
p2790
tp2791
Rp2792
sg1
((dp2793
I0
I26
sI1
I1
sI2
tp2794
Rp2795
g5
(S'-j012fg7q3chkro0q6dmba25tso3b9368ed96'
p2796
tp2797
Rp2798
sg1
((dp2799
I0
I29
sI1
I5
sI2
tp2800
Rp2801
g5
(S'6lbmu5g'
p2802
tp2803
Rp2804
sg1
((dp2805
I0
I17
sI2
tp2806
Rp2807
g5
(S'-6mn9e2fvg6d1nb8fvuqikn9u2brc80fuau00'
p2808
tp2809
Rp2810
sg1
((dp2811
I0
I17
sI1
I4
sI2
tp2812
Rp2813
g5
(S'-m1a93v5m7hsa6u409di'
p2814
tp2815
Rp2816
sg1
((dp2817
I0
I63
sI2
tp2818
Rp2819
g5
(S'dbrs6h59u94fhjmgu2encpvorit6vvs3gtrkq2ubhk0'
p2820
tp2821
Rp2822
sg1
((dp2823
I0
I72
sI1
I3
sI2
tp2824
Rp2825
g5
(S'4ma8avpgqave16uoi1c'
p2826
tp2827
Rp2828
sg1
((dp2829
I0
I99
sI1
I1
sI2
tp2830
Rp2831
g5
(S'-12d4o8uefrvk22st5l8ueitgu3sph6m'
p2832
tp2833
Rp2834
sg1
((dp2835
I0
I60
sI1
I2
sI2
tp2836
Rp2837
g5
(S'1bhlscsdc50vd0td4ik4istb92a11cf1c'
p2838
tp2839
Rp2840
sg1
((dp2841
I0
I109
sI2
tp2842
Rp2843
g5
(S'3hf8m6fpc9qjaal51a89v92vnei6hj48'
p2844
tp2845
Rp2846
sg1
((dp2847
I0
I63
sI1
I2
sI2
tp2848
Rp2849
g5
(S'4ifc80kq9k5v32u6ltpn57hd5u7f6pc4'
p2850
tp2851
Rp2852
sg1
((dp2853
I0
I48
sI1
I1
sI2
tp2854
Rp2855
g5
(S'cri6or54gorggk7lf1690b1fuq4d76ho1939tag'
p2856
tp2857
Rp2858
sg1
((dp2859
I0
I39
sI1
I4
sI2
tp2860
Rp2861
g5
(S'3tfu30equm4idt6faqg'
p2862
tp2863
Rp2864
sg1
((dp2865
I1
I5
sI2
tp2866
Rp2867
g5
(S'24qjb9q0'
p2868
tp2869
Rp2870
sg1
((dp2871
I0
I10
sI2
tp2872
Rp2873
g5
(S'13gv8pbma27b906sdb7n883e8aloif00000'
p2874
tp2875
Rp2876
sg1
((dp2877
I0
I94
sI1
I3
sI2
tp2878
Rp2879
g5
(S'1g21eo'
p2880
tp2881
Rp2882
sg1
((dp2883
I0
I121
sI1
I1
sI2
tp2884
Rp2885
g5
(S'lle2u12ugp0f4tb14e'
p2886
tp2887
Rp2888
sg1
((dp2889
I0
I82
sI1
I2
sI2
tp2890
Rp2891
g5
(S'-51nq86jqucn02t6j0pg212kdag8'
p2892
tp2893
Rp2894
sg1
((dp2895
I0
I85
sI1
I2
sI2
tp2896
Rp2897
g5
(S'-1186fh1ci61lueshpsg5tq6a88'
p2898
tp2899
Rp2900
sg1
((dp2901
I0
I56
sI2
tp2902
Rp2903
g5
(S'ihj1oac00u0v6crslk6od76lfvaqvsst9q7nka3e4c2'
p2904
tp2905
Rp2906
sg1
((dp2907
I0
I70
sI1
I1
sI2
tp2908
Rp2909
g5
(S'-1mj77lgbhmv938mtnq642r1jk58eeebgb0kfeg'
p2910
tp2911
Rp2912
sg1
((dp2913
I0
I102
sI2
tp2914
Rp2915
g5
(S'rchjouqtfil6ov89oh2t8ppuelo3epbgru8'
p2916
tp2917
Rp2918
sg1
((dp2919
I0
I61
sI1
I4
sI2
tp2920
Rp2921
g5
(S'-n5b4ic0s'
p2922
tp2923
Rp2924
sg1
((dp2925
I0
I22
sI1
I5
sI2
tp2926
Rp2927
g5
(S'-6h5njf6g88e'
p2928
tp2929
Rp2930
sg1
((dp2931
I0
I10
sI1
I4
sI2
tp2932
Rp2933
g5
(S'-3poaq4i64irns11gno'
p2934
tp2935
Rp2936
sg1
((dp2937
I0
I15
sI1
I1
sI2
tp2938
Rp2939
g5
(S'jes7p2ni1cunr4j10m9asgaedcqfps500'
p2940
tp2941
Rp2942
sg1
((dp2943
I0
I104
sI1
I2
sI2
tp2944
Rp2945
g5
(S'1idvngi9k0iq5jbl2npfo'
p2946
tp2947
Rp2948
sg1
((dp2949
I0
I107
sI1
I2
sI2
tp2950
Rp2951
g5
(S'-61v624g26nna8le6a8s'
p2952
tp2953
Rp2954
sg1
((dp2955
I0
I92
sI1
I1
sI2
tp2956
Rp2957
g5
(S'2it3stlu09p6aqtfrfe5mnn5pelr0u3nk'
p2958
tp2959
Rp2960
sg1
((dp2961
I0
I49
sI2
tp2962
Rp2963
g5
(S'76sanbd2kamifj3a8v4jap1irik2vda67tqc28c2482'
p2964
tp2965
Rp2966
sg1
((dp2967
I0
I32
sI1
I4
sI2
tp2968
Rp2969
g5
(S'28r81v0aq8895mpgt4hc'
p2970
tp2971
Rp2972
sg1
((dp2973
I0
I30
sI1
I4
sI2
tp2974
Rp2975
g5
(S'5057bo0174ofcs01qcgq'
p2976
tp2977
Rp2978
sg1
((dp2979
I0
I95
sI2
tp2980
Rp2981
g5
(S'66dovv5sem7d79c9r66m6uja659gpldcbqu35m'
p2982
tp2983
Rp2984
sg1
((dp2985
I0
I10
sI1
I3
sI2
tp2986
Rp2987
g5
(S'-243dv60dd32g6gbp1tf1e80'
p2988
tp2989
Rp2990
sg1
((dp2991
I0
I37
sI1
I1
sI2
tp2992
Rp2993
g5
(S'50jgsag2rsessremjniudjdrmr5li2gi2q1s68'
p2994
tp2995
Rp2996
sg1
((dp2997
I0
I126
sI1
I2
sI2
tp2998
Rp2999
g5
(S'5ug'
p3000
tp3001
Rp3002
sg1
((dp3003
I0
I13
sI1
I3
sI2
tp3004
Rp3005
g5
(S'-1q5sg1013tbcsghj46fejpf0'
p3006
tp3007
Rp3008
sg1
((dp3009
I0
I1
sI1
I2
sI2
tp3010
Rp3011
g5
(S'sg5986rbmt763qnr700000'
p3012
tp3013
Rp3014
sg1
((dp3015
I0
I114
sI1
I1
sI2
tp3016
Rp3017
g5
(S'-7qb3hse2ercb0pvcbdrh0t08'
p3018
tp3019
Rp3020
sg1
((dp3021
I0
I54
sI1
I4
sI2
tp3022
Rp3023
g5
(S'gseuak7bit7mjq'
p3024
tp3025
Rp3026
sg1
((dp3027
I0
I42
sI2
tp3028
Rp3029
g5
(S'mhc5simmrcs0d46ee1vpm9t3n6lc17mjct06vvjige'
p3030
tp3031
Rp3032
sg1
((dp3033
I0
I32
sI1
I3
sI2
tp3034
Rp3035
g5
(S'tk60e6jjdbpa6ihvobfh8qsgafg'
p3036
tp3037
Rp3038
sg1
((dp3039
I0
I59
sI1
I1
sI2
tp3040
Rp3041
g5
(S'14a6s6t8oj318hu5mlb8c8dnfii0sjbjs4bil0m'
p3042
tp3043
Rp3044
sg1
((dp3045
I0
I20
sI1
I2
sI2
tp3046
Rp3047
g5
(S'1sddlsfembhrjm1n4edbgnndjv8eeft8'
p3048
tp3049
Rp3050
sg1
((dp3051
I0
I35
sI1
I3
sI2
tp3052
Rp3053
g5
(S'ud4g81cskpq1pm9ld8g9e662khc'
p3054
tp3055
Rp3056
sg1
((dp3057
I0
I23
sI1
I2
sI2
tp3058
Rp3059
g5
(S'13occ1n1g06ps0n73n471gk2jkgrm03j8'
p3060
tp3061
Rp3062
sg1
((dp3063
I0
I88
sI2
tp3064
Rp3065
g5
(S'4jbm796s0stnuoljs5socoisckr9if13hvalm0rc'
p3066
tp3067
Rp3068
sg1
((dp3069
I0
I8
sI1
I1
sI2
tp3070
Rp3071
g5
(S'-eu6fq19gtn8s3hihvjsuog8lslg000'
p3072
tp3073
Rp3074
sg1
((dp3075
I0
I11
sI1
I5
sI2
tp3076
Rp3077
g5
(S'vnkdf3k08m0u'
p3078
tp3079
Rp3080
sg1
((dp3081
I0
I75
sI1
I3
sI2
tp3082
Rp3083
g5
(S'-14lce8ac8djpa83o4c0'
p3084
tp3085
Rp3086
sg1
((dp3087
I0
I54
sI1
I3
sI2
tp3088
Rp3089
g5
(S'-aasaehnskg667po1h0c4ugm0c'
p3090
tp3091
Rp3092
sg1
((dp3093
I0
I81
sI1
I1
sI2
tp3094
Rp3095
g5
(S'11mq4evah2688n22enjhudn0q38vkik7pjvo'
p3096
tp3097
Rp3098
sg1
((dp3099
I0
I42
sI1
I2
sI2
tp3100
Rp3101
g5
(S'vgt2ht845q7885hvjjtu4ctm6emd41vlbc'
p3102
tp3103
Rp3104
sg1
((dp3105
I0
I57
sI1
I3
sI2
tp3106
Rp3107
g5
(S'-hv70la2ihl0bg7ld9rrdi44o'
p3108
tp3109
Rp3110
sg1
((dp3111
I0
I45
sI1
I2
sI2
tp3112
Rp3113
g5
(S'n55q91aomom3q10618bve0g865ilmupq7c'
p3114
tp3115
Rp3116
sg1
((dp3117
I0
I35
sI2
tp3118
Rp3119
g5
(S'gj19hasou3ct09v4vghs8tf8271491e9vodtgbqke'
p3120
tp3121
Rp3122
sg1
((dp3123
I0
I81
sI2
tp3124
Rp3125
g5
(S'k4danjk86oq1q83gar40ia8tb3srvamhkdqh4f3oq'
p3126
tp3127
Rp3128
sg1
((dp3129
I0
I21
sI1
I4
sI2
tp3130
Rp3131
g5
(S'jdf61ts68c74h0ehvj2'
p3132
tp3133
Rp3134
sg1
((dp3135
I0
I127
sI2
tp3136
Rp3137
g5
(S'-4qg7k'
p3138
tp3139
Rp3140
sg1
((dp3141
I0
I76
sI1
I3
sI2
tp3142
Rp3143
g5
(S'-5av0fncdsa0ntul8so'
p3144
tp3145
Rp3146
sg1
((dp3147
I0
I103
sI1
I1
sI2
tp3148
Rp3149
g5
(S'9p7dnpguaia9da9iqbhirb77utptc'
p3150
tp3151
Rp3152
sg1
((dp3153
I0
I64
sI1
I2
sI2
tp3154
Rp3155
g5
(S'1vkjmhbv8mk1deat98bp4866p38psk6c'
p3156
tp3157
Rp3158
sg1
((dp3159
I0
I79
sI1
I3
sI2
tp3160
Rp3161
g5
(S'82e84v1fclt8h698o'
p3162
tp3163
Rp3164
sg1
((dp3165
I0
I67
sI1
I2
sI2
tp3166
Rp3167
g5
(S'3s2mldl6la82h38hc7b22ht3r8pdfs8'
p3168
tp3169
Rp3170
sg1
((dp3171
I0
I52
sI1
I1
sI2
tp3172
Rp3173
g5
(S'cokqm3a8h4p9j81asi1fctgj2l2oknq7ilq8ir0'
p3174
tp3175
Rp3176
sg1
((dp3177
I0
I43
sI1
I4
sI2
tp3178
Rp3179
g5
(S'85e163883em1hb9g64'
p3180
tp3181
Rp3182
sg1
((dp3183
I0
I28
sI2
tp3184
Rp3185
g5
(S'1j779k3950nqls55im8cbld3qmjtirfi4rkk69fk'
p3186
tp3187
Rp3188
sg1
((dp3189
I0
I4
sI1
I5
sI2
tp3190
Rp3191
g5
(S'9qfano8488'
p3192
tp3193
Rp3194
sg1
((dp3195
I0
I74
sI2
tp3196
Rp3197
g5
(S'lfghjh2up7ij5936q7ufbcslr6j10cvfqjmqu46ngg'
p3198
tp3199
Rp3200
sg1
((dp3201
I0
I125
sI1
I1
sI2
tp3202
Rp3203
g5
(S'ac1oeeph1ls'
p3204
tp3205
Rp3206
sg1
((dp3207
I0
I86
sI1
I2
sI2
tp3208
Rp3209
g5
(S'3dfhju2l6pjd8nvbi9c3ihl6po'
p3210
tp3211
Rp3212
sg1
((dp3213
I0
I89
sI1
I2
sI2
tp3214
Rp3215
g5
(S'3csnn29uhclou112fin49uht0'
p3216
tp3217
Rp3218
sg1
((dp3219
I0
I120
sI2
tp3220
Rp3221
g5
(S'-2la95mlha4uttfcm7ar2jje'
p3222
tp3223
Rp3224
sg1
((dp3225
I0
I74
sI1
I1
sI2
tp3226
Rp3227
g5
(S'-406nd64g4bgjkg3fpuuns7gp22j9ao95pv7o'
p3228
tp3229
Rp3230
sg1
((dp3231
I0
I26
sI1
I5
sI2
tp3232
Rp3233
g5
(S'1vh77mrdu'
p3234
tp3235
Rp3236
sg1
((dp3237
I0
I14
sI1
I4
sI2
tp3238
Rp3239
g5
(S'6mso8a2ard7jtv1h252'
p3240
tp3241
Rp3242
sg1
((dp3243
I0
I21
sI2
tp3244
Rp3245
g5
(S'-9rupq3mquion4eenb2n0m9e7cjv2b002qs9ks0'
p3246
tp3247
Rp3248
sg1
((dp3249
I0
I34
sI1
I1
sI2
tp3250
Rp3251
g5
(S'-1216e4mtu4p0beao18qru8i33vf5r61m5l123g'
p3252
tp3253
Rp3254
sg1
((dp3255
I0
I108
sI1
I2
sI2
tp3256
Rp3257
g5
(S'4tf8nbhs90h5lg2t3ro'
p3258
tp3259
Rp3260
sg1
((dp3261
I0
I111
sI1
I2
sI2
tp3262
Rp3263
g5
(S'sbi46e7p2f5cjgj5g'
p3264
tp3265
Rp3266
sg1
((dp3267
I0
I67
sI2
tp3268
Rp3269
g5
(S'6cmiabn5pb6f4tb8q9pa1o0v25j1l3s3dpgpn46t9te'
p3270
tp3271
Rp3272
sg1
((dp3273
I0
I113
sI2
tp3274
Rp3275
g5
(S'7aqghrk36ho3ugso86518ktog8kgg'
p3276
tp3277
Rp3278
sg1
((dp3279
I0
I43
sI2
tp3280
Rp3281
g5
(S'12bkl6scqml2nabsdoor5nul484gnk6963cek700f0s'
p3282
tp3283
Rp3284
sg1
((dp3285
I0
I96
sI1
I2
sI2
tp3286
Rp3287
g5
(S'4ls8kqcvip5vohvblgk041c'
p3288
tp3289
Rp3290
sg1
((dp3291
I0
I36
sI1
I4
sI2
tp3292
Rp3293
g5
(S'iu675b0fretvqmsg2tg'
p3294
tp3295
Rp3296
sg1
((dp3297
I0
I14
sI1
I3
sI2
tp3298
Rp3299
g5
(S'-3oe32r2t8n6etdrsrmmtl2t8'
p3300
tp3301
Rp3302
sg1
((dp3303
I0
I41
sI1
I1
sI2
tp3304
Rp3305
g5
(S'25cpki9aj2i7fn3vtpognockq48jv0h0gg4k41s'
p3306
tp3307
Rp3308
sg1
((dp3309
I0
I2
sI1
I2
sI2
tp3310
Rp3311
g5
(S'-cgeichts81urv1frso40000'
p3312
tp3313
Rp3314
sg1
((dp3315
I0
I17
sI1
I3
sI2
tp3316
Rp3317
g5
(S'-bh6t8j649c0oeejg08rgkf3hc'
p3318
tp3319
Rp3320
sg1
((dp3321
I0
I14
sI2
tp3322
Rp3323
g5
(S'5d3pt1d8lveqtgv2iv3s0g1u9crn7vsq0000'
p3324
tp3325
Rp3326
sg1
((dp3327
I0
I118
sI1
I1
sI2
tp3328
Rp3329
g5
(S'1ehisaksremvvtvhila61i'
p3330
tp3331
Rp3332
sg1
((dp3333
I0
I60
sI2
tp3334
Rp3335
g5
(S'hsl9a526otorthetp10jom60uthfm0p6804cva7ans4'
p3336
tp3337
Rp3338
sg1
((dp3339
I0
I58
sI1
I4
sI2
tp3340
Rp3341
g5
(S'37gteji8e9gu'
p3342
tp3343
Rp3344
sg1
((dp3345
I0
I106
sI2
tp3346
Rp3347
g5
(S'183rbfier5c1o00t9h94saqvpegn9vj66u'
p3348
tp3349
Rp3350
sg1
((dp3351
I0
I36
sI1
I3
sI2
tp3352
Rp3353
g5
(S'rggdfdjekcet89iv6qd0tihc7oc'
p3354
tp3355
Rp3356
sg1
((dp3357
I0
I63
sI1
I1
sI2
tp3358
Rp3359
g5
(S'-iurkcg9qs5ggf4pp8jgl00h3qn7sb78fad289i'
p3360
tp3361
Rp3362
sg1
((dp3363
I0
I24
sI1
I2
sI2
tp3364
Rp3365
g5
(S'2i5f3i30vfhdnf7anbdmrkp4gqr49h2r8'
p3366
tp3367
Rp3368
sg1
((dp3369
I0
I39
sI1
I3
sI2
tp3370
Rp3371
g5
(S'ehn7epceov6esdaptspffif4s50'
p3372
tp3373
Rp3374
sg1
((dp3375
I0
I30
sI1
I3
sI2
tp3376
Rp3377
g5
(S'l941umhdgr2recm9nbesdbgpvi4'
p3378
tp3379
Rp3380
sg1
((dp3381
I0
I27
sI1
I2
sI2
tp3382
Rp3383
g5
(S'l5bp05en9m7nggt87afnl78s8q6l5unas'
p3384
tp3385
Rp3386
sg1
((dp3387
I0
I12
sI1
I1
sI2
tp3388
Rp3389
g5
(S'-aioeo02p4mm3h72v45d16pc7g4m0ge00'
p3390
tp3391
Rp3392
sg1
((dp3393
I0
I15
sI1
I5
sI2
tp3394
Rp3395
g5
(S'-19d4bik9290s'
p3396
tp3397
Rp3398
sg1
((dp3399
I0
I3
sI1
I4
sI2
tp3400
Rp3401
g5
(S'-qmk2getligh2cg0'
p3402
tp3403
Rp3404
sg1
((dp3405
I0
I7
sI2
tp3406
Rp3407
g5
(S'7jh9cgs0qe038kton8rml0srjl0k00000'
p3408
tp3409
Rp3410
sg1
((dp3411
I0
I53
sI2
tp3412
Rp3413
g5
(S'eh5iobcnqcprbv0h9vhiohn2jbdf1du86nbegk5595s'
p3414
tp3415
Rp3416
sg1
((dp3417
I0
I58
sI1
I3
sI2
tp3418
Rp3419
g5
(S'-4mga2cphuuj4ljecghegque0'
p3420
tp3421
Rp3422
sg1
((dp3423
I0
I85
sI1
I1
sI2
tp3424
Rp3425
g5
(S'-1abd7kln5pdjc8bvsjmvnjocjc7mqplef1q'
p3426
tp3427
Rp3428
sg1
((dp3429
I0
I46
sI1
I2
sI2
tp3430
Rp3431
g5
(S'jerkpk10963igu5qgadcicubvs5fc0e5g0'
p3432
tp3433
Rp3434
sg1
((dp3435
I0
I61
sI1
I3
sI2
tp3436
Rp3437
g5
(S'8q2plrf5drlfhdcr1dnq18g'
p3438
tp3439
Rp3440
sg1
((dp3441
I0
I49
sI1
I2
sI2
tp3442
Rp3443
g5
(S'9bmhre87mgnd0v3kah01kcqq57lgm0n3dg'
p3444
tp3445
Rp3446
sg1
((dp3447
I0
I99
sI2
tp3448
Rp3449
g5
(S'1ml27g4g7dohkqpo6ijlh3511qs9crj7cau74'
p3450
tp3451
Rp3452
sg1
((dp3453
I0
I25
sI1
I4
sI2
tp3454
Rp3455
g5
(S'cv9mg0cdpopucmoicnqe'
p3456
tp3457
Rp3458
sg1
((dp3459
I0
I7
sI1
I1
sI2
tp3460
Rp3461
g5
(S'iqr8nla9femv52flgp6gam4710000'
p3462
tp3463
Rp3464
s.