(dp0
csage.rings.polynomial.polydict
make_ETuple
p1
((dp2
I0
I80
sI1
I3
sI2
tp3
Rp4
csage.rings.integer
make_integer
p5
(S'1jjhbbvs8t7ggd7p18pijrm9hs0ika6qvokt97lp'
p6
tp7
Rp8
sg1
((dp9
I2
tp10
Rp11
g5
(S'-86tobq6ar8fj0rlqmuj6suretg0000000000'
p12
tp13
Rp14
sg1
((dp15
I0
I107
sI1
I1
sI2
tp16
Rp17
g5
(S'23dsbah370ti6lpmc700sd08ntvfhhvjo7mp74lv1ucltg'
p18
tp19
Rp20
sg1
((dp21
I0
I68
sI1
I2
sI2
tp22
Rp23
g5
(S'-23g6njbvc4eqb4lk8rj9hukgs9jdetqgeut3hmvcpf53ekd8h'
p24
tp25
Rp26
sg1
((dp27
I0
I83
sI1
I3
sI2
tp28
Rp29
g5
(S'-1ekccl4e76lssa88trcahtm9mk6vvf7qmpivruv0'
p30
tp31
Rp32
sg1
((dp33
I0
I16
sI1
I3
sI2
tp34
Rp35
g5
(S'15am19ccj8gu7vjm5u4po97tfuk1uk1ng'
p36
tp37
Rp38
sg1
((dp39
I0
I71
sI1
I2
sI2
tp40
Rp41
g5
(S'1b6afpalhotunfs7gq796fe85suli7r9d3h974hq0mqqkmu38'
p42
tp43
Rp44
sg1
((dp45
I0
I56
sI1
I1
sI2
tp46
Rp47
g5
(S'36u0m1hkqcaqbhqsustl5emi3fcrj3u2drkgd8oc3t8cugdchic'
p48
tp49
Rp50
sg1
((dp51
I0
I47
sI1
I4
sI2
tp52
Rp53
g5
(S'-bldfma5rvmvvjqpfia0t5a3g6940'
p54
tp55
Rp56
sg1
((dp57
I0
I43
sI1
I1
sI2
tp58
Rp59
g5
(S'-22e2t8npjelb9atu0b3alra35hbs42ai68ja77462id7kt35o0'
p60
tp61
Rp62
sg1
((dp63
I0
I92
sI2
tp64
Rp65
g5
(S'-24quuhj9ld5eca52614r4410g101aef476onkkcna2olde753s0'
p66
tp67
Rp68
sg1
((dp69
I0
I8
sI1
I5
sI2
tp70
Rp71
g5
(S'-k4kj6k3n3du3i'
p72
tp73
Rp74
sg1
((dp75
I0
I4
sI1
I2
sI2
tp76
Rp77
g5
(S'-1v1v4bk3sl726jai1ikicm90hl3u3k0000'
p78
tp79
Rp80
sg1
((dp81
I0
I9
sI1
I5
sI2
tp82
Rp83
g5
(S'qe611usl67gbi'
p84
tp85
Rp86
sg1
((dp87
I0
I138
sI2
tp88
Rp89
g5
(S'-3shbgs80hndb1gmglgpojtc0p3p1ios84ej1q0'
p90
tp91
Rp92
sg1
((dp93
I0
I19
sI1
I3
sI2
tp94
Rp95
g5
(S'-3m0cpq2ofeqcca6kn4i7173qaooto68'
p96
tp97
Rp98
sg1
((dp99
I0
I102
sI1
I3
sI2
tp100
Rp101
g5
(S'-8cvuij6gvcb9d4bb4odvmfq9dmmjbco4iklhpg'
p102
tp103
Rp104
sg1
((dp105
I0
I129
sI1
I1
sI2
tp106
Rp107
g5
(S'evl3d4f7adv3niaese0u21vc2d1vnl9on6dod2'
p108
tp109
Rp110
sg1
((dp111
I0
I90
sI1
I2
sI2
tp112
Rp113
g5
(S'-14qjc5ebh0v322vo6aerbgmfamk4956t9sniu5jbf7mk3jh'
p114
tp115
Rp116
sg1
((dp117
I0
I105
sI1
I3
sI2
tp118
Rp119
g5
(S'1e6o17u7kvadunkbr6ssomojo8scrr0mq2in24'
p120
tp121
Rp122
sg1
((dp123
I0
I93
sI1
I2
sI2
tp124
Rp125
g5
(S'62elcjhqg7vnk9h57snec50eebrhnqerg68s7s8s26053q'
p126
tp127
Rp128
sg1
((dp129
I0
I78
sI1
I1
sI2
tp130
Rp131
g5
(S'aaeojc0dqu7glkiretqgnso5b0n6ms4fhlv640i2h9mndve80b'
p132
tp133
Rp134
sg1
((dp135
I0
I46
sI2
tp136
Rp137
g5
(S'-67jivk1dandtiujgh1em4kok4lutise62sal7v99b9o8bceode0g'
p138
tp139
Rp140
sg1
((dp141
I0
I69
sI1
I4
sI2
tp142
Rp143
g5
(S'6lh29bdu6n7pbtrhqq5d5v11f8q'
p144
tp145
Rp146
sg1
((dp147
I0
I39
sI2
tp148
Rp149
g5
(S'gfuofc10s813tat3r70ot028cti0jr44q6cv68laavbl7tn0600'
p150
tp151
Rp152
sg1
((dp153
I0
I26
sI1
I1
sI2
tp154
Rp155
g5
(S'-jucfj2mr1hj9q94etdsht9lm65fq80qc6j5rbm0ck5rq00'
p156
tp157
Rp158
sg1
((dp159
I0
I18
sI1
I4
sI2
tp160
Rp161
g5
(S'-1t4qh1pn2trrjj2nc3tboofi8'
p162
tp163
Rp164
sg1
((dp165
I0
I85
sI2
tp166
Rp167
g5
(S'13madvk5v6i2frur9agn8c087p6ss7o9pb871kpk165e97msjnb8'
p168
tp169
Rp170
sg1
((dp171
I0
I124
sI1
I3
sI2
tp172
Rp173
g5
(S'-18106l5jg6t6dri40hs4nebl3412agmg5'
p174
tp175
Rp176
sg1
((dp177
I0
I151
sI1
I1
sI2
tp178
Rp179
g5
(S'cvt9kqnhpbni3kv9qj5pinfsgi8'
p180
tp181
Rp182
sg1
((dp183
I0
I112
sI1
I2
sI2
tp184
Rp185
g5
(S'-jurr7k9kbu09gt6eb8s4u038rli4kskh3p6ct96pj'
p186
tp187
Rp188
sg1
((dp189
I0
I127
sI1
I3
sI2
tp190
Rp191
g5
(S'rpksk3su1jvullhnrqme79qpbj0vps0'
p192
tp193
Rp194
sg1
((dp195
I0
I2
sI1
I3
sI2
tp196
Rp197
g5
(S'h69p58pggusk93qki0hkog000'
p198
tp199
Rp200
sg1
((dp201
I0
I115
sI1
I2
sI2
tp202
Rp203
g5
(S'ltjj7svhgfmkulv94i9isqbkc033dvl9am3bfaoo'
p204
tp205
Rp206
sg1
((dp207
I0
I131
sI2
tp208
Rp209
g5
(S'4mejeqmbodesqb6ukiimuogq54fdil3bdn3nrr46g'
p210
tp211
Rp212
sg1
((dp213
I0
I91
sI1
I4
sI2
tp214
Rp215
g5
(S'2jkq167a14vkb2mcjqsqs'
p216
tp217
Rp218
sg1
((dp219
I0
I29
sI1
I1
sI2
tp220
Rp221
g5
(S'3g1rffn8lg52dq8viri6ct99kjnr19554jmlsrta01ur3o0'
p222
tp223
Rp224
sg1
((dp225
I0
I7
sI1
I2
sI2
tp226
Rp227
g5
(S'3k2oes1pv1amsseggivlfmh64c4d20v7g000'
p228
tp229
Rp230
sg1
((dp231
I0
I52
sI1
I5
sI2
tp232
Rp233
g5
(S'-51pkns21'
p234
tp235
Rp236
sg1
((dp237
I0
I40
sI1
I4
sI2
tp238
Rp239
g5
(S'-48v2o1s48na324f2best5n8b51um'
p240
tp241
Rp242
sg1
((dp243
I0
I13
sI2
tp244
Rp245
g5
(S'33qggnnq1074i66t3dmk6jdnap5n6579f74qoj0000000'
p246
tp247
Rp248
sg1
((dp249
I0
I146
sI1
I3
sI2
tp250
Rp251
g5
(S'-2t260unau77mbkrrjv0nkq'
p252
tp253
Rp254
sg1
((dp255
I0
I32
sI2
tp256
Rp257
g5
(S'-d807e6mqohd2hu8e7nktosjdddhunuoil58oq7i3dr431es000'
p258
tp259
Rp260
sg1
((dp261
I0
I45
sI1
I1
sI2
tp262
Rp263
g5
(S'-535d11o5vgan3tk2vgfm4ba2eus6j5kcvljps41rmt3hvu6u3o'
p264
tp265
Rp266
sg1
((dp267
I0
I134
sI1
I2
sI2
tp268
Rp269
g5
(S'-mmp0gq18km7qftahe5ch4i9bjt5c5t93'
p270
tp271
Rp272
sg1
((dp273
I0
I149
sI1
I3
sI2
tp274
Rp275
g5
(S'27fuioede7v15jm9grfc'
p276
tp277
Rp278
sg1
((dp279
I0
I137
sI1
I2
sI2
tp280
Rp281
g5
(S'1ekshn223ih1vsqau5pfr3qffrbjl1o'
p282
tp283
Rp284
sg1
((dp285
I0
I122
sI1
I1
sI2
tp286
Rp287
g5
(S'-fhkljg6elg8j4mk5sf1ege3s950j085mnfgihsrgb'
p288
tp289
Rp290
sg1
((dp291
I0
I124
sI2
tp292
Rp293
g5
(S'-10soq889lrufbptbfnme026quhoiick8d1mnoft8ll9g'
p294
tp295
Rp296
sg1
((dp297
I0
I62
sI1
I4
sI2
tp298
Rp299
g5
(S'd5qn01e205n8ooodefdf6pp72jn'
p300
tp301
Rp302
sg1
((dp303
I0
I40
sI1
I3
sI2
tp304
Rp305
g5
(S'-4t3lf72afuhscaprhtlrqug6snviqhecvo6rgl'
p306
tp307
Rp308
sg1
((dp309
I0
I67
sI1
I1
sI2
tp310
Rp311
g5
(S'-3s1a0h0pp985oqbqrjsp5c18uimt5k2o7af0q4jk637on4kblj8'
p312
tp313
Rp314
sg1
((dp315
I0
I156
sI1
I2
sI2
tp316
Rp317
g5
(S'1179h937s7v8ifvjmf7f'
p318
tp319
Rp320
sg1
((dp321
I0
I43
sI1
I3
sI2
tp322
Rp323
g5
(S'5tk2pu6vui5teci9cjdgc42fs16t8vsru3pmrk'
p324
tp325
Rp326
sg1
((dp327
I0
I159
sI1
I2
sI2
tp328
Rp329
g5
(S'ob7i516f5h3j05e0'
p330
tp331
Rp332
sg1
((dp333
I0
I25
sI2
tp334
Rp335
g5
(S'2ea4ephhbo71r2e3tcc5j7niq7v7e4oq143hr9kk88m680000'
p336
tp337
Rp338
sg1
((dp339
I0
I144
sI1
I1
sI2
tp340
Rp341
g5
(S'-5l1o9m3m3ma1l4h5l3gmud4hm47mppg'
p342
tp343
Rp344
sg1
((dp345
I0
I19
sI1
I5
sI2
tp346
Rp347
g5
(S'-1v5laqqu1gjd90ag'
p348
tp349
Rp350
sg1
((dp351
I0
I7
sI1
I4
sI2
tp352
Rp353
g5
(S'a44gssaevj4ns0gsc7780'
p354
tp355
Rp356
sg1
((dp357
I0
I15
sI1
I1
sI2
tp358
Rp359
g5
(S'5rcjpojrqccqmiqcmg46svng8cmq26hh9702i800000'
p360
tp361
Rp362
sg1
((dp363
I0
I71
sI2
tp364
Rp365
g5
(S'ujv737ajn5qmhqvrqcjqeci11a7n99237vehq1gi1qkqpoq1flio'
p366
tp367
Rp368
sg1
((dp369
I0
I84
sI1
I4
sI2
tp370
Rp371
g5
(S'-m8dtqu527u8ev16gsjgevgo'
p372
tp373
Rp374
sg1
((dp375
I0
I117
sI2
tp376
Rp377
g5
(S'1nq13ifkc387pce7p2fbp1e5corh7th710gup5m46da7po'
p378
tp379
Rp380
sg1
((dp381
I0
I62
sI1
I3
sI2
tp382
Rp383
g5
(S'171is7hguro1fgo5csihluh9ll05578tleg23tou'
p384
tp385
Rp386
sg1
((dp387
I0
I89
sI1
I1
sI2
tp388
Rp389
g5
(S'1iel3p3clkk1c4uof4pc1qf519v67ckf2s38uvai0gnl78ak'
p390
tp391
Rp392
sg1
((dp393
I0
I50
sI1
I2
sI2
tp394
Rp395
g5
(S'-hm06jf8ooghm52lq8v5jfh2st1dih2aco9l6bina00s2tlca'
p396
tp397
Rp398
sg1
((dp399
I0
I65
sI1
I3
sI2
tp400
Rp401
g5
(S'-2ghd45j8ojg9htgpdcf7p7hs3mffegsmr1922io0'
p402
tp403
Rp404
sg1
((dp405
I0
I53
sI1
I2
sI2
tp406
Rp407
g5
(S'14dvo2h2nej309pr3niohknlg8r9a65kuccknp5nrot1r4j28'
p408
tp409
Rp410
sg1
((dp411
I0
I166
sI1
I1
sI2
tp412
Rp413
g5
(S'-5a5c8j'
p414
tp415
Rp416
sg1
((dp417
I0
I41
sI1
I5
sI2
tp418
Rp419
g5
(S'fchhf156417uq6e'
p420
tp421
Rp422
sg1
((dp423
I0
I29
sI1
I4
sI2
tp424
Rp425
g5
(S'33mrg2al8t3o6utkf2e59j208ko'
p426
tp427
Rp428
sg1
((dp429
I0
I18
sI2
tp430
Rp431
g5
(S'-25udq88u8mva1id9hp4n21k4sg073q6deqhrunk8g000000'
p432
tp433
Rp434
sg1
((dp435
I0
I106
sI1
I4
sI2
tp436
Rp437
g5
(S'3h5p5a8k82t'
p438
tp439
Rp440
sg1
((dp441
I0
I2
sI1
I2
sI2
tp442
Rp443
g5
(S'-4fesh003l3svfb0vvd60gaf3t18g0000'
p444
tp445
Rp446
sg1
((dp447
I0
I84
sI1
I3
sI2
tp448
Rp449
g5
(S'13msbpq7q2m8jdgfcfjtprakuj24iqjtsn0jntrd'
p450
tp451
Rp452
sg1
((dp453
I0
I64
sI2
tp454
Rp455
g5
(S'-1lgvrufujpagpi42066ie1fahe6b0qelm7vfesk5nk0g1qomur9kg'
p456
tp457
Rp458
sg1
((dp459
I0
I111
sI1
I1
sI2
tp460
Rp461
g5
(S'267j2rq3pi39v9ogat8vsd56bm409l4v1trcg4u3mstv0'
p462
tp463
Rp464
sg1
((dp465
I0
I72
sI1
I2
sI2
tp466
Rp467
g5
(S'-13ncecdkk1tsj6mro9e7mfk6kngiplfmp2e3hvds22v8d6rtk'
p468
tp469
Rp470
sg1
((dp471
I0
I87
sI1
I3
sI2
tp472
Rp473
g5
(S'-3fbp0vop20oh8o9ukrctlf34mlmfkak5g2au1j8'
p474
tp475
Rp476
sg1
((dp477
I0
I161
sI2
tp478
Rp479
g5
(S'-opo8a4gb96ee055ij1l8'
p480
tp481
Rp482
sg1
((dp483
I0
I110
sI2
tp484
Rp485
g5
(S'-rqokfr1krl6rjv367mt059mif37jaubkeeg5njjff5qg0g0'
p486
tp487
Rp488
sg1
((dp489
I0
I60
sI1
I1
sI2
tp490
Rp491
g5
(S'4lpfu9o9rr10o8c8b08dg5g1pfmgfqrgnufm4uejaldnakl4c06'
p492
tp493
Rp494
sg1
((dp495
I0
I51
sI1
I4
sI2
tp496
Rp497
g5
(S'a0bht1q7i4vmq63lrp3p704g60po'
p498
tp499
Rp500
sg1
((dp501
I0
I1
sI1
I1
sI2
tp502
Rp503
g5
(S'f82badmcdjc38n5k53etgfoq0ps0000000'
p504
tp505
Rp506
sg1
((dp507
I0
I156
sI2
tp508
Rp509
g5
(S'-dba8c6tpdrqf2tfbrup4ptttp0'
p510
tp511
Rp512
sg1
((dp513
I0
I12
sI1
I5
sI2
tp514
Rp515
g5
(S't3eicr15a61jp7'
p516
tp517
Rp518
sg1
((dp519
I0
I26
sI1
I2
sI2
tp520
Rp521
g5
(S'-9ctqnn05u2fgfd2j6aqct85t3g05t5l4ff2q2vt8ue3o'
p522
tp523
Rp524
sg1
((dp525
I1
I4
sI2
tp526
Rp527
g5
(S'-gep64rod1pmpgg00'
p528
tp529
Rp530
sg1
((dp531
I0
I20
sI1
I1
sI2
tp532
Rp533
g5
(S'-2mt0ve6gb0tp7q5hq0ve2pln32koccgtvshbp93600000'
p534
tp535
Rp536
sg1
((dp537
I0
I106
sI1
I3
sI2
tp538
Rp539
g5
(S'-o5pkibko7tk8ois2rid654g37gajba3qn6p19'
p540
tp541
Rp542
sg1
((dp543
I0
I133
sI1
I1
sI2
tp544
Rp545
g5
(S'-u97a2p2mhfrpe8rs46tcgva4e8c0tkmu492o'
p546
tp547
Rp548
sg1
((dp549
I0
I94
sI1
I2
sI2
tp550
Rp551
g5
(S'-3661kbbhven0btq6smr6clilqqfgiamhtsc5blcjqlrlql'
p552
tp553
Rp554
sg1
((dp555
I0
I109
sI1
I3
sI2
tp556
Rp557
g5
(S'2spa3eu49olqrbigo9iedm8mlrr68lhpnga3g'
p558
tp559
Rp560
sg1
((dp561
I0
I97
sI1
I2
sI2
tp562
Rp563
g5
(S'd0filn8pka1b1drvkbaus7765armevsr93brdp6co80ks'
p564
tp565
Rp566
sg1
((dp567
I0
I57
sI2
tp568
Rp569
g5
(S'1cb1h0h7b4o84gq94lnthk81353a4v67do2dg3epnphehqh91mlog'
p570
tp571
Rp572
sg1
((dp573
I0
I82
sI1
I1
sI2
tp574
Rp575
g5
(S'1ts8k5bui89j22j6t2v9uchapq8upa9dnibt0padi412v6vm0a'
p576
tp577
Rp578
sg1
((dp579
I0
I29
sI1
I2
sI2
tp580
Rp581
g5
(S'4rd3hg4jhf8ucvp5eviqtdpcmp4c37ttvs41g9bkj1omo'
p582
tp583
Rp584
sg1
((dp585
I0
I73
sI1
I4
sI2
tp586
Rp587
g5
(S'-13c5pvgeqljatj7pbna1aj7rnsg'
p588
tp589
Rp590
sg1
((dp591
I0
I103
sI2
tp592
Rp593
g5
(S'4m147ijhvcg1agel52m0acl6ea7h979up0pqas2mhdjq28p6o'
p594
tp595
Rp596
sg1
((dp597
I0
I22
sI1
I4
sI2
tp598
Rp599
g5
(S'it4p2jfdrpm8bpv532kahn8th'
p600
tp601
Rp602
sg1
((dp603
I0
I149
sI2
tp604
Rp605
g5
(S'21a2mrpiv5jccgjf31903eapik5kcoco'
p606
tp607
Rp608
sg1
((dp609
I0
I34
sI1
I3
sI2
tp610
Rp611
g5
(S'2jk38tb0rrijr2i0t7lu2sfl99qr1a7807sii'
p612
tp613
Rp614
sg1
((dp615
I0
I128
sI1
I3
sI2
tp616
Rp617
g5
(S'-76gd4kovcq5euq4ub7jt7upar0a01lg'
p618
tp619
Rp620
sg1
((dp621
I0
I155
sI1
I1
sI2
tp622
Rp623
g5
(S'uobnuldsb3m1h2aqohjp04cs'
p624
tp625
Rp626
sg1
((dp627
I0
I116
sI1
I2
sI2
tp628
Rp629
g5
(S'-6njhib2e43t9a43uihd01p81ocabiajf1hguupd9'
p630
tp631
Rp632
sg1
((dp633
I0
I131
sI1
I3
sI2
tp634
Rp635
g5
(S'35hi7e54np1bfau1cdmrdco1rot074'
p636
tp637
Rp638
sg1
((dp639
I0
I24
sI1
I3
sI2
tp640
Rp641
g5
(S'-2f7i5jf3l7kft04hsfq38r1plnv9v7ht934'
p642
tp643
Rp644
sg1
((dp645
I0
I119
sI1
I2
sI2
tp646
Rp647
g5
(S'584mke10p64dtki07pp5te01m4p6spjo8ef9bu8'
p648
tp649
Rp650
sg1
((dp651
I0
I104
sI1
I1
sI2
tp652
Rp653
g5
(S'-klt9fie4eg4iscq2emp1mi1oc9ng9roidd5cqfeg3mfcvk'
p654
tp655
Rp656
sg1
((dp657
I0
I4
sI2
tp658
Rp659
g5
(S'-3eguoqv53qrh24c5iloff90l17e2v0e000000000'
p660
tp661
Rp662
sg1
((dp663
I0
I95
sI1
I4
sI2
tp664
Rp665
g5
(S'-5chhi5pucahbog3hnt0'
p666
tp667
Rp668
sg1
((dp669
I0
I50
sI2
tp670
Rp671
g5
(S'-gdcit079o0752gcmibfg80bp7ccevftshee3q6h57h6rs3vkg8go'
p672
tp673
Rp674
sg1
((dp675
I0
I12
sI1
I2
sI2
tp676
Rp677
g5
(S'-2egdfpvr59gts1im7raav4v33m606bsdik3l000'
p678
tp679
Rp680
sg1
((dp681
I0
I44
sI1
I4
sI2
tp682
Rp683
g5
(S'253n7gr2i5ibrqtvinucj2sq1f22'
p684
tp685
Rp686
sg1
((dp687
I0
I72
sI2
tp688
Rp689
g5
(S'-qkl2tv5krrnrf55v5lvl3rvoadiajdd9fe8dkt26b80tspcjm3k8'
p690
tp691
Rp692
sg1
((dp693
I0
I27
sI1
I3
sI2
tp694
Rp695
g5
(S'-6ijqkhq5eh00udgdkru08c3kdvq9un2jpi8'
p696
tp697
Rp698
sg1
((dp699
I0
I150
sI1
I3
sI2
tp700
Rp701
g5
(S'-5i0pr5jmj69abrq5p3n'
p702
tp703
Rp704
sg1
((dp705
I0
I96
sI2
tp706
Rp707
g5
(S'-9g5ec8a8f96gj9gh20cqe9qmsl1pc8s0pl0s71m08dsiqrocag'
p708
tp709
Rp710
sg1
((dp711
I0
I49
sI1
I1
sI2
tp712
Rp713
g5
(S'-lo4dhpi84re2a0hq9dp0bd74qlvf50kqr0bf3s0t1cea052l7u'
p714
tp715
Rp716
sg1
((dp717
I0
I138
sI1
I2
sI2
tp718
Rp719
g5
(S'1ivjkkv1vbbpdc3p910o8f2nuq6fsu'
p720
tp721
Rp722
sg1
((dp723
I0
I153
sI1
I3
sI2
tp724
Rp725
g5
(S'1itpvfti8eq5dp7pc'
p726
tp727
Rp728
sg1
((dp729
I0
I142
sI2
tp730
Rp731
g5
(S'-3l212basni7gembqhjdc4d51t6b34morche8'
p732
tp733
Rp734
sg1
((dp735
I0
I126
sI1
I1
sI2
tp736
Rp737
g5
(S'-20il301idbq3ep8tpdhiqaf26vp51iruqtdvremf'
p738
tp739
Rp740
sg1
((dp741
I0
I5
sI1
I4
sI2
tp742
Rp743
g5
(S'a7ov08i9hr9qpbo03h00'
p744
tp745
Rp746
sg1
((dp747
I0
I1
sI1
I5
sI2
tp748
Rp749
g5
(S'llc4sq040'
p750
tp751
Rp752
sg1
((dp753
I0
I15
sI1
I2
sI2
tp754
Rp755
g5
(S'asugf1r14j38cj0a7l497ul37lvrpvg46auljs00'
p756
tp757
Rp758
sg1
((dp759
I0
I36
sI1
I1
sI2
tp760
Rp761
g5
(S'sf335j21oj0lje8javdsi4tq398462dbk13u3umjnutt2g80'
p762
tp763
Rp764
sg1
((dp765
I0
I30
sI1
I3
sI2
tp766
Rp767
g5
(S'cfh0b8dfs3uo7bt0iteolpedmaj3sig29a72'
p768
tp769
Rp770
sg1
((dp771
I0
I66
sI1
I4
sI2
tp772
Rp773
g5
(S'-16tno1u9kuthiap94ahgaddstlq9'
p774
tp775
Rp776
sg1
((dp777
I0
I44
sI1
I3
sI2
tp778
Rp779
g5
(S'15bb4s0fjagmvarn93sgcbrgpv60n7673vpffr'
p780
tp781
Rp782
sg1
((dp783
I0
I71
sI1
I1
sI2
tp784
Rp785
g5
(S'-253po9u43apg8eac05a0gi9o351kcdcre8o7hn475qb369c7s08'
p786
tp787
Rp788
sg1
((dp789
I0
I160
sI1
I2
sI2
tp790
Rp791
g5
(S'-7llke828js6obmvf'
p792
tp793
Rp794
sg1
((dp795
I0
I47
sI1
I3
sI2
tp796
Rp797
g5
(S'-28upl25pflcspqv0ur71io6qkggd0tgtec9o5dg'
p798
tp799
Rp800
sg1
((dp801
I0
I10
sI1
I3
sI2
tp802
Rp803
g5
(S'iooe27hodimj2c07k9ho1ogcp0l400'
p804
tp805
Rp806
sg1
((dp807
I0
I163
sI1
I2
sI2
tp808
Rp809
g5
(S'17u2b6deb5u64'
p810
tp811
Rp812
sg1
((dp813
I0
I89
sI2
tp814
Rp815
g5
(S'7tdrrm1g1o24r1vhgtj7vtone9ilheqa8dvjnmcds6ifegjdk30'
p816
tp817
Rp818
sg1
((dp819
I0
I148
sI1
I1
sI2
tp820
Rp821
g5
(S'-6i1m8k8k8c57g069td3a35bt7iu4g'
p822
tp823
Rp824
sg1
((dp825
I0
I23
sI1
I5
sI2
tp826
Rp827
g5
(S'79g9kcav6j66ggf0'
p828
tp829
Rp830
sg1
((dp831
I0
I11
sI1
I4
sI2
tp832
Rp833
g5
(S'3irbas4i3n01q6nbauemk8'
p834
tp835
Rp836
sg1
((dp837
I0
I37
sI1
I1
sI2
tp838
Rp839
g5
(S'-1sr71nfa7b22k6cp3nv9drgjaf2ohk2ds25rvak9msdinmpe0'
p840
tp841
Rp842
sg1
((dp843
I0
I135
sI2
tp844
Rp845
g5
(S'ebj27ti8qr9p5hkpo269bb5hf3shh61882l0h38'
p846
tp847
Rp848
sg1
((dp849
I0
I88
sI1
I4
sI2
tp850
Rp851
g5
(S'-k2fk9ta4r4gri8hf5pptvp'
p852
tp853
Rp854
sg1
((dp855
I0
I30
sI1
I2
sI2
tp856
Rp857
g5
(S'-bfl5ue7vdm06l6o9fhduuoaiirgrfgq6f5km1jfhnhjk8'
p858
tp859
Rp860
sg1
((dp861
I0
I141
sI2
tp862
Rp863
g5
(S'mk2bjfiahrh1m1blmdde39p6oj0419iua270'
p864
tp865
Rp866
sg1
((dp867
I0
I66
sI1
I3
sI2
tp868
Rp869
g5
(S'28dqutsbu9tqgs8c7gibebk3jofvlbn69ih6osr9'
p870
tp871
Rp872
sg1
((dp873
I0
I93
sI1
I1
sI2
tp874
Rp875
g5
(S'8hkgilgtc5s40632rm4j3q7l4ig21bca40otr765ka387u02'
p876
tp877
Rp878
sg1
((dp879
I0
I54
sI1
I2
sI2
tp880
Rp881
g5
(S'-1c8e3bdpbvd43cgqa47qgidt4aea2d322j14u3v60lnoqaulk'
p882
tp883
Rp884
sg1
((dp885
I0
I69
sI1
I3
sI2
tp886
Rp887
g5
(S'g2mj870ka8nnr94u7vadunlkljt6osnteekjlgu'
p888
tp889
Rp890
sg1
((dp891
I0
I57
sI1
I2
sI2
tp892
Rp893
g5
(S'2598d4id18qurqts5bdp1fmbfq14ekqjhfem0k7k7aupjeg58'
p894
tp895
Rp896
sg1
((dp897
I0
I42
sI1
I1
sI2
tp898
Rp899
g5
(S'18djdqla528lqrhlfu4lnb8ja7qv38tdt635gi7vr3d9h40slg'
p900
tp901
Rp902
sg1
((dp903
I0
I32
sI1
I1
sI2
tp904
Rp905
g5
(S'as6ki8tksts6qguslipccm5untvg67nk9ej03f0cnha25l0'
p906
tp907
Rp908
sg1
((dp909
I0
I36
sI2
tp910
Rp911
g5
(S'-3vm6fo1up1qaugnaqegrkf5rulbe3bmut617dhg496dsauh1o00'
p912
tp913
Rp914
sg1
((dp915
I0
I45
sI1
I5
sI2
tp916
Rp917
g5
(S'488pssrncne6f0'
p918
tp919
Rp920
sg1
((dp921
I0
I1
sI1
I2
sI2
tp922
Rp923
g5
(S'3ssma7pkm1ft6vqlrsumfo69mt00000'
p924
tp925
Rp926
sg1
((dp927
I0
I33
sI1
I4
sI2
tp928
Rp929
g5
(S'-7afl4q329kv8cqqbmoodpbr8ebg'
p930
tp931
Rp932
sg1
((dp933
I0
I82
sI2
tp934
Rp935
g5
(S'-2tbhnmql6j8lp8fp3l3gg6280aens645hnig6363ha9rc1a58qgo'
p936
tp937
Rp938
sg1
((dp939
I0
I110
sI1
I4
sI2
tp940
Rp941
g5
(S'i39'
p942
tp943
Rp944
sg1
((dp945
I0
I88
sI1
I3
sI2
tp946
Rp947
g5
(S'-38r04clcq3diakhah2vdr847dr760badj2vu7en'
p948
tp949
Rp950
sg1
((dp951
I0
I128
sI2
tp952
Rp953
g5
(S'-7v263ilo7i7rm8vo3r716gme5nsvqr72vi0hltmavg'
p954
tp955
Rp956
sg1
((dp957
I0
I115
sI1
I1
sI2
tp958
Rp959
g5
(S'1egpkuos9gs6dqimius80v74hbllj4nv5c0hp4pcc13c'
p960
tp961
Rp962
sg1
((dp963
I0
I76
sI1
I2
sI2
tp964
Rp965
g5
(S'-dkjfed5adg84runh75761i56mijnbptfl0k4kc2abev7q517'
p966
tp967
Rp968
sg1
((dp969
I0
I91
sI1
I3
sI2
tp970
Rp971
g5
(S'a2u6o58n9sjandtar2bnpafofnst7alnv9t4dv0'
p972
tp973
Rp974
sg1
((dp975
I0
I79
sI1
I2
sI2
tp976
Rp977
g5
(S'5bbea1j1o1alcs2jbnr8bj8lor116r0ad41b820rl045fs3g'
p978
tp979
Rp980
sg1
((dp981
I0
I64
sI1
I1
sI2
tp982
Rp983
g5
(S'4p4p906pi3ilogsap208lsin7mtf3mrtpa6g7bcsefbr8k0jcg0'
p984
tp985
Rp986
sg1
((dp987
I0
I55
sI1
I4
sI2
tp988
Rp989
g5
(S'2ulsr7rnqb6pioec6sdg3s745sig'
p990
tp991
Rp992
sg1
((dp993
I0
I23
sI1
I1
sI2
tp994
Rp995
g5
(S'1m8le87juoq21pguld7hlcr9oc4jvc0i4i0m6t0fjac000'
p996
tp997
Rp998
sg1
((dp999
I0
I29
sI2
tp1000
Rp1001
g5
(S'1ork3er7enqc2d7osor6ebdurca6vn8eabq10e1pmebee2g000'
p1002
tp1003
Rp1004
sg1
((dp1005
I0
I16
sI1
I5
sI2
tp1006
Rp1007
g5
(S'-d507d785v5ei19q'
p1008
tp1009
Rp1010
sg1
((dp1011
I0
I4
sI1
I4
sI2
tp1012
Rp1013
g5
(S'-1adeok6qbip6trge1i00'
p1014
tp1015
Rp1016
sg1
((dp1017
I0
I110
sI1
I3
sI2
tp1018
Rp1019
g5
(S'-1b47ql5vuj7pirder0dk428nudj38gusl2l9d'
p1020
tp1021
Rp1022
sg1
((dp1023
I0
I137
sI1
I1
sI2
tp1024
Rp1025
g5
(S'-3enihno2jdia3pc634vkhtjcurs2vlgt2k6'
p1026
tp1027
Rp1028
sg1
((dp1029
I0
I98
sI1
I2
sI2
tp1030
Rp1031
g5
(S'-68g5ei3if6qt50r259baqp9one2dln5p6lp3oguv8t2ob'
p1032
tp1033
Rp1034
sg1
((dp1035
I0
I113
sI1
I3
sI2
tp1036
Rp1037
g5
(S'3k1bgj5qdcpk0pnau2kkaqvmh3h8o0a740lc'
p1038
tp1039
Rp1040
sg1
((dp1041
I0
I28
sI1
I1
sI2
tp1042
Rp1043
g5
(S'-274deudcq5em01vlkgt0p828sqk7h7je1mcih354ilus300'
p1044
tp1045
Rp1046
sg1
((dp1047
I0
I101
sI1
I2
sI2
tp1048
Rp1049
g5
(S'jhb9be5bahmgqsklm050c003q5i165b3073p3b9fd1ug'
p1050
tp1051
Rp1052
sg1
((dp1053
I0
I121
sI2
tp1054
Rp1055
g5
(S'th24kp0gmsq8tt0ak54e49j5qp0ce8mtp0sq7k18hr2g'
p1056
tp1057
Rp1058
sg1
((dp1059
I0
I86
sI1
I1
sI2
tp1060
Rp1061
g5
(S'5m0itr3biroban2v1hjpnm908dfp12ng2h3tsbo09f91uvdhg'
p1062
tp1063
Rp1064
sg1
((dp1065
I0
I77
sI1
I4
sI2
tp1066
Rp1067
g5
(S'-3tk7u6icv4pnj1a1nv7oglg0m6'
p1068
tp1069
Rp1070
sg1
((dp1071
I0
I167
sI2
tp1072
Rp1073
g5
(S'58'
p1074
tp1075
Rp1076
sg1
((dp1077
I0
I26
sI1
I4
sI2
tp1078
Rp1079
g5
(S'8bc1sjno30j6fp7f3mngmj01op'
p1080
tp1081
Rp1082
sg1
((dp1083
I0
I22
sI2
tp1084
Rp1085
g5
(S'-4vcf8qihe0m7j1pp8pssb4g7cai5jcvugv5npmkrt5o00000'
p1086
tp1087
Rp1088
sg1
((dp1089
I0
I132
sI1
I3
sI2
tp1090
Rp1091
g5
(S'-mdtoskp7keurnkc07n7a1t6vhq11b'
p1092
tp1093
Rp1094
sg1
((dp1095
I0
I100
sI1
I1
sI2
tp1096
Rp1097
g5
(S'-98h5o6sd28g0v9hhofkfl6vsvderl7g4lakletrd2drssmn'
p1098
tp1099
Rp1100
sg1
((dp1101
I0
I120
sI1
I2
sI2
tp1102
Rp1103
g5
(S'-1dt972tfv4c0ak19hjl3vap6l8omkiekh1t9qdc'
p1104
tp1105
Rp1106
sg1
((dp1107
I0
I135
sI1
I3
sI2
tp1108
Rp1109
g5
(S'5ut580gaq87kenq9p3f6g4edd6v0'
p1110
tp1111
Rp1112
sg1
((dp1113
I0
I123
sI1
I2
sI2
tp1114
Rp1115
g5
(S'oqiqdkten49fqcftc51hso2kps541pce8s38g'
p1116
tp1117
Rp1118
sg1
((dp1119
I0
I108
sI1
I1
sI2
tp1120
Rp1121
g5
(S'-tqtv980qv1ic1ieeekf559akeoef98bne7r5u5dp5f44r'
p1122
tp1123
Rp1124
sg1
((dp1125
I0
I68
sI2
tp1126
Rp1127
g5
(S'-1ahbnv2pm61nbkpl33m227o932m08bv7nguqi7jfvt3elr2u64juo'
p1128
tp1129
Rp1130
sg1
((dp1131
I0
I14
sI1
I1
sI2
tp1132
Rp1133
g5
(S'-1d02e5ossddg4j09ci883ujdn9l9odnvtpundn00000'
p1134
tp1135
Rp1136
sg1
((dp1137
I0
I99
sI1
I4
sI2
tp1138
Rp1139
g5
(S'12db0ggqfl418hlhc'
p1140
tp1141
Rp1142
sg1
((dp1143
I0
I75
sI2
tp1144
Rp1145
g5
(S'g1t0c0k88rnpsrv60tjku2npc15eq3ejlqucl1dfi703qnuhbsqo'
p1146
tp1147
Rp1148
sg1
((dp1149
I0
I114
sI2
tp1150
Rp1151
g5
(S'-t26og6hp888lf5ncc1lub3n51vbsrre2fuuvq52pceq0n8'
p1152
tp1153
Rp1154
sg1
((dp1155
I0
I162
sI1
I2
sI2
tp1156
Rp1157
g5
(S'5lmlnpki0boom1'
p1158
tp1159
Rp1160
sg1
((dp1161
I0
I48
sI1
I4
sI2
tp1162
Rp1163
g5
(S'8nnn26ptutgbjua308ulmfkm9are'
p1164
tp1165
Rp1166
sg1
((dp1167
I0
I24
sI1
I1
sI2
tp1168
Rp1169
g5
(S'-43b7ab8pgk5no47rnenmke01me6g0ohq3v3hitjoet1800'
p1170
tp1171
Rp1172
sg1
((dp1173
I0
I154
sI1
I3
sI2
tp1174
Rp1175
g5
(S'-2o12f3vabe4ctqmb'
p1176
tp1177
Rp1178
sg1
((dp1179
I0
I160
sI2
tp1180
Rp1181
g5
(S'-1ej9982sl7i5rgf8tiko1g'
p1182
tp1183
Rp1184
sg1
((dp1185
I0
I53
sI1
I1
sI2
tp1186
Rp1187
g5
(S'-1t3n46p6jmddsov7doho6o2ggt8k7fo3kr4dvujsn958dou11jc'
p1188
tp1189
Rp1190
sg1
((dp1191
I0
I142
sI1
I2
sI2
tp1192
Rp1193
g5
(S'1da56gq2nqqaurnuk35efbp5cadia'
p1194
tp1195
Rp1196
sg1
((dp1197
I0
I157
sI1
I3
sI2
tp1198
Rp1199
g5
(S'7a4djlnmeb5mu'
p1200
tp1201
Rp1202
sg1
((dp1203
I0
I145
sI1
I2
sI2
tp1204
Rp1205
g5
(S'-6ijoqevv13m6bbmplv14uj4p2nc'
p1206
tp1207
Rp1208
sg1
((dp1209
I0
I130
sI1
I1
sI2
tp1210
Rp1211
g5
(S'-1usq6e2k8i6usptgie10v9n5nd7msmnrvqsfo6'
p1212
tp1213
Rp1214
sg1
((dp1215
I0
I15
sI2
tp1216
Rp1217
g5
(S'1k25p2n15b2jvfgafc0j4gs851cajcojqfqm47s0000000'
p1218
tp1219
Rp1220
sg1
((dp1221
I0
I37
sI1
I2
sI2
tp1222
Rp1223
g5
(S'1qggqrj02crpt81trmcga45uj4fmk89d76gfq6oc5p0iflg'
p1224
tp1225
Rp1226
sg1
((dp1227
I0
I61
sI2
tp1228
Rp1229
g5
(S'1m7nulhrruc4q87aivbf54ocg6g179pn3bofpjdcc25atbapn1n70'
p1230
tp1231
Rp1232
sg1
((dp1233
I0
I70
sI1
I4
sI2
tp1234
Rp1235
g5
(S'-1q705nqlq2mhasvs2fjns8o9ciu'
p1236
tp1237
Rp1238
sg1
((dp1239
I0
I48
sI1
I3
sI2
tp1240
Rp1241
g5
(S'3cuao5o11g8jhakiqqbbgr591h5l8iv411oeoqj'
p1242
tp1243
Rp1244
sg1
((dp1245
I0
I107
sI2
tp1246
Rp1247
g5
(S'8v22tajfjid1sc969vsihrdttvjt6mqgni3gokphaq215skg'
p1248
tp1249
Rp1250
sg1
((dp1251
I0
I164
sI1
I2
sI2
tp1252
Rp1253
g5
(S'203it3heopi'
p1254
tp1255
Rp1256
sg1
((dp1257
I0
I51
sI1
I3
sI2
tp1258
Rp1259
g5
(S'-3baosn8g619osaftnduop52cvl26mut3a4d8cqs'
p1260
tp1261
Rp1262
sg1
((dp1263
I0
I3
sI2
tp1264
Rp1265
g5
(S'7mejge863o4m1ch0m3g94i3khhhfao000000000'
p1266
tp1267
Rp1268
sg1
((dp1269
I0
I65
sI2
tp1270
Rp1271
g5
(S'1jm7ah1bla4i5v3epk9ee6lir1ml2ilc6id0r073dd250mi9ni998'
p1272
tp1273
Rp1274
sg1
((dp1275
I0
I39
sI1
I2
sI2
tp1276
Rp1277
g5
(S'5u58oli24uejd0vg333mpg62rl8ja43souv77ribobanur8'
p1278
tp1279
Rp1280
sg1
((dp1281
I0
I153
sI2
tp1282
Rp1283
g5
(S'2tk7ghsmdvi21i7mlq5dl0tkknim0'
p1284
tp1285
Rp1286
sg1
((dp1287
I0
I152
sI1
I1
sI2
tp1288
Rp1289
g5
(S'-1c8f4bssimcigkc0jf8vm0k2hjk'
p1290
tp1291
Rp1292
sg1
((dp1293
I0
I27
sI1
I5
sI2
tp1294
Rp1295
g5
(S'-ddggkpl56o0c94i8'
p1296
tp1297
Rp1298
sg1
((dp1299
I0
I15
sI1
I4
sI2
tp1300
Rp1301
g5
(S'-133cb8tirf91gqpnumu8n5gg'
p1302
tp1303
Rp1304
sg1
((dp1305
I0
I9
sI2
tp1306
Rp1307
g5
(S'4ip504mo3hlmlb0vso4gk7o5om09e6okjlr00000000'
p1308
tp1309
Rp1310
sg1
((dp1311
I0
I20
sI1
I2
sI2
tp1312
Rp1313
g5
(S'-bgrv9to89ujg98l55h75p17893mpupo6r02gaggii0'
p1314
tp1315
Rp1316
sg1
((dp1317
I0
I92
sI1
I4
sI2
tp1318
Rp1319
g5
(S'1rlg0moblj1uftu7p97q'
p1320
tp1321
Rp1322
sg1
((dp1323
I0
I35
sI1
I3
sI2
tp1324
Rp1325
g5
(S'-u794qj94jlmkkrp3i040k5t9p3laljphf9jc'
p1326
tp1327
Rp1328
sg1
((dp1329
I0
I54
sI2
tp1330
Rp1331
g5
(S'-1044m0um0j124hpnbujv9g1k7ndbi1roo2bt4cdacd4avb8v0v9vg'
p1332
tp1333
Rp1334
sg1
((dp1335
I0
I70
sI1
I3
sI2
tp1336
Rp1337
g5
(S'-1jp9frllq4bp7bq2e2j0hirnonfl1l7j4vsrvb4o'
p1338
tp1339
Rp1340
sg1
((dp1341
I0
I97
sI1
I1
sI2
tp1342
Rp1343
g5
(S'1i1j7euatuupfh9uo76dh4j7bf1i6bn97o3su78mip905270'
p1344
tp1345
Rp1346
sg1
((dp1347
I0
I58
sI1
I2
sI2
tp1348
Rp1349
g5
(S'-2cuf3gqqtfev0and9f38ndr7jm8bik3ov9c0pjt2pullaapji'
p1350
tp1351
Rp1352
sg1
((dp1353
I0
I73
sI1
I3
sI2
tp1354
Rp1355
g5
(S'35p0qtfas83ce1rlgi5poi27q00hsof5iejaova0'
p1356
tp1357
Rp1358
sg1
((dp1359
I0
I61
sI1
I2
sI2
tp1360
Rp1361
g5
(S'2sfi6dcfnrehkt5mm5f13chngganok0sqj455ls5lk5m6tplc'
p1362
tp1363
Rp1364
sg1
((dp1365
I0
I46
sI1
I1
sI2
tp1366
Rp1367
g5
(S'7kfricsjii1p1m5ejn3oa1seuliuqsd08cuv6go8r0gd579s78'
p1368
tp1369
Rp1370
sg1
((dp1371
I0
I13
sI1
I4
sI2
tp1372
Rp1373
g5
(S'-9hnrt5u3rrbdq74v9fg5qn8'
p1374
tp1375
Rp1376
sg1
((dp1377
I0
I100
sI2
tp1378
Rp1379
g5
(S'-vdgsg6fmia8h26fn4nt6bklth3d0pfrk7fqeieum955g404qo'
p1380
tp1381
Rp1382
sg1
((dp1383
I0
I49
sI1
I5
sI2
tp1384
Rp1385
g5
(S'gtlhqjh57e6'
p1386
tp1387
Rp1388
sg1
((dp1389
I0
I11
sI1
I3
sI2
tp1390
Rp1391
g5
(S'-2nuqbpag40or2iau8jl3l8n0agfc800'
p1392
tp1393
Rp1394
sg1
((dp1395
I0
I23
sI1
I2
sI2
tp1396
Rp1397
g5
(S'cn16cgpenfuibpoq62o7v1joiug1gghh2mrucf8r40o'
p1398
tp1399
Rp1400
sg1
((dp1401
I0
I37
sI1
I4
sI2
tp1402
Rp1403
g5
(S'-115ro66ldv07tcmofn0dqcqkj9jm'
p1404
tp1405
Rp1406
sg1
((dp1407
I0
I146
sI2
tp1408
Rp1409
g5
(S'-1egq7kkhuugjcomq4eliula7007mvqbvd8'
p1410
tp1411
Rp1412
sg1
((dp1413
I0
I25
sI1
I3
sI2
tp1414
Rp1415
g5
(S'43a6c7b6ojqfpvqn7l8fqj53l50d72kgrfq'
p1416
tp1417
Rp1418
sg1
((dp1419
I0
I92
sI1
I3
sI2
tp1420
Rp1421
g5
(S'-9d6431i336o097ennq4v7nt0r11652hatgr7rih'
p1422
tp1423
Rp1424
sg1
((dp1425
I0
I119
sI1
I1
sI2
tp1426
Rp1427
g5
(S'iofvh23i7jidq2qjgg5nl26s63hots0gj6uha6s1no'
p1428
tp1429
Rp1430
sg1
((dp1431
I0
I80
sI1
I2
sI2
tp1432
Rp1433
g5
(S'-3oeu43faura0va7g5q3rlcoq6u0m3r3de64djt1dg5tthhbg'
p1434
tp1435
Rp1436
sg1
((dp1437
I0
I95
sI1
I3
sI2
tp1438
Rp1439
g5
(S'516otkr2sf80k1enocuvh6jprfi5keukmn430l0'
p1440
tp1441
Rp1442
sg1
((dp1443
I0
I18
sI1
I3
sI2
tp1444
Rp1445
g5
(S'3r100kgt0hor8kpp96h1s8ed0j43s86d8'
p1446
tp1447
Rp1448
sg1
((dp1449
I0
I83
sI1
I2
sI2
tp1450
Rp1451
g5
(S'151bblnmehvste1th9a0s4dpd0ljbkbrc91nt0q0gr145p9g'
p1452
tp1453
Rp1454
sg1
((dp1455
I0
I68
sI1
I1
sI2
tp1456
Rp1457
g5
(S'3eneu18v6ukge7qkbkrqh9r8hmmqkm3lj56e8gtn5rnhsbgus6i'
p1458
tp1459
Rp1460
sg1
((dp1461
I0
I47
sI2
tp1462
Rp1463
g5
(S'85ov8vihqatvlfah89cn5ddjbu4nr1dc65ccb10fcc5jdibieshg'
p1464
tp1465
Rp1466
sg1
((dp1467
I0
I59
sI1
I4
sI2
tp1468
Rp1469
g5
(S'-6h5964k3upe2mafkglv4pv9qoncs'
p1470
tp1471
Rp1472
sg1
((dp1473
I0
I10
sI1
I1
sI2
tp1474
Rp1475
g5
(S'-26c4lddgmrqs2i1k5pq82653efaevukbn8tc00000'
p1476
tp1477
Rp1478
sg1
((dp1479
I0
I16
sI1
I1
sI2
tp1480
Rp1481
g5
(S'-moj6s2thgsg4omrsh1m7ps81fcn9n3rdf3ar2u20000'
p1482
tp1483
Rp1484
sg1
((dp1485
I0
I93
sI2
tp1486
Rp1487
g5
(S'1b2ot3vq7uq0jlvnefdmpiip7ts903siv54aovdbo4rqpul85dg'
p1488
tp1489
Rp1490
sg1
((dp1491
I0
I20
sI1
I5
sI2
tp1492
Rp1493
g5
(S'2db7hiqi48r49vg7'
p1494
tp1495
Rp1496
sg1
((dp1497
I0
I6
sI1
I2
sI2
tp1498
Rp1499
g5
(S'-b2a8lhgtn523fisckhr2pah5teihv7b0000'
p1500
tp1501
Rp1502
sg1
((dp1503
I0
I8
sI1
I4
sI2
tp1504
Rp1505
g5
(S'-193l7b2aetbsamur19gta0'
p1506
tp1507
Rp1508
sg1
((dp1509
I0
I21
sI1
I3
sI2
tp1510
Rp1511
g5
(S'47er5d0jdqk7j9qpfj9rjd6rhk8j2ujts6'
p1512
tp1513
Rp1514
sg1
((dp1515
I0
I114
sI1
I3
sI2
tp1516
Rp1517
g5
(S'-1fsbf801cpol1h90863eslgu361ki3md6b3e'
p1518
tp1519
Rp1520
sg1
((dp1521
I0
I139
sI2
tp1522
Rp1523
g5
(S'n955oc6gfqt2js5uu0dbrroivsd99kgp96tmo'
p1524
tp1525
Rp1526
sg1
((dp1527
I0
I102
sI1
I2
sI2
tp1528
Rp1529
g5
(S'-8isj1vsevjj982dicj4jspn0irut4k168sa803isnp39'
p1530
tp1531
Rp1532
sg1
((dp1533
I0
I117
sI1
I3
sI2
tp1534
Rp1535
g5
(S'2pmdnp2akgh1ae02ro60nvsp0qahh886see'
p1536
tp1537
Rp1538
sg1
((dp1539
I0
I105
sI1
I2
sI2
tp1540
Rp1541
g5
(S'k8q3egr42lggkp925q6l2jjf76kidap45k4llglm80i'
p1542
tp1543
Rp1544
sg1
((dp1545
I0
I7
sI1
I3
sI2
tp1546
Rp1547
g5
(S'-2ua17q8gv4n9jhh8m44khli782000'
p1548
tp1549
Rp1550
sg1
((dp1551
I0
I90
sI1
I1
sI2
tp1552
Rp1553
g5
(S'-b1o1ksc9m36nj6b1vrkoi8fe5stkvt6rihnos2fq79550vqv'
p1554
tp1555
Rp1556
sg1
((dp1557
I0
I78
sI2
tp1558
Rp1559
g5
(S'-8esuhqbikir5f0hd35c9c6hiks2sm86gp6vguqm98nsjiqf3nr78'
p1560
tp1561
Rp1562
sg1
((dp1563
I0
I81
sI1
I4
sI2
tp1564
Rp1565
g5
(S'-1u7f4vnounag9ia5u5sdcje1u'
p1566
tp1567
Rp1568
sg1
((dp1569
I0
I42
sI1
I5
sI2
tp1570
Rp1571
g5
(S'-6lpl9b4eh2j7o3a'
p1572
tp1573
Rp1574
sg1
((dp1575
I0
I40
sI2
tp1576
Rp1577
g5
(S'-p6jambf2cntasp4bre355q1ekv0umhvsnpms02mbiokim2v3i00'
p1578
tp1579
Rp1580
sg1
((dp1581
I0
I86
sI2
tp1582
Rp1583
g5
(S'-p38sbc6eaa8vhm7npnmhhjebjatsjc3phb7hq3bgmn6l5b030s0'
p1584
tp1585
Rp1586
sg1
((dp1587
I0
I136
sI1
I3
sI2
tp1588
Rp1589
g5
(S'-139euueiji3g76i76v6reqe98v8b'
p1590
tp1591
Rp1592
sg1
((dp1593
I0
I163
sI1
I1
sI2
tp1594
Rp1595
g5
(S'5vlkm5sunbrjuggk'
p1596
tp1597
Rp1598
sg1
((dp1599
I0
I124
sI1
I2
sI2
tp1600
Rp1601
g5
(S'-5vd2qi5f8ku52ct8ua6uhk1ejustdaqvt0jo9'
p1602
tp1603
Rp1604
sg1
((dp1605
I0
I139
sI1
I3
sI2
tp1606
Rp1607
g5
(S'5a2enhhsjsddpt93o9ngqfp5pk'
p1608
tp1609
Rp1610
sg1
((dp1611
I0
I4
sI1
I3
sI2
tp1612
Rp1613
g5
(S'42unbehv9lvn3rcm96nv10r4000'
p1614
tp1615
Rp1616
sg1
((dp1617
I0
I127
sI1
I2
sI2
tp1618
Rp1619
g5
(S'26o1r9nf56c06gmu14kumdt4gastn085i100'
p1620
tp1621
Rp1622
sg1
((dp1623
I0
I112
sI1
I1
sI2
tp1624
Rp1625
g5
(S'-rqim4joq2qcmidbfci77nccuq55fn77njpqno8p9nu3d'
p1626
tp1627
Rp1628
sg1
((dp1629
I0
I132
sI2
tp1630
Rp1631
g5
(S'-154ddt1p6k3uvdokjhqr4554hj0evl90ajjf90bf8'
p1632
tp1633
Rp1634
sg1
((dp1635
I0
I103
sI1
I4
sI2
tp1636
Rp1637
g5
(S'-10sdgi3f0n24k8'
p1638
tp1639
Rp1640
sg1
((dp1641
I0
I159
sI1
I1
sI2
tp1642
Rp1643
g5
(S'7lau6midg3gu1d8vb8vt0'
p1644
tp1645
Rp1646
sg1
((dp1647
I0
I6
sI1
I3
sI2
tp1648
Rp1649
g5
(S'cast9cnljg5irff9j42fvtlb2000'
p1650
tp1651
Rp1652
sg1
((dp1653
I0
I8
sI1
I1
sI2
tp1654
Rp1655
g5
(S'-1i983vafbt9fnrd5s73klgnnhcmphicrfhg00000'
p1656
tp1657
Rp1658
sg1
((dp1659
I0
I52
sI1
I4
sI2
tp1660
Rp1661
g5
(S'-ct3dj566lbq9aacas9hdlr93tmgj'
p1662
tp1663
Rp1664
sg1
((dp1665
I0
I45
sI2
tp1666
Rp1667
g5
(S'4l564m3fme81o4b07nt546sb9ovf8b4kq6qnrbra4jmcpj9n8p10'
p1668
tp1669
Rp1670
sg1
((dp1671
I0
I158
sI1
I3
sI2
tp1672
Rp1673
g5
(S'-7sgnv677j1ms'
p1674
tp1675
Rp1676
sg1
((dp1677
I0
I57
sI1
I1
sI2
tp1678
Rp1679
g5
(S'-3ku26dgd8pklit6u52r70d8ueui3amqtrs5ibiusedo9u83easq'
p1680
tp1681
Rp1682
sg1
((dp1683
I0
I146
sI1
I2
sI2
tp1684
Rp1685
g5
(S'q86hrf647d313gp75s5n58m13t'
p1686
tp1687
Rp1688
sg1
((dp1689
I0
I161
sI1
I3
sI2
tp1690
Rp1691
g5
(S'3s7nq4o8i'
p1692
tp1693
Rp1694
sg1
((dp1695
I0
I149
sI1
I2
sI2
tp1696
Rp1697
g5
(S'g314pfpg958a5u4h4g6aemg'
p1698
tp1699
Rp1700
sg1
((dp1701
I0
I134
sI1
I1
sI2
tp1702
Rp1703
g5
(S'9cn8de322toe2qfhsokb8vb1181489fme08o'
p1704
tp1705
Rp1706
sg1
((dp1707
I0
I79
sI2
tp1708
Rp1709
g5
(S'6kbj6p3gbqtqajbdk79oh8hpjj8phir8r2242lrpr9ct9u4i0s8g'
p1710
tp1711
Rp1712
sg1
((dp1713
I0
I13
sI1
I1
sI2
tp1714
Rp1715
g5
(S'a1jhe0q7np7b0rq5tubumhc7nrruia4fohp7cg0000'
p1716
tp1717
Rp1718
sg1
((dp1719
I0
I125
sI2
tp1720
Rp1721
g5
(S'a4pt1vae9eruv2h4v7e7u5pg9nviciecp00mbrd73m0'
p1722
tp1723
Rp1724
sg1
((dp1725
I0
I74
sI1
I4
sI2
tp1726
Rp1727
g5
(S'pbhva33lsr5jko73e57iatqq71'
p1728
tp1729
Rp1730
sg1
((dp1731
I0
I52
sI1
I3
sI2
tp1732
Rp1733
g5
(S'dasolg7l3q3fne01gj9laiq6u4cbs7fq7pnr52'
p1734
tp1735
Rp1736
sg1
((dp1737
I0
I79
sI1
I1
sI2
tp1738
Rp1739
g5
(S'-73maq8c1iiliimmcu2mj5k627a1pvls6mp7v6d1untroh4adeg'
p1740
tp1741
Rp1742
sg1
((dp1743
I0
I40
sI1
I2
sI2
tp1744
Rp1745
g5
(S'-a8duohttl30rki9gcd60jgf98ejeqhid8oclnb80jr04rgv'
p1746
tp1747
Rp1748
sg1
((dp1749
I0
I55
sI1
I3
sI2
tp1750
Rp1751
g5
(S'ip2l539r95ij9hcb6lc59e35oorctj1nsi49gj0'
p1752
tp1753
Rp1754
sg1
((dp1755
I0
I43
sI1
I2
sI2
tp1756
Rp1757
g5
(S'1cqpd49s8urugskcog6erj188duaemoulp4sklfaqpe2jllg'
p1758
tp1759
Rp1760
sg1
((dp1761
I0
I156
sI1
I1
sI2
tp1762
Rp1763
g5
(S'-23offqfea9h9pkbjmff9mdgh'
p1764
tp1765
Rp1766
sg1
((dp1767
I0
I26
sI2
tp1768
Rp1769
g5
(S'-5ldhkj6cqlpej7jh06uepud1pt4kt0397bi5vgrrsinm00000'
p1770
tp1771
Rp1772
sg1
((dp1773
I0
I36
sI1
I2
sI2
tp1774
Rp1775
g5
(S'-v1vged3u6qmrkt3e60ak5j249c31oj6e8hgnaot0hjqvv0'
p1776
tp1777
Rp1778
sg1
((dp1779
I0
I31
sI1
I5
sI2
tp1780
Rp1781
g5
(S'cn75n0dsggahmcs0'
p1782
tp1783
Rp1784
sg1
((dp1785
I0
I19
sI1
I4
sI2
tp1786
Rp1787
g5
(S'4grphrv3d0ct44ki58cqd6rr4'
p1788
tp1789
Rp1790
sg1
((dp1791
I0
I17
sI1
I1
sI2
tp1792
Rp1793
g5
(S'2iu0qdshfkt8uddd4uq41gqd7jga26ivei5av7660000'
p1794
tp1795
Rp1796
sg1
((dp1797
I0
I5
sI1
I5
sI2
tp1798
Rp1799
g5
(S'-51ker6g5mevo'
p1800
tp1801
Rp1802
sg1
((dp1803
I0
I96
sI1
I4
sI2
tp1804
Rp1805
g5
(S'ilfgotehn3kj4vck26'
p1806
tp1807
Rp1808
sg1
((dp1809
I0
I118
sI2
tp1810
Rp1811
g5
(S'-kpkhkv6gae986a000ct1nlkb576o945uit5jgip7kdgng'
p1812
tp1813
Rp1814
sg1
((dp1815
I0
I74
sI1
I3
sI2
tp1816
Rp1817
g5
(S'-2ri4jrff3b95pd5sv5rt9pttsqv9jie8mkqcn8c6'
p1818
tp1819
Rp1820
sg1
((dp1821
I0
I101
sI1
I1
sI2
tp1822
Rp1823
g5
(S'4uus19s39ld27qo5sqm431836mdq5vtape2jpf3pgq3kkt8'
p1824
tp1825
Rp1826
sg1
((dp1827
I0
I62
sI1
I2
sI2
tp1828
Rp1829
g5
(S'-2u61s07eftptcqn2piqp4477fn8fim1ijd5v2lgpv0k0abqq6'
p1830
tp1831
Rp1832
sg1
((dp1833
I0
I77
sI1
I3
sI2
tp1834
Rp1835
g5
(S'baefpmfno2jcqoa3dbrkeb8mqenr61e2qa5ddhi'
p1836
tp1837
Rp1838
sg1
((dp1839
I0
I65
sI1
I2
sI2
tp1840
Rp1841
g5
(S'2njgm976eoo2v989nt1infp95c16do0q1aj7gfkjlgmo19bck'
p1842
tp1843
Rp1844
sg1
((dp1845
I0
I50
sI1
I1
sI2
tp1846
Rp1847
g5
(S't7ocjv68nf5qpjdmjbprehdvkmjbc894c3indc9sqlv5aq1r25'
p1848
tp1849
Rp1850
sg1
((dp1851
I0
I9
sI1
I1
sI2
tp1852
Rp1853
g5
(S'b3599ooiikak0e02qj2b3pfrj9paspfmvm000000'
p1854
tp1855
Rp1856
sg1
((dp1857
I0
I164
sI2
tp1858
Rp1859
g5
(S'801h312ac9npq3eo'
p1860
tp1861
Rp1862
sg1
((dp1863
I0
I53
sI1
I5
sI2
tp1864
Rp1865
g5
(S'g3vb6o'
p1866
tp1867
Rp1868
sg1
((dp1869
I0
I41
sI1
I4
sI2
tp1870
Rp1871
g5
(S'5isu39qicvqf0uu1jomhq0em21pa'
p1872
tp1873
Rp1874
sg1
((dp1875
I0
I2
sI1
I5
sI2
tp1876
Rp1877
g5
(S'sgdimih080'
p1878
tp1879
Rp1880
sg1
((dp1881
I0
I19
sI2
tp1882
Rp1883
g5
(S'6rnh3qn1oh1pv5qabkofpjefbf24n4k6vsc3l9tpl000000'
p1884
tp1885
Rp1886
sg1
((dp1887
I0
I96
sI1
I3
sI2
tp1888
Rp1889
g5
(S'-3m91c01egg6ajjq2te1v5hr3hv6rfju7ul3gc03'
p1890
tp1891
Rp1892
sg1
((dp1893
I0
I4
sI1
I1
sI2
tp1894
Rp1895
g5
(S'-55sigcid5rd9dk9liorkhjel9c1aiv0000000'
p1896
tp1897
Rp1898
sg1
((dp1899
I0
I123
sI1
I1
sI2
tp1900
Rp1901
g5
(S'47il8vij9pee91ng1m4parr1p76j5c8dqherqhau4'
p1902
tp1903
Rp1904
sg1
((dp1905
I0
I84
sI1
I2
sI2
tp1906
Rp1907
g5
(S'-o00vo7o04hfnen8qpstkrqvf61pub3ns6dhi4fqn82442lr'
p1908
tp1909
Rp1910
sg1
((dp1911
I0
I99
sI1
I3
sI2
tp1912
Rp1913
g5
(S'14rff56g09bqljljk67mlr5mc2s82egb9654hjg'
p1914
tp1915
Rp1916
sg1
((dp1917
I0
I87
sI1
I2
sI2
tp1918
Rp1919
g5
(S'5ol34mv4vmudlokhsq0s1o1gtjh4s0nu8qgj0m107lonh3g'
p1920
tp1921
Rp1922
sg1
((dp1923
I0
I72
sI1
I1
sI2
tp1924
Rp1925
g5
(S'1ogg3g7d9jkk8jqols1tmhjm1t9ojanqbd1esctikr4a078u9ui'
p1926
tp1927
Rp1928
sg1
((dp1929
I0
I111
sI2
tp1930
Rp1931
g5
(S'c7mv3mr7j9d1f0436pc2sr195aac22l3l1pgshv5o94mp8g'
p1932
tp1933
Rp1934
sg1
((dp1935
I0
I63
sI1
I4
sI2
tp1936
Rp1937
g5
(S'sknaokdgh5at4orcmouu0829o80'
p1938
tp1939
Rp1940
sg1
((dp1941
I0
I3
sI1
I1
sI2
tp1942
Rp1943
g5
(S'aadavjg3j63fb8ntsm48ce2tno81g0000000'
p1944
tp1945
Rp1946
sg1
((dp1947
I0
I157
sI2
tp1948
Rp1949
g5
(S'f1g1cp7skdafn798aiqsdl99g'
p1950
tp1951
Rp1952
sg1
((dp1953
I0
I21
sI1
I2
sI2
tp1954
Rp1955
g5
(S'17l317tmub0u74fhpnv1ie9v25564pka4ssei62gpf0'
p1956
tp1957
Rp1958
sg1
((dp1959
I0
I24
sI1
I5
sI2
tp1960
Rp1961
g5
(S'-6nidgao4skf2nam2'
p1962
tp1963
Rp1964
sg1
((dp1965
I0
I28
sI1
I2
sI2
tp1966
Rp1967
g5
(S'-1vbdmghkjkbe4u1lovonrqdsvf4o4got1opghhg4139no'
p1968
tp1969
Rp1970
sg1
((dp1971
I0
I12
sI1
I4
sI2
tp1972
Rp1973
g5
(S'1s31lv6nno8794g4h01h020'
p1974
tp1975
Rp1976
sg1
((dp1977
I0
I118
sI1
I3
sI2
tp1978
Rp1979
g5
(S'-10nh6djlcf44fi1j6f962hk1omvr59a0d3i'
p1980
tp1981
Rp1982
sg1
((dp1983
I0
I145
sI1
I1
sI2
tp1984
Rp1985
g5
(S'1cd8n297pj9lfb61u9cgue1cr4re2di'
p1986
tp1987
Rp1988
sg1
((dp1989
I0
I106
sI1
I2
sI2
tp1990
Rp1991
g5
(S'-83aq97ck5navgsp06ftknfs68u50nabt18r4146kt1p'
p1992
tp1993
Rp1994
sg1
((dp1995
I0
I121
sI1
I3
sI2
tp1996
Rp1997
g5
(S'1a0u9iiabjljkg6v12te03aotquv4uesbg'
p1998
tp1999
Rp2000
sg1
((dp2001
I0
I12
sI2
tp2002
Rp2003
g5
(S'-lvndd5npvugsg0ja7f2cq1b9t7ic53jh4i4r00000000'
p2004
tp2005
Rp2006
sg1
((dp2007
I0
I5
sI1
I1
sI2
tp2008
Rp2009
g5
(S'22fgdejjh2ue2qs7ueqprslt0bse472c000000'
p2010
tp2011
Rp2012
sg1
((dp2013
I0
I109
sI1
I2
sI2
tp2014
Rp2015
g5
(S'e8p84hce7a2fg222p2fkvdlhn3ou2rorcubrftpomi'
p2016
tp2017
Rp2018
sg1
((dp2019
I0
I94
sI1
I1
sI2
tp2020
Rp2021
g5
(S'-61hpo7gff8q1gor30rv01dpnb9ki3rn5j5jhnpuindhbugl7'
p2022
tp2023
Rp2024
sg1
((dp2025
I0
I58
sI2
tp2026
Rp2027
g5
(S'-1foj360rf6qd2p72idk384iqok5ecl1g80itlb51noc2ljrhi72e0'
p2028
tp2029
Rp2030
sg1
((dp2031
I0
I31
sI1
I2
sI2
tp2032
Rp2033
g5
(S'q7offt7475f3f04inlm9bi8r5a3sijsr2ban8m6gi0nu0'
p2034
tp2035
Rp2036
sg1
((dp2037
I0
I85
sI1
I4
sI2
tp2038
Rp2039
g5
(S'gjjvc6t3biahdeentdr4fp2'
p2040
tp2041
Rp2042
sg1
((dp2043
I0
I46
sI1
I5
sI2
tp2044
Rp2045
g5
(S'-ml4830uul12fm'
p2046
tp2047
Rp2048
sg1
((dp2049
I0
I104
sI2
tp2050
Rp2051
g5
(S'-2cft92jds0a9660sdi41gncdub8m2blcrusosrmsb69d9t19g'
p2052
tp2053
Rp2054
sg1
((dp2055
I1
I1
sI2
tp2056
Rp2057
g5
(S'-7h77uivgtsdtrivhqdnadoh0pg0000000'
p2058
tp2059
Rp2060
sg1
((dp2061
I0
I150
sI2
tp2062
Rp2063
g5
(S'-65gi7u41ojgcquk6dm2n5sv325670h0'
p2064
tp2065
Rp2066
sg1
((dp2067
I0
I140
sI1
I3
sI2
tp2068
Rp2069
g5
(S'-plv1h9kde79bnbqaov1938sd4'
p2070
tp2071
Rp2072
sg1
((dp2073
I0
I39
sI1
I1
sI2
tp2074
Rp2075
g5
(S'-7b199j1l41dfkm05a9plgrgrrd8emfqd783ikus0uj7i65im0'
p2076
tp2077
Rp2078
sg1
((dp2079
I0
I128
sI1
I2
sI2
tp2080
Rp2081
g5
(S'-f0pi35m0leekhgg3lahco1d4vfiin2po5gi'
p2082
tp2083
Rp2084
sg1
((dp2085
I0
I143
sI1
I3
sI2
tp2086
Rp2087
g5
(S'20i48lmra2u09o9qc1pbkji0'
p2088
tp2089
Rp2090
sg1
((dp2091
I0
I26
sI1
I3
sI2
tp2092
Rp2093
g5
(S'-3m5ss5goabqg9798kjmd7vmtsdjrals4m99'
p2094
tp2095
Rp2096
sg1
((dp2097
I0
I131
sI1
I2
sI2
tp2098
Rp2099
g5
(S'3qspusso1vg0fiogrhm8dv7rhhv3f7r8n8'
p2100
tp2101
Rp2102
sg1
((dp2103
I0
I116
sI1
I1
sI2
tp2104
Rp2105
g5
(S'-gbqgtgqtejnqn0rkni7u10po8lkt5qvh1l9llfc3gq7'
p2106
tp2107
Rp2108
sg1
((dp2109
I0
I11
sI1
I2
sI2
tp2110
Rp2111
g5
(S'cscep26o9n8k360o3r93t3lnuh9kos2aseq000'
p2112
tp2113
Rp2114
sg1
((dp2115
I0
I107
sI1
I4
sI2
tp2116
Rp2117
g5
(S'16hpqd1o0s'
p2118
tp2119
Rp2120
sg1
((dp2121
I0
I14
sI1
I2
sI2
tp2122
Rp2123
g5
(S'-27qi2fqb4qer0v4fb37giqhcpjb0fq5og6a44o00'
p2124
tp2125
Rp2126
sg1
((dp2127
I0
I56
sI1
I4
sI2
tp2128
Rp2129
g5
(S'269k3gvkd7r20rmh4isvjvb3lva4'
p2130
tp2131
Rp2132
sg1
((dp2133
I0
I51
sI2
tp2134
Rp2135
g5
(S'jua4min82dgn171pkpnebugregnecmd02kq9svuopucu7n32m8gg'
p2136
tp2137
Rp2138
sg1
((dp2139
I0
I34
sI1
I4
sI2
tp2140
Rp2141
g5
(S'm8576nifs1esu6i55v9i04m8g3v'
p2142
tp2143
Rp2144
sg1
((dp2145
I0
I29
sI1
I3
sI2
tp2146
Rp2147
g5
(S'-4rbvp7ovqogv726gs4heifbsiftlelvjt8hq'
p2148
tp2149
Rp2150
sg1
((dp2151
I0
I97
sI2
tp2152
Rp2153
g5
(S'5h9mlaaloibuku0kc6d7cb1eesa3nit8ea4h2n1fmug90eoq18'
p2154
tp2155
Rp2156
sg1
((dp2157
I0
I2
sI1
I1
sI2
tp2158
Rp2159
g5
(S'-fce39fhigamhdg1iv1p489nqnc9h0000000'
p2160
tp2161
Rp2162
sg1
((dp2163
I0
I61
sI1
I1
sI2
tp2164
Rp2165
g5
(S'-4rkbfg0kdoasfp7vsh1sq69h5fbtst7o31p08l541v199vob5ua'
p2166
tp2167
Rp2168
sg1
((dp2169
I0
I150
sI1
I2
sI2
tp2170
Rp2171
g5
(S'-2jfrlvc9fv52jcl2va7omjgv'
p2172
tp2173
Rp2174
sg1
((dp2175
I0
I165
sI1
I3
sI2
tp2176
Rp2177
g5
(S'1m4k'
p2178
tp2179
Rp2180
sg1
((dp2181
I0
I153
sI1
I2
sI2
tp2182
Rp2183
g5
(S'52qgmncvb60l12hqcsnr2q'
p2184
tp2185
Rp2186
sg1
((dp2187
I0
I138
sI1
I1
sI2
tp2188
Rp2189
g5
(S'junbe9da10ukqgpqs55j01ro7p3t271gtj'
p2190
tp2191
Rp2192
sg1
((dp2193
I0
I48
sI2
tp2194
Rp2195
g5
(S'-agj409m827lstobidbp4l6vtgtgv671n3vupniuan638ujr7sbvg'
p2196
tp2197
Rp2198
sg1
((dp2199
I0
I143
sI2
tp2200
Rp2201
g5
(S'hu4gletgtq45t73njqfaenjll5c1nt9dnlg'
p2202
tp2203
Rp2204
sg1
((dp2205
I0
I17
sI1
I2
sI2
tp2206
Rp2207
g5
(S'6k2l1gn6e45rn6899pc0vl0v0i51kq0mg11er90g0'
p2208
tp2209
Rp2210
sg1
((dp2211
I0
I1
sI1
I4
sI2
tp2212
Rp2213
g5
(S'ik62igmiitod1fo00'
p2214
tp2215
Rp2216
sg1
((dp2217
I0
I78
sI1
I4
sI2
tp2218
Rp2219
g5
(S'1lntuers96h4ha57hgk6tdbh92'
p2220
tp2221
Rp2222
sg1
((dp2223
I0
I56
sI1
I3
sI2
tp2224
Rp2225
g5
(S'-pde5tuik8ri5akocq5666qgvtn46odvokedlr9a'
p2226
tp2227
Rp2228
sg1
((dp2229
I0
I83
sI1
I1
sI2
tp2230
Rp2231
g5
(S'-1578hjoeuego9obohftg71544o0pqd2q1ab76lqor55h4pc3ug'
p2232
tp2233
Rp2234
sg1
((dp2235
I0
I44
sI1
I2
sI2
tp2236
Rp2237
g5
(S'-25fk12dk222rocn0u8qp99fhom14qh3k56ot00b5uscadlkm'
p2238
tp2239
Rp2240
sg1
((dp2241
I0
I59
sI1
I3
sI2
tp2242
Rp2243
g5
(S'jkkk4jl4eej3t5n9ebqokp23qcafhrg93kb1e10'
p2244
tp2245
Rp2246
sg1
((dp2247
I0
I44
sI2
tp2248
Rp2249
g5
(S'-3d5ne4atjf46h99npam5smb9kkbv7u6q9i8mj8h5vfm87598g8h0'
p2250
tp2251
Rp2252
sg1
((dp2253
I0
I12
sI1
I3
sI2
tp2254
Rp2255
g5
(S'bis6n3vqr9t5r75r64ihov0dfre7e00'
p2256
tp2257
Rp2258
sg1
((dp2259
I0
I47
sI1
I2
sI2
tp2260
Rp2261
g5
(S'6tnf4mj2ud5djg4lenmhppkukhqpdsrm1duon2n75dkngp60'
p2262
tp2263
Rp2264
sg1
((dp2265
I0
I160
sI1
I1
sI2
tp2266
Rp2267
g5
(S'-73590l86m5gv9j71rpf9'
p2268
tp2269
Rp2270
sg1
((dp2271
I0
I90
sI2
tp2272
Rp2273
g5
(S'-56tm78clapaeln4m0nt1l70k0fr1soir7k1hl0u51l8km553iug'
p2274
tp2275
Rp2276
sg1
((dp2277
I0
I35
sI1
I5
sI2
tp2278
Rp2279
g5
(S'-5vgpo9lm4ftcf9qk'
p2280
tp2281
Rp2282
sg1
((dp2283
I0
I23
sI1
I4
sI2
tp2284
Rp2285
g5
(S'-2g4k5403i5o9a96ke8prmshgf0'
p2286
tp2287
Rp2288
sg1
((dp2289
I0
I3
sI1
I3
sI2
tp2290
Rp2291
g5
(S'-9m9r92fq3fcl718chm1dc5g000'
p2292
tp2293
Rp2294
sg1
((dp2295
I1
I2
sI2
tp2296
Rp2297
g5
(S'-1mbil8dhc8q53tvb9alqk9qtm00000'
p2298
tp2299
Rp2300
sg1
((dp2301
I0
I136
sI2
tp2302
Rp2303
g5
(S'-31kjf94s9osdf2p5915bp3lubk161l17bjfu8g8'
p2304
tp2305
Rp2306
sg1
((dp2307
I0
I38
sI1
I5
sI2
tp2308
Rp2309
g5
(S'-eu2ufl0phm9eeu2'
p2310
tp2311
Rp2312
sg1
((dp2313
I0
I15
sI1
I3
sI2
tp2314
Rp2315
g5
(S'-e5mf25h2ds02apc5ors4u8jgqcbag2o0'
p2316
tp2317
Rp2318
sg1
((dp2319
I0
I78
sI1
I3
sI2
tp2320
Rp2321
g5
(S'gejqfe8giqs7121tda4p5m2teeams973omfdv1m'
p2322
tp2323
Rp2324
sg1
((dp2325
I0
I2
sI2
tp2326
Rp2327
g5
(S'-cts28glttotbtomvaucp6suh05420000000000'
p2328
tp2329
Rp2330
sg1
((dp2331
I0
I105
sI1
I1
sI2
tp2332
Rp2333
g5
(S'9til7m20r9hsoi53aq48ub2fd7tj68j8u62fda6ucfhph2'
p2334
tp2335
Rp2336
sg1
((dp2337
I0
I66
sI1
I2
sI2
tp2338
Rp2339
g5
(S'-2i05ea29q3637bm9788gnj1kka1fqqf16t26tba9qr7mdp0ah'
p2340
tp2341
Rp2342
sg1
((dp2343
I0
I81
sI1
I3
sI2
tp2344
Rp2345
g5
(S'-1omd2ft54c7s8aak6d8qi4mq67geeln3uha75fdg'
p2346
tp2347
Rp2348
sg1
((dp2349
I0
I69
sI1
I2
sI2
tp2350
Rp2351
g5
(S'1rc4q6vabqglen39dc0fs0s8vjoakf8c03bqn46jpt8micb5s'
p2352
tp2353
Rp2354
sg1
((dp2355
I0
I54
sI1
I1
sI2
tp2356
Rp2357
g5
(S'2ae40hllqq3p2v1sfce4bmi1lk3jic83ovqcl2l30a8jbceeug9'
p2358
tp2359
Rp2360
sg1
((dp2361
I0
I37
sI2
tp2362
Rp2363
g5
(S'6i6r32kod9227cumpeitf64u130bkep7nfgr2dden15idvmtc00'
p2364
tp2365
Rp2366
sg1
((dp2367
I0
I3
sI1
I2
sI2
tp2368
Rp2369
g5
(S'3dr1d7d4jbnb2dsgidsidd2i6ko680000'
p2370
tp2371
Rp2372
sg1
((dp2373
I0
I45
sI1
I4
sI2
tp2374
Rp2375
g5
(S'-77dk7l2mt3c4f05kmigtlq4uokde'
p2376
tp2377
Rp2378
sg1
((dp2379
I0
I6
sI1
I5
sI2
tp2380
Rp2381
g5
(S'-kf5snaktiql8'
p2382
tp2383
Rp2384
sg1
((dp2385
I0
I83
sI2
tp2386
Rp2387
g5
(S'24qlm8cb4t33ldmqna7oepp971jb1e5dvb61kuea53o3l4ablr0g'
p2388
tp2389
Rp2390
sg1
((dp2391
I0
I100
sI1
I3
sI2
tp2392
Rp2393
g5
(S'-n8kqcralf9l4emlc5lbq7i894j8fk6k0vje9rl'
p2394
tp2395
Rp2396
sg1
((dp2397
I0
I127
sI1
I1
sI2
tp2398
Rp2399
g5
(S'du7dj7uf5u8muk72mm1s27rdfcf6sph77dmo9k0'
p2400
tp2401
Rp2402
sg1
((dp2403
I0
I88
sI1
I2
sI2
tp2404
Rp2405
g5
(S'-3e5chhe4nfn21h6ku2bn6rho1nl8ta9f3btoqvdqqa19qt5'
p2406
tp2407
Rp2408
sg1
((dp2409
I0
I103
sI1
I3
sI2
tp2410
Rp2411
g5
(S'4q6051q0vchbb1l3af378v1vsbj4vb4rt5g89o'
p2412
tp2413
Rp2414
sg1
((dp2415
I0
I91
sI1
I2
sI2
tp2416
Rp2417
g5
(S'kk9s7kfk43tm7tuuib4h1i2nb9kr91k0hp3s26sj9i72ds'
p2418
tp2419
Rp2420
sg1
((dp2421
I0
I13
sI1
I3
sI2
tp2422
Rp2423
g5
(S'-1bvtp7ksshcfrum1to1er89drfddrug0'
p2424
tp2425
Rp2426
sg1
((dp2427
I0
I76
sI1
I1
sI2
tp2428
Rp2429
g5
(S'k26ut7lmkr9o0vdtbt4lu8o2hb8gvjo4tpmuprf4i2o1k6dvp6'
p2430
tp2431
Rp2432
sg1
((dp2433
I0
I5
sI2
tp2434
Rp2435
g5
(S'17putfcv9d8i2vqr9l3bhu56p42fvmhb800000000'
p2436
tp2437
Rp2438
sg1
((dp2439
I0
I32
sI1
I2
sI2
tp2440
Rp2441
g5
(S'-1ptkcf66806etjd2rv9pfnt89h0i13mre5peel0rcddqrs'
p2442
tp2443
Rp2444
sg1
((dp2445
I0
I67
sI1
I4
sI2
tp2446
Rp2447
g5
(S'q99ubb1jlgmm0o6m2e4paut7qqc'
p2448
tp2449
Rp2450
sg1
((dp2451
I0
I25
sI1
I1
sI2
tp2452
Rp2453
g5
(S'9b7j4tv80892kn014csrievegfc18hlbq1b0suekln2g00'
p2454
tp2455
Rp2456
sg1
((dp2457
I0
I28
sI1
I5
sI2
tp2458
Rp2459
g5
(S'9sp8ihci1dlfn340'
p2460
tp2461
Rp2462
sg1
((dp2463
I0
I30
sI2
tp2464
Rp2465
g5
(S'-3ikfebmmuven8lnjmsm3l5kr51414os67aj7k7r128kluj0000'
p2466
tp2467
Rp2468
sg1
((dp2469
I0
I16
sI1
I4
sI2
tp2470
Rp2471
g5
(S'-1ubi2397h8rf9kklu7qgg7oa'
p2472
tp2473
Rp2474
sg1
((dp2475
I0
I1
sI1
I3
sI2
tp2476
Rp2477
g5
(S'-k9bmp9spgrdq1pmhdp8ig000'
p2478
tp2479
Rp2480
sg1
((dp2481
I0
I122
sI1
I3
sI2
tp2482
Rp2483
g5
(S'-df6gba7nkca96ok4lhbot615qdvecge2n'
p2484
tp2485
Rp2486
sg1
((dp2487
I0
I149
sI1
I1
sI2
tp2488
Rp2489
g5
(S'sa779me66sjvddtnr9hkr3uq7ako'
p2490
tp2491
Rp2492
sg1
((dp2493
I0
I110
sI1
I2
sI2
tp2494
Rp2495
g5
(S'-5559aeeo5rpd08gdfqlg1l20hnah1pbsheo8nsd6kb'
p2496
tp2497
Rp2498
sg1
((dp2499
I0
I125
sI1
I3
sI2
tp2500
Rp2501
g5
(S'bie3gt8klq4jsbfva1k146q053f68fog'
p2502
tp2503
Rp2504
sg1
((dp2505
I0
I76
sI2
tp2506
Rp2507
g5
(S'-d5cjkhnodv1r96jokfhq0h44k3omjijstp04ltidsb2ic792mqe0'
p2508
tp2509
Rp2510
sg1
((dp2511
I0
I113
sI1
I2
sI2
tp2512
Rp2513
g5
(S'6lckscrle6l7spgqboe7bnm2sfo42l0i4sr9pb8go'
p2514
tp2515
Rp2516
sg1
((dp2517
I0
I98
sI1
I1
sI2
tp2518
Rp2519
g5
(S'-tesnqmgonhrt594tj5g7i4ethck0t36jkfvbg4d8tp4uak5'
p2520
tp2521
Rp2522
sg1
((dp2523
I0
I122
sI2
tp2524
Rp2525
g5
(S'-9t832csm9bcvm1cl2gfc9ih7kdakols43oq9arvdbpj0'
p2526
tp2527
Rp2528
sg1
((dp2529
I0
I89
sI1
I4
sI2
tp2530
Rp2531
g5
(S'4d1ulum50mig6musb36g7g'
p2532
tp2533
Rp2534
sg1
((dp2535
I0
I50
sI1
I5
sI2
tp2536
Rp2537
g5
(S'-losqo7mljl'
p2538
tp2539
Rp2540
sg1
((dp2541
I0
I38
sI1
I4
sI2
tp2542
Rp2543
g5
(S'-69huodm795n4f2tv8uvn7ec09nc'
p2544
tp2545
Rp2546
sg1
((dp2547
I0
I13
sI1
I2
sI2
tp2548
Rp2549
g5
(S'dp2sn5erarifqfkdmulgjftblr8ekm97677lg00'
p2550
tp2551
Rp2552
sg1
((dp2553
I0
I144
sI1
I3
sI2
tp2554
Rp2555
g5
(S'-7n42d0kfl9pf8sj5mhp47fn'
p2556
tp2557
Rp2558
sg1
((dp2559
I0
I163
sI2
tp2560
Rp2561
g5
(S'3gv7dbvjdj8mt9b72g'
p2562
tp2563
Rp2564
sg1
((dp2565
I0
I132
sI1
I2
sI2
tp2566
Rp2567
g5
(S'-n1n65n008qrl5mnkf22j38bv4vuavcd25'
p2568
tp2569
Rp2570
sg1
((dp2571
I0
I147
sI1
I3
sI2
tp2572
Rp2573
g5
(S'93cug891fm2m8gjepqk74'
p2574
tp2575
Rp2576
sg1
((dp2577
I0
I23
sI2
tp2578
Rp2579
g5
(S'cvtld78d0ldfp4d02tq0lh892l3m1dfqbuj9l3u2tos00000'
p2580
tp2581
Rp2582
sg1
((dp2583
I0
I135
sI1
I2
sI2
tp2584
Rp2585
g5
(S'3ia53sv9m6cgfp2ej1nl2ch4258snbhg'
p2586
tp2587
Rp2588
sg1
((dp2589
I0
I120
sI1
I1
sI2
tp2590
Rp2591
g5
(S'-5oki26vje5ktn8jd3l75bvaancd7m99fqsb9ilm26c'
p2592
tp2593
Rp2594
sg1
((dp2595
I0
I69
sI2
tp2596
Rp2597
g5
(S'16m9bkltp6vhafksce01ci6n0vllcedajqe4kr94t6s7k55gehh88'
p2598
tp2599
Rp2600
sg1
((dp2601
I0
I75
sI1
I1
sI2
tp2602
Rp2603
g5
(S'-qu0skm42h7amos3l4t0fl8s45j617asgde6pn2pb2a407ffj7c'
p2604
tp2605
Rp2606
sg1
((dp2607
I0
I130
sI2
tp2608
Rp2609
g5
(S'-icqd4ijhubq9u6p3itis5tousbbvcess3rcarv4ko'
p2610
tp2611
Rp2612
sg1
((dp2613
I0
I60
sI1
I4
sI2
tp2614
Rp2615
g5
(S'4l6caj3qhcv6r728v2f6gfblu4je'
p2616
tp2617
Rp2618
sg1
((dp2619
I0
I115
sI2
tp2620
Rp2621
g5
(S'bl2alq3kkrcdkqmn9r0bg7gfuh83t5iigj0ml5kqlsimng'
p2622
tp2623
Rp2624
sg1
((dp2625
I0
I166
sI1
I3
sI2
tp2626
Rp2627
g5
(S'-57'
p2628
tp2629
Rp2630
sg1
((dp2631
I0
I65
sI1
I1
sI2
tp2632
Rp2633
g5
(S'-4hrtjsth3i9e6uk0b0pif2tgv81d9jujmv8nfo6t970c685pl8m'
p2634
tp2635
Rp2636
sg1
((dp2637
I0
I154
sI1
I2
sI2
tp2638
Rp2639
g5
(S'-8mvr4td0gnv6v6vihka4p'
p2640
tp2641
Rp2642
sg1
((dp2643
I0
I41
sI1
I3
sI2
tp2644
Rp2645
g5
(S'6rdq8karcpq61s2d3tpg72h7mob7eriaq33g2u'
p2646
tp2647
Rp2648
sg1
((dp2649
I0
I157
sI1
I2
sI2
tp2650
Rp2651
g5
(S'-37lsskl57cvev2efg9i'
p2652
tp2653
Rp2654
sg1
((dp2655
I0
I142
sI1
I1
sI2
tp2656
Rp2657
g5
(S'3a8hi2ms7c33cvpqsi0qvkcts9pi19db'
p2658
tp2659
Rp2660
sg1
((dp2661
I0
I17
sI1
I5
sI2
tp2662
Rp2663
g5
(S'6hg1oj7448i5622'
p2664
tp2665
Rp2666
sg1
((dp2667
I0
I16
sI2
tp2668
Rp2669
g5
(S'-617feqamv7a0c43p3mhrgr1p6e6ddd5577ju2op8000000'
p2670
tp2671
Rp2672
sg1
((dp2673
I0
I34
sI1
I2
sI2
tp2674
Rp2675
g5
(S'-7vkbh8kli7r6bpp5dduvafc52rs7coi1omphm4kls7iffa'
p2676
tp2677
Rp2678
sg1
((dp2679
I0
I62
sI2
tp2680
Rp2681
g5
(S'-1mqt9tfrr21j7g8p1uocnb2hsj96k8qdh4k5ou02snl4qrqq8i96o'
p2682
tp2683
Rp2684
sg1
((dp2685
I0
I9
sI1
I2
sI2
tp2686
Rp2687
g5
(S'8erell32ehm74atcj36cjldqjfmdmrgnb8000'
p2688
tp2689
Rp2690
sg1
((dp2691
I0
I82
sI1
I4
sI2
tp2692
Rp2693
g5
(S'dcdg7tj7jbt20q5v1njs5c9q'
p2694
tp2695
Rp2696
sg1
((dp2697
I0
I60
sI1
I3
sI2
tp2698
Rp2699
g5
(S'-4mdhr65mo70j0ri45u0tjt52j8gi0s6mgd38l7c'
p2700
tp2701
Rp2702
sg1
((dp2703
I0
I87
sI1
I1
sI2
tp2704
Rp2705
g5
(S'-2dpehe2oae1sfu8s869mt50hkp5aa6bmq9o6dl3devc69pplo'
p2706
tp2707
Rp2708
sg1
((dp2709
I0
I48
sI1
I2
sI2
tp2710
Rp2711
g5
(S'-9mg0t9p504ivacv2kgifbjrc4llngaas9oi6vn3qvgdorean'
p2712
tp2713
Rp2714
sg1
((dp2715
I0
I63
sI1
I3
sI2
tp2716
Rp2717
g5
(S'-1sj8vi7nvqq90s4q57jvcspam0uurr7i648adv20'
p2718
tp2719
Rp2720
sg1
((dp2721
I0
I108
sI2
tp2722
Rp2723
g5
(S'-46o67lg7chfb373p2qsglv0sa8hjtpte394076mqt29gcot0'
p2724
tp2725
Rp2726
sg1
((dp2727
I0
I162
sI1
I3
sI2
tp2728
Rp2729
g5
(S'-22ppv00i'
p2730
tp2731
Rp2732
sg1
((dp2733
I0
I51
sI1
I2
sI2
tp2734
Rp2735
g5
(S'n18d1oasrfu71nl0j752am73h692v7d2ib0g20pbbprk9sic'
p2736
tp2737
Rp2738
sg1
((dp2739
I0
I164
sI1
I1
sI2
tp2740
Rp2741
g5
(S'-3csdpsu1snqak7'
p2742
tp2743
Rp2744
sg1
((dp2745
I0
I154
sI2
tp2746
Rp2747
g5
(S'-5m3vn53thd01p2mtrsbt5e5cfmkg'
p2748
tp2749
Rp2750
sg1
((dp2751
I0
I39
sI1
I5
sI2
tp2752
Rp2753
g5
(S'10s2uq3pjab88h50'
p2754
tp2755
Rp2756
sg1
((dp2757
I0
I27
sI1
I4
sI2
tp2758
Rp2759
g5
(S'5bo4i9j1g8pr1lh2t37lbiapqo'
p2760
tp2761
Rp2762
sg1
((dp2763
I0
I22
sI1
I2
sI2
tp2764
Rp2765
g5
(S'-420onhef33lk2og7p9sj5a4n81sokpefetrbm9mr1fg'
p2766
tp2767
Rp2768
sg1
((dp2769
I0
I104
sI1
I4
sI2
tp2770
Rp2771
g5
(S'-119m21jnom5uo'
p2772
tp2773
Rp2774
sg1
((dp2775
I0
I37
sI1
I3
sI2
tp2776
Rp2777
g5
(S'kipqv5jknlhdvu9j4po5abe4vvkchvk65qemg'
p2778
tp2779
Rp2780
sg1
((dp2781
I0
I82
sI1
I3
sI2
tp2782
Rp2783
g5
(S'1mcmvocl1fsu9ol4mg0nrr7up2kupovq46j6so7c'
p2784
tp2785
Rp2786
sg1
((dp2787
I0
I109
sI1
I1
sI2
tp2788
Rp2789
g5
(S'cr8kcvfen2nl546qvfukhfvash7m27npg74cs4righajc'
p2790
tp2791
Rp2792
sg1
((dp2793
I0
I70
sI1
I2
sI2
tp2794
Rp2795
g5
(S'-1j5c8ksi242eed9804qetn3odngsnjl7mncjd9a7qvg88f19d'
p2796
tp2797
Rp2798
sg1
((dp2799
I0
I85
sI1
I3
sI2
tp2800
Rp2801
g5
(S'-nq5b7hg5o9hb6n6sn6nana4agh082o067r0goee'
p2802
tp2803
Rp2804
sg1
((dp2805
I0
I55
sI2
tp2806
Rp2807
g5
(S'14c2vvukb33c5imoh2kat79fe3kps551hiu7hhpcb1jj669li3qrg'
p2808
tp2809
Rp2810
sg1
((dp2811
I0
I73
sI1
I2
sI2
tp2812
Rp2813
g5
(S'sul1dulv5rmp54e9l6lvmmn640kaq6huoanlmvpn96ebcrcc'
p2814
tp2815
Rp2816
sg1
((dp2817
I0
I58
sI1
I1
sI2
tp2818
Rp2819
g5
(S'41rrl9tfumq2mr43j3kiuqtrnalpopmg6c4a4t3str34dchjj1n'
p2820
tp2821
Rp2822
sg1
((dp2823
I0
I101
sI2
tp2824
Rp2825
g5
(S'gvpvc8reseeeckr6stv457aq7o6e66r25c6pv9p3uemki7q80'
p2826
tp2827
Rp2828
sg1
((dp2829
I0
I25
sI1
I2
sI2
tp2830
Rp2831
g5
(S'3d9b3ceiu7nqgl2e39f89av0a6u0sf97vgilsr4pt3fg'
p2832
tp2833
Rp2834
sg1
((dp2835
I0
I49
sI1
I4
sI2
tp2836
Rp2837
g5
(S'-2rcm67dsg3rc7ufidam4q68tg0u8'
p2838
tp2839
Rp2840
sg1
((dp2841
I0
I5
sI1
I2
sI2
tp2842
Rp2843
g5
(S'sufl9c9ioeqpnmtefnhrlrt7318ecm0000'
p2844
tp2845
Rp2846
sg1
((dp2847
I0
I38
sI1
I3
sI2
tp2848
Rp2849
g5
(S'-1hgnkl3b6vuf956lrguva5mc4aml8rtag4sf26'
p2850
tp2851
Rp2852
sg1
((dp2853
I0
I10
sI1
I5
sI2
tp2854
Rp2855
g5
(S'1ui04dm92ir2iv'
p2856
tp2857
Rp2858
sg1
((dp2859
I0
I147
sI2
tp2860
Rp2861
g5
(S'5i6h6vu24ds60tgfua04iolp9s6em36ng'
p2862
tp2863
Rp2864
sg1
((dp2865
I0
I104
sI1
I3
sI2
tp2866
Rp2867
g5
(S'-2lmd8m19mqat06f4tttum29j8dkr9bddb3873t'
p2868
tp2869
Rp2870
sg1
((dp2871
I0
I131
sI1
I1
sI2
tp2872
Rp2873
g5
(S'2kqe4n2dnu2i781o95f6hn71det279c8qev98'
p2874
tp2875
Rp2876
sg1
((dp2877
I0
I92
sI1
I2
sI2
tp2878
Rp2879
g5
(S'-ba5k4l4u6oml8s0of31geuu9df1goukkandicnr1b2eo9v'
p2880
tp2881
Rp2882
sg1
((dp2883
I0
I107
sI1
I3
sI2
tp2884
Rp2885
g5
(S'c919uq7knarggfeg92feeesiuvsqlk2m6pah8'
p2886
tp2887
Rp2888
sg1
((dp2889
I0
I20
sI1
I3
sI2
tp2890
Rp2891
g5
(S'-s5n4dkc7e14t4ohrb3b6fcqs0b786u6li'
p2892
tp2893
Rp2894
sg1
((dp2895
I0
I95
sI1
I2
sI2
tp2896
Rp2897
g5
(S'1khkl89vrnp4sidvccfdli4dkapstuikk8iee1ot8d6gq0'
p2898
tp2899
Rp2900
sg1
((dp2901
I0
I80
sI1
I1
sI2
tp2902
Rp2903
g5
(S'4ocihk21vkfsur4djrlamr1i2u7a4ser1gmda6m06nhov9bmje'
p2904
tp2905
Rp2906
sg1
((dp2907
I0
I71
sI1
I4
sI2
tp2908
Rp2909
g5
(S'-eq45adeh71rlodpq857c05vbe0'
p2910
tp2911
Rp2912
sg1
((dp2913
I0
I32
sI1
I5
sI2
tp2914
Rp2915
g5
(S'-8bbsouisscitac66'
p2916
tp2917
Rp2918
sg1
((dp2919
I0
I94
sI2
tp2920
Rp2921
g5
(S'-qg0jo91nrk4tm681c3epgji2a7q9nfj4vcr6jrgltdnoghqmno'
p2922
tp2923
Rp2924
sg1
((dp2925
I0
I8
sI1
I2
sI2
tp2926
Rp2927
g5
(S'-1189dmnbj42umngaqorgpp6olduhe6tngg000'
p2928
tp2929
Rp2930
sg1
((dp2931
I0
I20
sI1
I4
sI2
tp2932
Rp2933
g5
(S'-73o3akvc1rrdddvea8b3cchtt'
p2934
tp2935
Rp2936
sg1
((dp2937
I0
I13
sI1
I5
sI2
tp2938
Rp2939
g5
(S'-og5q4dur1im2oo'
p2940
tp2941
Rp2942
sg1
((dp2943
I0
I8
sI2
tp2944
Rp2945
g5
(S'-mjq2r6kci8rd2q1e8i8698bt6por6ctcni00000000'
p2946
tp2947
Rp2948
sg1
((dp2949
I0
I23
sI1
I3
sI2
tp2950
Rp2951
g5
(S'14pc5hlbtvs526sroam8g256sjkr9fbp32g'
p2952
tp2953
Rp2954
sg1
((dp2955
I0
I126
sI1
I3
sI2
tp2956
Rp2957
g5
(S'-37bdgdl7l6d2gk7thhrhgf72lju4hr2b'
p2958
tp2959
Rp2960
sg1
((dp2961
I0
I153
sI1
I1
sI2
tp2962
Rp2963
g5
(S'4a5ib879naiogkq7fbfhd73efg'
p2964
tp2965
Rp2966
sg1
((dp2967
I0
I114
sI1
I2
sI2
tp2968
Rp2969
g5
(S'-25ber8jg1uuc4iuotnop6fpsalj3qeiaa6jkvbm54'
p2970
tp2971
Rp2972
sg1
((dp2973
I0
I129
sI1
I3
sI2
tp2974
Rp2975
g5
(S'1pfc3j0hqo21p0547p6vvshcl1s20pa'
p2976
tp2977
Rp2978
sg1
((dp2979
I0
I140
sI2
tp2980
Rp2981
g5
(S'-450ui0eahr5h4jkfsi7t0eqfqurbbdivefk80'
p2982
tp2983
Rp2984
sg1
((dp2985
I0
I117
sI1
I2
sI2
tp2986
Rp2987
g5
(S'20c50nq89qa95sk5oji1ot5t2sknqm8tv0rgbm04'
p2988
tp2989
Rp2990
sg1
((dp2991
I0
I102
sI1
I1
sI2
tp2992
Rp2993
g5
(S'-2iq41e544aiogtsjlrbrtrgp99h9e7tj72ftrrcvkbaebjb'
p2994
tp2995
Rp2996
sg1
((dp2997
I0
I75
sI1
I2
sI2
tp2998
Rp2999
g5
(S'hsjfdo8shr3180oneeiu1l35f4pnn1je418o309vfptupuoo'
p3000
tp3001
Rp3002
sg1
((dp3003
I0
I93
sI1
I4
sI2
tp3004
Rp3005
g5
(S'-3hif15tevmmp2olqnk6e'
p3006
tp3007
Rp3008
sg1
((dp3009
I0
I54
sI1
I5
sI2
tp3010
Rp3011
g5
(S'-7i5r'
p3012
tp3013
Rp3014
sg1
((dp3015
I0
I41
sI2
tp3016
Rp3017
g5
(S'15jk74f0om3oogf2a8n97g7b2ubvsnsenpjhgtjme98tobf10ak0'
p3018
tp3019
Rp3020
sg1
((dp3021
I0
I42
sI1
I4
sI2
tp3022
Rp3023
g5
(S'-541nmgfk00j4a0gbjuisp0rj6kuc'
p3024
tp3025
Rp3026
sg1
((dp3027
I0
I148
sI1
I3
sI2
tp3028
Rp3029
g5
(S'-qg8mq7f09qc8e4mok0mc'
p3030
tp3031
Rp3032
sg1
((dp3033
I0
I47
sI1
I1
sI2
tp3034
Rp3035
g5
(S'-b434qvrq1ripsbtgjodgg3fkvuk879lirdhlnq33je5buniel0'
p3036
tp3037
Rp3038
sg1
((dp3039
I0
I136
sI1
I2
sI2
tp3040
Rp3041
g5
(S'-fg944ka2ndpsglq4208usbfn65527t2'
p3042
tp3043
Rp3044
sg1
((dp3045
I0
I151
sI1
I3
sI2
tp3046
Rp3047
g5
(S'cnhijsjagnr1cob1uo'
p3048
tp3049
Rp3050
sg1
((dp3051
I0
I87
sI2
tp3052
Rp3053
g5
(S'hbr0el4el20a6q9lsqqvll00b508bupgbbqm9irp370s2ojtn88'
p3054
tp3055
Rp3056
sg1
((dp3057
I0
I139
sI1
I2
sI2
tp3058
Rp3059
g5
(S'-2c12nhobju31giaqvb2188tie59q3s'
p3060
tp3061
Rp3062
sg1
((dp3063
I0
I124
sI1
I1
sI2
tp3064
Rp3065
g5
(S'-137n7llpll7uc3onu2hljdrnvnvurnqnnop6ch22c'
p3066
tp3067
Rp3068
sg1
((dp3069
I0
I133
sI2
tp3070
Rp3071
g5
(S'8r27ticfq51jcqfh3v528be7khu4v86i9mlts2p8'
p3072
tp3073
Rp3074
sg1
((dp3075
I0
I33
sI1
I1
sI2
tp3076
Rp3077
g5
(S'-1j0c0lld0iv7k3bfafi22tgln7mh8k66qhf9nur7hel2s480'
p3078
tp3079
Rp3080
sg1
((dp3081
I0
I64
sI1
I4
sI2
tp3082
Rp3083
g5
(S'-1fd6sgje4mpf3g23qdb8u0ksrasu'
p3084
tp3085
Rp3086
sg1
((dp3087
I0
I77
sI2
tp3088
Rp3089
g5
(S'akd96f5d30dumpusof7j903ntmb3ed48cdu8fg43sc2714q35kl0'
p3090
tp3091
Rp3092
sg1
((dp3093
I0
I42
sI1
I3
sI2
tp3094
Rp3095
g5
(S'-7pa2nljes58qhkltdhsr19p8nesc0reea0n4s1'
p3096
tp3097
Rp3098
sg1
((dp3099
I0
I36
sI1
I3
sI2
tp3100
Rp3101
g5
(S'-5cvo2id9h0lns9qeulrkmqi4sbuid43h7trut'
p3102
tp3103
Rp3104
sg1
((dp3105
I0
I69
sI1
I1
sI2
tp3106
Rp3107
g5
(S'-30nbj3or3pd5gbr8rdeol28e7tpgap91clksfurjpoijucr0kdg'
p3108
tp3109
Rp3110
sg1
((dp3111
I0
I158
sI1
I2
sI2
tp3112
Rp3113
g5
(S'40qofr34ssipgrbt2j'
p3114
tp3115
Rp3116
sg1
((dp3117
I0
I45
sI1
I3
sI2
tp3118
Rp3119
g5
(S'-g15343p18mi9dl7t451qo3k0uh5df9d9ut3lro'
p3120
tp3121
Rp3122
sg1
((dp3123
I0
I161
sI1
I2
sI2
tp3124
Rp3125
g5
(S'3k1q52vtvi4bdsg'
p3126
tp3127
Rp3128
sg1
((dp3129
I0
I146
sI1
I1
sI2
tp3130
Rp3131
g5
(S'-8es2q798bf29t0vvbior3oosibg28g'
p3132
tp3133
Rp3134
sg1
((dp3135
I0
I21
sI1
I5
sI2
tp3136
Rp3137
g5
(S'-hrogl81kannftue'
p3138
tp3139
Rp3140
sg1
((dp3141
I0
I80
sI2
tp3142
Rp3143
g5
(S'-53usu7udbft2r6vk5ul567obij5np9is2fnqi0gbf5qb2upduatg'
p3144
tp3145
Rp3146
sg1
((dp3147
I0
I126
sI2
tp3148
Rp3149
g5
(S'-319o6avql275ql239urvctc33c9jm2sdll3cftaa498'
p3150
tp3151
Rp3152
sg1
((dp3153
I0
I86
sI1
I4
sI2
tp3154
Rp3155
g5
(S'-7308qgevctaba48j0le1qbi'
p3156
tp3157
Rp3158
sg1
((dp3159
I0
I34
sI1
I5
sI2
tp3160
Rp3161
g5
(S'4n4e34k99646nv8q'
p3162
tp3163
Rp3164
sg1
((dp3165
I0
I64
sI1
I3
sI2
tp3166
Rp3167
g5
(S'2bphkfu9938ckavvka3v1p6ip1ojm8mjj67pf7ns'
p3168
tp3169
Rp3170
sg1
((dp3171
I0
I91
sI1
I1
sI2
tp3172
Rp3173
g5
(S'co40abs9e44ibcr1p4b72q19gfmkig578th24fv7rru2dlbs'
p3174
tp3175
Rp3176
sg1
((dp3177
I0
I52
sI1
I2
sI2
tp3178
Rp3179
g5
(S'-ta0adcqtts6debc6dm0k26o5i57kc9mv9lu2amd48stpeg6v'
p3180
tp3181
Rp3182
sg1
((dp3183
I0
I67
sI1
I3
sI2
tp3184
Rp3185
g5
(S'-1jfk28p7pfca1hmo2m9ac8hceg9jqvt30d5pfje0'
p3186
tp3187
Rp3188
sg1
((dp3189
I0
I55
sI1
I2
sI2
tp3190
Rp3191
g5
(S'1khvcnes4f737r7aod5eafb6ro28fsf83s6vdpq4eliioue30'
p3192
tp3193
Rp3194
sg1
((dp3195
I0
I40
sI1
I1
sI2
tp3196
Rp3197
g5
(S'df961ivp0osbit1egu3i6m0hmjf3doh0838trn4ed2uslcbg8'
p3198
tp3199
Rp3200
sg1
((dp3201
I0
I67
sI2
tp3202
Rp3203
g5
(S'1e2it1porhmuooq917e3vi7gi7i6qu0buur4tilo0m5ofvs5bpqpg'
p3204
tp3205
Rp3206
sg1
((dp3207
I0
I43
sI1
I5
sI2
tp3208
Rp3209
g5
(S'295ke7t99n722d4'
p3210
tp3211
Rp3212
sg1
((dp3213
I0
I31
sI1
I4
sI2
tp3214
Rp3215
g5
(S'5f9mnhikq6afeb9thmf4v3acpi0'
p3216
tp3217
Rp3218
sg1
((dp3219
I0
I27
sI2
tp3220
Rp3221
g5
(S'cl4m9jeoabv0ov0qoe5l1oj4ls1sjhqlmn1p10k3pbftk0000'
p3222
tp3223
Rp3224
sg1
((dp3225
I0
I38
sI1
I1
sI2
tp3226
Rp3227
g5
(S'3qjcd2o7j0t0h7fmu2aj0ilfr7lkdhb6ca5a3q0vj2u9ggfkg'
p3228
tp3229
Rp3230
sg1
((dp3231
I0
I73
sI2
tp3232
Rp3233
g5
(S'mqvnene3arv1ilp721nfd4eb4qka9201pre1caaeqsmkgjamufq0'
p3234
tp3235
Rp3236
sg1
((dp3237
I0
I108
sI1
I4
sI2
tp3238
Rp3239
g5
(S'4ejf2npu'
p3240
tp3241
Rp3242
sg1
((dp3243
I0
I32
sI1
I3
sI2
tp3244
Rp3245
g5
(S'1h1vvcn41hql4qerdjgpv541oh47oaf702a7d'
p3246
tp3247
Rp3248
sg1
((dp3249
I0
I86
sI1
I3
sI2
tp3250
Rp3251
g5
(S'cm3dapmbq2rhtrrnkjlm2r228qg3k5dildmj2pv'
p3252
tp3253
Rp3254
sg1
((dp3255
I0
I113
sI1
I1
sI2
tp3256
Rp3257
g5
(S'amssopa1m66ob27e7655d6grkb8d04lkii85ggup7dkm'
p3258
tp3259
Rp3260
sg1
((dp3261
I0
I74
sI1
I2
sI2
tp3262
Rp3263
g5
(S'-mvrufhehtqdq6ighhgpftsf9r6g6uhcb0an3hbm2h5q41qdc'
p3264
tp3265
Rp3266
sg1
((dp3267
I0
I89
sI1
I3
sI2
tp3268
Rp3269
g5
(S'7hh32luniqrbho1gqf3scgqgd0tmkglhm64g240'
p3270
tp3271
Rp3272
sg1
((dp3273
I0
I119
sI2
tp3274
Rp3275
g5
(S'7hrm0an65273hk3qpocsr45qr7mnuvf14h5fkg26onhl0'
p3276
tp3277
Rp3278
sg1
((dp3279
I0
I77
sI1
I2
sI2
tp3280
Rp3281
g5
(S'a671vurc9jirs9od5br6em0kf087a92netpdv4dfcp2ob45s'
p3282
tp3283
Rp3284
sg1
((dp3285
I0
I62
sI1
I1
sI2
tp3286
Rp3287
g5
(S'4u6gjprmm409r518l7cb5esctj0q527uq3raipg91doq1v3oq0b'
p3288
tp3289
Rp3290
sg1
((dp3291
I0
I165
sI2
tp3292
Rp3293
g5
(S'2273muro9pcg'
p3294
tp3295
Rp3296
sg1
((dp3297
I0
I53
sI1
I4
sI2
tp3298
Rp3299
g5
(S'c4ssi84p9uh8fq04pkkd57qavreq'
p3300
tp3301
Rp3302
sg1
((dp3303
I0
I14
sI1
I5
sI2
tp3304
Rp3305
g5
(S'-1re90rvbnibuad3'
p3306
tp3307
Rp3308
sg1
((dp3309
I0
I30
sI1
I5
sI2
tp3310
Rp3311
g5
(S'-9m8geapto2vnovdt'
p3312
tp3313
Rp3314
sg1
((dp3315
I0
I2
sI1
I4
sI2
tp3316
Rp3317
g5
(S'-asdgom9j6g2aufl400'
p3318
tp3319
Rp3320
sg1
((dp3321
I0
I20
sI2
tp3322
Rp3323
g5
(S'-kgnctslktovvn9bcomqdduagtcmuem72n6f7rfu4vg00000'
p3324
tp3325
Rp3326
sg1
((dp3327
I0
I108
sI1
I3
sI2
tp3328
Rp3329
g5
(S'-61q1n6370a73m8oufrd83q8qken7ap59daqg2'
p3330
tp3331
Rp3332
sg1
((dp3333
I0
I135
sI1
I1
sI2
tp3334
Rp3335
g5
(S'-2ctjrlp9rnqjdvqsf263asara8t4m3cpog7o'
p3336
tp3337
Rp3338
sg1
((dp3339
I0
I96
sI1
I2
sI2
tp3340
Rp3341
g5
(S'-qe4guh4u5qa8et0d97dk8l4lntoj0cdkccaj8i9ahpp6j'
p3342
tp3343
Rp3344
sg1
((dp3345
I0
I111
sI1
I3
sI2
tp3346
Rp3347
g5
(S'jesko2r7lmecukecs6kfrdr2r6kdcdqkfbdg'
p3348
tp3349
Rp3350
sg1
((dp3351
I0
I99
sI1
I2
sI2
tp3352
Rp3353
g5
(S'2ucfk78apobab4vjrurtqsk1s2oam46iejim205ivtfao'
p3354
tp3355
Rp3356
sg1
((dp3357
I0
I84
sI1
I1
sI2
tp3358
Rp3359
g5
(S'lb07095mi4b9aq6g1qlpkun9ruvufbja3lbe9610na9ch0daq'
p3360
tp3361
Rp3362
sg1
((dp3363
I0
I34
sI1
I1
sI2
tp3364
Rp3365
g5
(S'4qupkh7dk1ho1bfguuqp88tt5m13fo25nglba0ifskhaplq0'
p3366
tp3367
Rp3368
sg1
((dp3369
I0
I112
sI2
tp3370
Rp3371
g5
(S'-58dri4k076sc5965f21r1tr8936vreqkm7i6pll9gkaopcg'
p3372
tp3373
Rp3374
sg1
((dp3375
I0
I11
sI2
tp3376
Rp3377
g5
(S'4fe0jaoj584evapg9bremaf1d3mq028dko2g80000000'
p3378
tp3379
Rp3380
sg1
((dp3381
I0
I28
sI1
I3
sI2
tp3382
Rp3383
g5
(S'1ea2ot0mo80frdurtfk8nfti29mfi3e6bv4a'
p3384
tp3385
Rp3386
sg1
((dp3387
I0
I36
sI1
I5
sI2
tp3388
Rp3389
g5
(S'41cbb09bcp6humme'
p3390
tp3391
Rp3392
sg1
((dp3393
I0
I158
sI2
tp3394
Rp3395
g5
(S'-cnh34ud9uk8u1uqskthut9i8'
p3396
tp3397
Rp3398
sg1
((dp3399
I0
I34
sI2
tp3400
Rp3401
g5
(S'-1bg1q8vust0blgfp4j30lrt3ur5e618er8cndf0otnrie6k0000'
p3402
tp3403
Rp3404
sg1
((dp3405
I0
I24
sI1
I4
sI2
tp3406
Rp3407
g5
(S'5rj2omd58o0h8ag4ln90rk9jhd'
p3408
tp3409
Rp3410
sg1
((dp3411
I0
I130
sI1
I3
sI2
tp3412
Rp3413
g5
(S'-dovn7mtaaqc9cbg5ou9skp7ulo5h13'
p3414
tp3415
Rp3416
sg1
((dp3417
I0
I157
sI1
I1
sI2
tp3418
Rp3419
g5
(S'3vd1fgr8c6pdum7a2g7k7me'
p3420
tp3421
Rp3422
sg1
((dp3423
I0
I118
sI1
I2
sI2
tp3424
Rp3425
g5
(S'-ilco3bmf3t85m0hsi81c01mp6pq722rai3emfvu'
p3426
tp3427
Rp3428
sg1
((dp3429
I0
I133
sI1
I3
sI2
tp3430
Rp3431
g5
(S'4nvvot0p95m6h3kps6rb3k3g6nfkm'
p3432
tp3433
Rp3434
sg1
((dp3435
I0
I121
sI1
I2
sI2
tp3436
Rp3437
g5
(S'c51lvogekojoifemf7h96kk9q5mnult9hg5kuc'
p3438
tp3439
Rp3440
sg1
((dp3441
I0
I106
sI1
I1
sI2
tp3442
Rp3443
g5
(S'-4kabus59ilkkagqrlno19kdnndnkdbnlo23ekrtvnb0e46'
p3444
tp3445
Rp3446
sg1
((dp3447
I0
I33
sI1
I2
sI2
tp3448
Rp3449
g5
(S'3rllr1i5samnm9f39vvdilol8hbetsb4vha00qf3mrt9s4'
p3450
tp3451
Rp3452
sg1
((dp3453
I0
I97
sI1
I4
sI2
tp3454
Rp3455
g5
(S'-msl63t56o39t0ntgc'
p3456
tp3457
Rp3458
sg1
((dp3459
I0
I59
sI2
tp3460
Rp3461
g5
(S'1ik8012omei5j97pr769dkuge5mtsupn3k69ca1uuga5n6r8pnhv8'
p3462
tp3463
Rp3464
sg1
((dp3465
I0
I105
sI2
tp3466
Rp3467
g5
(S'16743gugv31ud8agslacret28oqivg2t81monaidq2rsepr00'
p3468
tp3469
Rp3470
sg1
((dp3471
I0
I46
sI1
I4
sI2
tp3472
Rp3473
g5
(S'au9blhpto4nukkjntjvmgag58s8v'
p3474
tp3475
Rp3476
sg1
((dp3477
I0
I152
sI1
I3
sI2
tp3478
Rp3479
g5
(S'-qlvmee2udlf0tf4q9'
p3480
tp3481
Rp3482
sg1
((dp3483
I0
I51
sI1
I1
sI2
tp3484
Rp3485
g5
(S'-16aac8kdanavo9fl8rr27fhbfd89jd102a2nqbv793gm82c87ds'
p3486
tp3487
Rp3488
sg1
((dp3489
I0
I140
sI1
I2
sI2
tp3490
Rp3491
g5
(S'pvvfn1sk72su1uot6cu828d2auqt5'
p3492
tp3493
Rp3494
sg1
((dp3495
I0
I155
sI1
I3
sI2
tp3496
Rp3497
g5
(S'48tstu712pv74qs'
p3498
tp3499
Rp3500
sg1
((dp3501
I0
I151
sI2
tp3502
Rp3503
g5
(S'h04fklruphnfcgegd8as9a666nkp58'
p3504
tp3505
Rp3506
sg1
((dp3507
I0
I143
sI1
I2
sI2
tp3508
Rp3509
g5
(S'-8gg25arhemesq70ietth4ehbchkg'
p3510
tp3511
Rp3512
sg1
((dp3513
I0
I30
sI1
I1
sI2
tp3514
Rp3515
g5
(S'-496o36u2p8h0m2etfghosc5orbj70g5gsdl1apfpgr60l00'
p3516
tp3517
Rp3518
sg1
((dp3519
I0
I128
sI1
I1
sI2
tp3520
Rp3521
g5
(S'-2nlmtpg5ehrdi72n9kca5s6lqqacqr0frfubge2'
p3522
tp3523
Rp3524
sg1
((dp3525
I0
I3
sI1
I5
sI2
tp3526
Rp3527
g5
(S'-d4srjtsdmm0'
p3528
tp3529
Rp3530
sg1
((dp3531
I0
I6
sI2
tp3532
Rp3533
g5
(S'-bvpbmjdu88gp3d79t2nk0aigoqhr0dc8g00000000'
p3534
tp3535
Rp3536
sg1
((dp3537
I0
I16
sI1
I2
sI2
tp3538
Rp3539
g5
(S'-1hj9tccret3lphgi825qggf7lc06v7cp9ebal0v00'
p3540
tp3541
Rp3542
sg1
((dp3543
I0
I68
sI1
I4
sI2
tp3544
Rp3545
g5
(S'-es3oklq54o73nd6col9l1kvhdb9'
p3546
tp3547
Rp3548
sg1
((dp3549
I0
I100
sI1
I4
sI2
tp3550
Rp3551
g5
(S'-2qe3od4phuanmgte'
p3552
tp3553
Rp3554
sg1
((dp3555
I0
I52
sI2
tp3556
Rp3557
g5
(S'-npij6qfrjije5odb49l9pm8r2r2t40tam2eb34u4q73aegr3ov7g'
p3558
tp3559
Rp3560
sg1
((dp3561
I0
I31
sI1
I3
sI2
tp3562
Rp3563
g5
(S'-qqpl2fmaovch30hpnc98p83gp1ova0nlmvq0'
p3564
tp3565
Rp3566
sg1
((dp3567
I0
I46
sI1
I3
sI2
tp3568
Rp3569
g5
(S'188ptvlocapf26jo970et2h12r2p0js895oghd8'
p3570
tp3571
Rp3572
sg1
((dp3573
I0
I73
sI1
I1
sI2
tp3574
Rp3575
g5
(S'-1d5o2qr3aosclem5j1jicn0lk4k467mnmkcrcoq8e0dc1a2odgq'
p3576
tp3577
Rp3578
sg1
((dp3579
I0
I98
sI2
tp3580
Rp3581
g5
(S'-35f2hjutkm3j6t22q5o9h69gll5ed6dkshdhtpk8nm1h3aeg10'
p3582
tp3583
Rp3584
sg1
((dp3585
I0
I49
sI1
I3
sI2
tp3586
Rp3587
g5
(S'-49l4i4psf7u81vq4l7iv63fnv69mb8ladlns396'
p3588
tp3589
Rp3590
sg1
((dp3591
I0
I165
sI1
I2
sI2
tp3592
Rp3593
g5
(S'cndgbvq4'
p3594
tp3595
Rp3596
sg1
((dp3597
I0
I150
sI1
I1
sI2
tp3598
Rp3599
g5
(S'-3gp6e0qeng8fb5l7ibp6smg71kfa'
p3600
tp3601
Rp3602
sg1
((dp3603
I0
I9
sI1
I4
sI2
tp3604
Rp3605
g5
(S'40cibhe5tl5ahbgfd99jj0'
p3606
tp3607
Rp3608
sg1
((dp3609
I0
I31
sI1
I1
sI2
tp3610
Rp3611
g5
(S'1slt4qbc9tqgdfq9ulebq7bo6693npji1j2fia714pmm400'
p3612
tp3613
Rp3614
sg1
((dp3615
I0
I25
sI1
I5
sI2
tp3616
Rp3617
g5
(S'ajt3qlouu43b2eo'
p3618
tp3619
Rp3620
sg1
((dp3621
I0
I19
sI1
I2
sI2
tp3622
Rp3623
g5
(S'35u9ckectqgicarp47lvh48bsb4j8o2ekq1t33s3k0'
p3624
tp3625
Rp3626
sg1
((dp3627
I0
I144
sI2
tp3628
Rp3629
g5
(S'-2j5ir23bdsas1fevuttvu3701g8fkbbt3mg'
p3630
tp3631
Rp3632
sg1
((dp3633
I0
I1
sI2
tp3634
Rp3635
g5
(S'ehda42n7b3fdfsl0s6nm19n012q0000000000'
p3636
tp3637
Rp3638
sg1
((dp3639
I0
I90
sI1
I4
sI2
tp3640
Rp3641
g5
(S'-o1r9aj5musv9h5uiosvgb'
p3642
tp3643
Rp3644
sg1
((dp3645
I0
I68
sI1
I3
sI2
tp3646
Rp3647
g5
(S'kbmciit23n8tm89e3o0o1qfurme9vvoomln3h40'
p3648
tp3649
Rp3650
sg1
((dp3651
I0
I95
sI1
I1
sI2
tp3652
Rp3653
g5
(S'410hiooi613g640dkhjc1jcm9pk7ikotjqvmv97o25iqd6j0'
p3654
tp3655
Rp3656
sg1
((dp3657
I0
I56
sI1
I2
sI2
tp3658
Rp3659
g5
(S'-1t0qb4qpfqnksucqsrba83u8a07qqf42428qh5ouc523o8j6u'
p3660
tp3661
Rp3662
sg1
((dp3663
I0
I71
sI1
I3
sI2
tp3664
Rp3665
g5
(S'2gnj5663q0683kalo8rbtrdj2kt3nq2bp0mddfs0'
p3666
tp3667
Rp3668
sg1
((dp3669
I0
I14
sI1
I3
sI2
tp3670
Rp3671
g5
(S'4lrp4o0e19hq3q370jvtdk3rcgd0elg0'
p3672
tp3673
Rp3674
sg1
((dp3675
I0
I59
sI1
I2
sI2
tp3676
Rp3677
g5
(S'2jjggbsgq36apcem7hvm7gseokmq3u4rj7enbmff6793obhu4'
p3678
tp3679
Rp3680
sg1
((dp3681
I0
I44
sI1
I1
sI2
tp3682
Rp3683
g5
(S'39ndmgkl6kheoa78493frpau26h91o6f5doi6kqkeg2rls0sj9'
p3684
tp3685
Rp3686
sg1
((dp3687
I0
I47
sI1
I5
sI2
tp3688
Rp3689
g5
(S'2r76hvbthh81g'
p3690
tp3691
Rp3692
sg1
((dp3693
I0
I35
sI1
I4
sI2
tp3694
Rp3695
g5
(S'-163eev1eagja1iuocl8e6vmcqq00'
p3696
tp3697
Rp3698
sg1
((dp3699
I0
I91
sI2
tp3700
Rp3701
g5
(S'3c3mlgj6pph2c1410k16ft74tvofnjlgfj5humepmrc8fl5l05o'
p3702
tp3703
Rp3704
sg1
((dp3705
I0
I137
sI2
tp3706
Rp3707
g5
(S'jt7761r6jct9so6s8nto82dlho329u1l6imfu0'
p3708
tp3709
Rp3710
sg1
((dp3711
I0
I17
sI1
I3
sI2
tp3712
Rp3713
g5
(S'-2h5mvmknb0qbk1eeg7t5632bv7moao9h8'
p3714
tp3715
Rp3716
sg1
((dp3717
I0
I90
sI1
I3
sI2
tp3718
Rp3719
g5
(S'-9ks687daasnlsh2mkcsvuu6l254gjj713aqk3v0'
p3720
tp3721
Rp3722
sg1
((dp3723
I0
I117
sI1
I1
sI2
tp3724
Rp3725
g5
(S'5ih8o9tvie7n04e21bj62f6upnqtkrt17usra8ujvhc'
p3726
tp3727
Rp3728
sg1
((dp3729
I0
I78
sI1
I2
sI2
tp3730
Rp3731
g5
(S'-7er18egt8ot0voj9f6srs2cc8vcsbfejotsd8pfk5v6qjs8c'
p3732
tp3733
Rp3734
sg1
((dp3735
I0
I93
sI1
I3
sI2
tp3736
Rp3737
g5
(S'83c9qklnau83g74tu2vv713dgodjgspp5c1t9m4'
p3738
tp3739
Rp3740
sg1
((dp3741
I0
I81
sI1
I2
sI2
tp3742
Rp3743
g5
(S'2ivgc8rcjj1aov6356va7c6la9pei4s24oe7p8tjl98fk3kk'
p3744
tp3745
Rp3746
sg1
((dp3747
I0
I66
sI1
I1
sI2
tp3748
Rp3749
g5
(S'47v60a50g4s8fg64btkeeek2uadrgemuh40lc111mfbei9kgc5c'
p3750
tp3751
Rp3752
sg1
((dp3753
I0
I38
sI2
tp3754
Rp3755
g5
(S'-aha21kiaq98buih72i2401871u6khg5s5it9fhfj94j33ca8000'
p3756
tp3757
Rp3758
sg1
((dp3759
I0
I14
sI2
tp3760
Rp3761
g5
(S'-d5mvm1f52vfl67tnk773lv70c81ut81d48gom80000000'
p3762
tp3763
Rp3764
sg1
((dp3765
I0
I57
sI1
I4
sI2
tp3766
Rp3767
g5
(S'-5od429d8mm6d76gjvm6q7j2tkm14'
p3768
tp3769
Rp3770
sg1
((dp3771
I0
I18
sI1
I5
sI2
tp3772
Rp3773
g5
(S'm0ug4epsrv1q1rd'
p3774
tp3775
Rp3776
sg1
((dp3777
I0
I6
sI1
I4
sI2
tp3778
Rp3779
g5
(S'-1vvjvhghtcgs51ihcj3g0'
p3780
tp3781
Rp3782
sg1
((dp3783
I0
I22
sI1
I1
sI2
tp3784
Rp3785
g5
(S'-l57g3socbe72s9pu3spkon65mpji9i2ss94suj7ubu000'
p3786
tp3787
Rp3788
sg1
((dp3789
I0
I84
sI2
tp3790
Rp3791
g5
(S'-1hups157hcfki7bbospei39ijbd1pv77p4ddt8n60du9drs3rjh8'
p3792
tp3793
Rp3794
sg1
((dp3795
I0
I112
sI1
I3
sI2
tp3796
Rp3797
g5
(S'-8gsh12mf2clv3lvkqiacm85qa7hr7n96k6ll'
p3798
tp3799
Rp3800
sg1
((dp3801
I0
I139
sI1
I1
sI2
tp3802
Rp3803
g5
(S'-36gfvk6otp40pqm81etpmuvlpfteqlnkq4'
p3804
tp3805
Rp3806
sg1
((dp3807
I0
I100
sI1
I2
sI2
tp3808
Rp3809
g5
(S'-1be4lmga67tna80mm0n8eh0jpdhisq8bv6sdb7s6c4q1k'
p3810
tp3811
Rp3812
sg1
((dp3813
I0
I115
sI1
I3
sI2
tp3814
Rp3815
g5
(S'j5g1cj1784ls874muce5org4e134l4410i0'
p3816
tp3817
Rp3818
sg1
((dp3819
I1
I3
sI2
tp3820
Rp3821
g5
(S'buci06s7g3f3felp1570000'
p3822
tp3823
Rp3824
sg1
((dp3825
I0
I103
sI1
I2
sI2
tp3826
Rp3827
g5
(S'3m1j7rgedhep0nvol0defnemv8ivj6ov28uj56783a10'
p3828
tp3829
Rp3830
sg1
((dp3831
I0
I5
sI1
I3
sI2
tp3832
Rp3833
g5
(S'-1c3dnnqr420hm7dv1f3kj0rog000'
p3834
tp3835
Rp3836
sg1
((dp3837
I0
I88
sI1
I1
sI2
tp3838
Rp3839
g5
(S'njp2vpgl72a8dbqlhmpbe1ucie8no4k904uurnn79hldf124'
p3840
tp3841
Rp3842
sg1
((dp3843
I0
I162
sI1
I1
sI2
tp3844
Rp3845
g5
(S'-1ibfag2319fl1g9gkh'
p3846
tp3847
Rp3848
sg1
((dp3849
I0
I79
sI1
I4
sI2
tp3850
Rp3851
g5
(S'-kgaf1ug7vitgn3tcjvgtq24n0'
p3852
tp3853
Rp3854
sg1
((dp3855
I0
I27
sI1
I1
sI2
tp3856
Rp3857
g5
(S'17fa0363im2evu9g3c8po9uo3s7jtl452af30mjov4j4u00'
p3858
tp3859
Rp3860
sg1
((dp3861
I0
I40
sI1
I5
sI2
tp3862
Rp3863
g5
(S'-r37cjv7ev09klps'
p3864
tp3865
Rp3866
sg1
((dp3867
I0
I28
sI1
I4
sI2
tp3868
Rp3869
g5
(S'-18vcn82sme804tm5mh22fd1vksk'
p3870
tp3871
Rp3872
sg1
((dp3873
I0
I31
sI2
tp3874
Rp3875
g5
(S'6vsem4me5mnfhpgqa9oar0r043r2el6pksi1hcblacnqlq0000'
p3876
tp3877
Rp3878
sg1
((dp3879
I0
I134
sI1
I3
sI2
tp3880
Rp3881
g5
(S'-upkdo6cci3r2srd778svt4jmcnnb'
p3882
tp3883
Rp3884
sg1
((dp3885
I0
I161
sI1
I1
sI2
tp3886
Rp3887
g5
(S'4enoi5aedctm2qecs14'
p3888
tp3889
Rp3890
sg1
((dp3891
I0
I122
sI1
I2
sI2
tp3892
Rp3893
g5
(S'-33r8401kot7eu2f9d53ahtj3efc8fdg2gfr1ac'
p3894
tp3895
Rp3896
sg1
((dp3897
I0
I137
sI1
I3
sI2
tp3898
Rp3899
g5
(S'670ijqrikh2fi415lhnl6dck0v6'
p3900
tp3901
Rp3902
sg1
((dp3903
I0
I125
sI1
I2
sI2
tp3904
Rp3905
g5
(S'1cl4pdsf73t0p57c9ald6a9vgv4ph40vaneq4'
p3906
tp3907
Rp3908
sg1
((dp3909
I0
I110
sI1
I1
sI2
tp3910
Rp3911
g5
(S'-5cana8hbc39haog07salnrae38rtfrs4facvt2arhqskm'
p3912
tp3913
Rp3914
sg1
((dp3915
I0
I101
sI1
I4
sI2
tp3916
Rp3917
g5
(S'dmq8g7qhcfksqc'
p3918
tp3919
Rp3920
sg1
((dp3921
I0
I123
sI2
tp3922
Rp3923
g5
(S'37jgju2iukt6vnim03r84c2oqrqaud775b5l4o8oqnjo'
p3924
tp3925
Rp3926
sg1
((dp3927
I0
I18
sI1
I1
sI2
tp3928
Rp3929
g5
(S'-8rqvf4q4h5llsr69jn87p5g09ok6rhvk2rt31ihng000'
p3930
tp3931
Rp3932
sg1
((dp3933
I0
I50
sI1
I4
sI2
tp3934
Rp3935
g5
(S'-44r50u0c8b0s9ad5kgums2qdbrjg'
p3936
tp3937
Rp3938
sg1
((dp3939
I0
I156
sI1
I3
sI2
tp3940
Rp3941
g5
(S'-5u8mk9b01508ik'
p3942
tp3943
Rp3944
sg1
((dp3945
I0
I55
sI1
I1
sI2
tp3946
Rp3947
g5
(S'-2ohthsmgghijvi7o7vr7vi76l04je4vnfq52dig52a50fspnme8'
p3948
tp3949
Rp3950
sg1
((dp3951
I0
I144
sI1
I2
sI2
tp3952
Rp3953
g5
(S'1d754jgbicvmi7kt2fjf39n1ch6q'
p3954
tp3955
Rp3956
sg1
((dp3957
I0
I159
sI1
I3
sI2
tp3958
Rp3959
g5
(S'7bm7itr0210'
p3960
tp3961
Rp3962
sg1
((dp3963
I0
I147
sI1
I2
sI2
tp3964
Rp3965
g5
(S'-2knadopkie7i29k1s8gdrumc94'
p3966
tp3967
Rp3968
sg1
((dp3969
I0
I24
sI2
tp3970
Rp3971
g5
(S'-10hd3hjh5te0rjg0edm5i4vu9ahpnj3fr9gb5mjm28vf00000'
p3972
tp3973
Rp3974
sg1
((dp3975
I0
I132
sI1
I1
sI2
tp3976
Rp3977
g5
(S'1vb71u8an6s0pe0766nvm8okq150o3kso96ds'
p3978
tp3979
Rp3980
sg1
((dp3981
I0
I9
sI1
I3
sI2
tp3982
Rp3983
g5
(S'-3iuuta8it19dl5li294pd8968pds00'
p3984
tp3985
Rp3986
sg1
((dp3987
I0
I7
sI1
I5
sI2
tp3988
Rp3989
g5
(S'5u18udf99733g'
p3990
tp3991
Rp3992
sg1
((dp3993
I0
I70
sI2
tp3994
Rp3995
g5
(S'-12lokalvorq7ica2bv0nddan1mh72mn7kq46rdt35j097kj7lkt50'
p3996
tp3997
Rp3998
sg1
((dp3999
I0
I141
sI1
I1
sI2
tp4000
Rp4001
g5
(S'-1itvr5fua0isk0kurpm46tktng58nbfh6'
p4002
tp4003
Rp4004
sg1
((dp4005
I0
I162
sI2
tp4006
Rp4007
g5
(S'aojkj5bnuv0e8n2s5fg'
p4008
tp4009
Rp4010
sg1
((dp4011
I0
I72
sI1
I4
sI2
tp4012
Rp4013
g5
(S'15b2jpkmrfgeolmnl5a1435t1h6'
p4014
tp4015
Rp4016
sg1
((dp4017
I0
I19
sI1
I1
sI2
tp4018
Rp4019
g5
(S'sio6dhubl823o45qvv9682vdu4r6ri2d3nuofktqg000'
p4020
tp4021
Rp4022
sg1
((dp4023
I0
I116
sI2
tp4024
Rp4025
g5
(S'-4i2cmapttvpp9ahfoo5uf9a9tncof2gamngckhtpc2uj30'
p4026
tp4027
Rp4028
sg1
((dp4029
I0
I50
sI1
I3
sI2
tp4030
Rp4031
g5
(S'4fa305ddcqt0gl43nom310ru5543j7dd026082g'
p4032
tp4033
Rp4034
sg1
((dp4035
I0
I77
sI1
I1
sI2
tp4036
Rp4037
g5
(S'-eim6snihfq662crbqt8sccc0j086so2ndu0gd7s78euj5h2afu'
p4038
tp4039
Rp4040
sg1
((dp4041
I0
I166
sI1
I2
sI2
tp4042
Rp4043
g5
(S'bbr1'
p4044
tp4045
Rp4046
sg1
((dp4047
I0
I53
sI1
I3
sI2
tp4048
Rp4049
g5
(S'4hs3kubq0dqv25tqervhrc0b7ftl4j8gcfr75u6'
p4050
tp4051
Rp4052
sg1
((dp4053
I0
I41
sI1
I2
sI2
tp4054
Rp4055
g5
(S'h7lpq44vit0ff99dr6p9e2ms8r09vqj13gtl195t32bu22a'
p4056
tp4057
Rp4058
sg1
((dp4059
I0
I154
sI1
I1
sI2
tp4060
Rp4061
g5
(S'-c6jokeimclhj986jt0f88nk2l'
p4062
tp4063
Rp4064
sg1
((dp4065
I0
I29
sI1
I5
sI2
tp4066
Rp4067
g5
(S'30m8lbscdfaet7s'
p4068
tp4069
Rp4070
sg1
((dp4071
I0
I17
sI2
tp4072
Rp4073
g5
(S'l45bq5a2isop133ftfcbvtcfskobjv5kjs2qs6da000000'
p4074
tp4075
Rp4076
sg1
((dp4077
I0
I17
sI1
I4
sI2
tp4078
Rp4079
g5
(S'h8r54bi0ktcp1pf7bq74p0hm'
p4080
tp4081
Rp4082
sg1
((dp4083
I0
I94
sI1
I4
sI2
tp4084
Rp4085
g5
(S'vftqu0v5771724a3118'
p4086
tp4087
Rp4088
sg1
((dp4089
I0
I63
sI2
tp4090
Rp4091
g5
(S'1mj4boslkk3sljscusdndnkp0j5v6aug04hvcdcn035meq2i6ide0'
p4092
tp4093
Rp4094
sg1
((dp4095
I0
I72
sI1
I3
sI2
tp4096
Rp4097
g5
(S'-3274j7hkchohth06piv0o1usgfpupfqvrd4one63'
p4098
tp4099
Rp4100
sg1
((dp4101
I0
I99
sI1
I1
sI2
tp4102
Rp4103
g5
(S'gp1bcbs2215fksv5q6imac85260a7m6rgq3amlkn96qpf4k'
p4104
tp4105
Rp4106
sg1
((dp4107
I0
I60
sI1
I2
sI2
tp4108
Rp4109
g5
(S'-2osfa1me9d0ip0kl5jlmlu93709krvar9hj28kjspubis25n7'
p4110
tp4111
Rp4112
sg1
((dp4113
I0
I109
sI2
tp4114
Rp4115
g5
(S'1ttami3iqedn1lsoovk67teaco3h0dps9khuht5e8o6tktf0'
p4116
tp4117
Rp4118
sg1
((dp4119
I0
I129
sI2
tp4120
Rp4121
g5
(S'25kb358fs2attl1ia5d3pia2mq128h4p4q0amot4go'
p4122
tp4123
Rp4124
sg1
((dp4125
I0
I63
sI1
I2
sI2
tp4126
Rp4127
g5
(S'2tstp8qltg00hs5ungog2f15j5n9n23fvhppef7cnjqdfb5k0'
p4128
tp4129
Rp4130
sg1
((dp4131
I0
I48
sI1
I1
sI2
tp4132
Rp4133
g5
(S'foiidm0a00j3b262209roptrm4rq0blf3mooob73fpvgf9k1ef'
p4134
tp4135
Rp4136
sg1
((dp4137
I0
I51
sI1
I5
sI2
tp4138
Rp4139
g5
(S'fknemo5k4'
p4140
tp4141
Rp4142
sg1
((dp4143
I0
I39
sI1
I4
sI2
tp4144
Rp4145
g5
(S'257tjklp76to7i925lks8au36oeg'
p4146
tp4147
Rp4148
sg1
((dp4149
I0
I155
sI2
tp4150
Rp4151
g5
(S'9grvmeppvpo0o83tgvadn6u5cd8'
p4152
tp4153
Rp4154
sg1
((dp4155
I1
I5
sI2
tp4156
Rp4157
g5
(S'-4gfoamoo0'
p4158
tp4159
Rp4160
sg1
((dp4161
I0
I24
sI1
I2
sI2
tp4162
Rp4163
g5
(S'-162sguoi97ddpevt403n3pm4pakaa2tnig2qb1s5pf6g'
p4164
tp4165
Rp4166
sg1
((dp4167
I0
I10
sI2
tp4168
Rp4169
g5
(S'-qrnn764dto2v9ks3q3tj6pth35k44r67tcj00000000'
p4170
tp4171
Rp4172
sg1
((dp4173
I0
I94
sI1
I3
sI2
tp4174
Rp4175
g5
(S'-6hsjcndfg3j3fse1n1cveqrk3gc38cgfjr3pijp'
p4176
tp4177
Rp4178
sg1
((dp4179
I0
I121
sI1
I1
sI2
tp4180
Rp4181
g5
(S'1mlfivcvnrfv8rddkf60cl0ubnr8jlmlmtdt9b6ua6'
p4182
tp4183
Rp4184
sg1
((dp4185
I0
I82
sI1
I2
sI2
tp4186
Rp4187
g5
(S'-1o0c9d567191snlcpfuecvu3put78psak1ljndhd7fjj07o7'
p4188
tp4189
Rp4190
sg1
((dp4191
I0
I97
sI1
I3
sI2
tp4192
Rp4193
g5
(S'2j8e3f1bfpbe0b1vedab7b80gr09e9tutp88ag8'
p4194
tp4195
Rp4196
sg1
((dp4197
I0
I85
sI1
I2
sI2
tp4198
Rp4199
g5
(S'f7gou8po362qr0rl7gpkivgcdl7q2vmii1m8ue8atf59ndk'
p4200
tp4201
Rp4202
sg1
((dp4203
I0
I56
sI2
tp4204
Rp4205
g5
(S'-18fv87bfvjtjc3lofj8fj97tl7kif1ufddqs58bf077mmmmov359o'
p4206
tp4207
Rp4208
sg1
((dp4209
I0
I70
sI1
I1
sI2
tp4210
Rp4211
g5
(S'2ilgdo69uo0og1e1gh73ddaip94unhdbmgl4ajf3pn8rt64rcjm'
p4212
tp4213
Rp4214
sg1
((dp4215
I0
I102
sI2
tp4216
Rp4217
g5
(S'-90eoem6osf0t22pinem1pg4ni2dkeou2uodc234l96586qe30'
p4218
tp4219
Rp4220
sg1
((dp4221
I0
I38
sI1
I2
sI2
tp4222
Rp4223
g5
(S'-3b0qk377t45oe85tv9lb7a4gt7u91ooqg0tugl509e7bijg'
p4224
tp4225
Rp4226
sg1
((dp4227
I0
I61
sI1
I4
sI2
tp4228
Rp4229
g5
(S'-2cdphbomjvo6mv1quuthac3oboaa'
p4230
tp4231
Rp4232
sg1
((dp4233
I0
I22
sI1
I5
sI2
tp4234
Rp4235
g5
(S'-3i3149at82g5tav5'
p4236
tp4237
Rp4238
sg1
((dp4239
I0
I10
sI1
I4
sI2
tp4240
Rp4241
g5
(S'-8d83ru6a7hio5s6s576tag'
p4242
tp4243
Rp4244
sg1
((dp4245
I0
I148
sI2
tp4246
Rp4247
g5
(S'-jqml0bmrugmdjn7ca0qfblic7oua0ea8'
p4248
tp4249
Rp4250
sg1
((dp4251
I0
I116
sI1
I3
sI2
tp4252
Rp4253
g5
(S'-7e7i9q20scanc56ssfn6jrn17ajgl5kojh5'
p4254
tp4255
Rp4256
sg1
((dp4257
I0
I143
sI1
I1
sI2
tp4258
Rp4259
g5
(S'a8rs125jk2bic8000iggj6rjedr82ug'
p4260
tp4261
Rp4262
sg1
((dp4263
I0
I104
sI1
I2
sI2
tp4264
Rp4265
g5
(S'-1hgc90f8erhdbihcjp2qkft5mnqbeedmruleolt19t2b'
p4266
tp4267
Rp4268
sg1
((dp4269
I0
I119
sI1
I3
sI2
tp4270
Rp4271
g5
(S'bic4oast4q6rdt70gkuo2cu9ttbqa8ja50'
p4272
tp4273
Rp4274
sg1
((dp4275
I0
I22
sI1
I3
sI2
tp4276
Rp4277
g5
(S'-dug8en0sa357lcje1n87814g7pps7jvm9j'
p4278
tp4279
Rp4280
sg1
((dp4281
I0
I107
sI1
I2
sI2
tp4282
Rp4283
g5
(S'354n1m53kdmj7usjo9nvrbsk1cukem77ernm6uvm9c4'
p4284
tp4285
Rp4286
sg1
((dp4287
I0
I92
sI1
I1
sI2
tp4288
Rp4289
g5
(S'-b4js3j5q125hj0fpgq4com064u5fu4q3vde7ma6ea6unoen9'
p4290
tp4291
Rp4292
sg1
((dp4293
I0
I11
sI1
I1
sI2
tp4294
Rp4295
g5
(S'ckm1npk9sc61gbgrubcrrsqd096jt625fnsk00000'
p4296
tp4297
Rp4298
sg1
((dp4299
I0
I49
sI2
tp4300
Rp4301
g5
(S'd8gm5g7jbl3sndtj2b9922fpp2j3oe96asndbq441qacjr9b18eg'
p4302
tp4303
Rp4304
sg1
((dp4305
I0
I83
sI1
I4
sI2
tp4306
Rp4307
g5
(S'-170fsfbeqec25p6e8dkrhrd4'
p4308
tp4309
Rp4310
sg1
((dp4311
I0
I44
sI1
I5
sI2
tp4312
Rp4313
g5
(S'-js33heoc219tib'
p4314
tp4315
Rp4316
sg1
((dp4317
I0
I10
sI1
I2
sI2
tp4318
Rp4319
g5
(S'-1tvn1j2cdk7rjl65vm6ts2l5o7e77ihp2t4000'
p4320
tp4321
Rp4322
sg1
((dp4323
I0
I32
sI1
I4
sI2
tp4324
Rp4325
g5
(S'-20pqvmn5totq0o770aduooamjp0'
p4326
tp4327
Rp4328
sg1
((dp4329
I0
I30
sI1
I4
sI2
tp4330
Rp4331
g5
(S'-51j68s63mtk9k0mfskpjqrr1k7l'
p4332
tp4333
Rp4334
sg1
((dp4335
I0
I95
sI2
tp4336
Rp4337
g5
(S'g0e651lse17660aau4ppppsqhrkime5bqjfie127cbvt6lra40'
p4338
tp4339
Rp4340
sg1
((dp4341
I0
I138
sI1
I3
sI2
tp4342
Rp4343
g5
(S'-11bq1rh474ajj863qj4s0j2jasc'
p4344
tp4345
Rp4346
sg1
((dp4347
I0
I165
sI1
I1
sI2
tp4348
Rp4349
g5
(S'19s78vejaj0'
p4350
tp4351
Rp4352
sg1
((dp4353
I0
I126
sI1
I2
sI2
tp4354
Rp4355
g5
(S'-a30qbgkqvabdjbbeva25hsts8pkup79rbvs0'
p4356
tp4357
Rp4358
sg1
((dp4359
I0
I141
sI1
I3
sI2
tp4360
Rp4361
g5
(S'3lfj55apa5b8oim04nnq7b1pe'
p4362
tp4363
Rp4364
sg1
((dp4365
I0
I129
sI1
I2
sI2
tp4366
Rp4367
g5
(S'331ondi5fd8shvk2i6slm7p31khrcpn69js'
p4368
tp4369
Rp4370
sg1
((dp4371
I0
I114
sI1
I1
sI2
tp4372
Rp4373
g5
(S'-406ttd4j5djk9uenu5qggfhg3nkk31t82pfa26a7iqsf'
p4374
tp4375
Rp4376
sg1
((dp4377
I0
I141
sI1
I2
sI2
tp4378
Rp4379
g5
(S'-6j7tkup836v0f087u9j23gbq5prmk'
p4380
tp4381
Rp4382
sg1
((dp4383
I0
I105
sI1
I4
sI2
tp4384
Rp4385
g5
(S'2uqo0tls78su'
p4386
tp4387
Rp4388
sg1
((dp4389
I0
I54
sI1
I4
sI2
tp4390
Rp4391
g5
(S'-8ajvic9us8h8a033cbib0b7dhj21'
p4392
tp4393
Rp4394
sg1
((dp4395
I0
I42
sI2
tp4396
Rp4397
g5
(S'-1mrcbjljfuc6k8r42sj3afpbshsit9abu160k7q9tlqlfdmcef80'
p4398
tp4399
Rp4400
sg1
((dp4401
I0
I160
sI1
I3
sI2
tp4402
Rp4403
g5
(S'-5rbj3e2lm6'
p4404
tp4405
Rp4406
sg1
((dp4407
I0
I59
sI1
I1
sI2
tp4408
Rp4409
g5
(S'-4d14b8ej67b0il6ms8ipfaq7no7j6mkv97ue4u609196svbkqas'
p4410
tp4411
Rp4412
sg1
((dp4413
I0
I148
sI1
I2
sI2
tp4414
Rp4415
g5
(S'5ogc323brr6bq87muq9r2135r'
p4416
tp4417
Rp4418
sg1
((dp4419
I0
I163
sI1
I3
sI2
tp4420
Rp4421
g5
(S'rupblo'
p4422
tp4423
Rp4424
sg1
((dp4425
I0
I8
sI1
I3
sI2
tp4426
Rp4427
g5
(S'jj558jdmde44eba1s93u09mfnu800'
p4428
tp4429
Rp4430
sg1
((dp4431
I0
I151
sI1
I2
sI2
tp4432
Rp4433
g5
(S'fne4afd7qnc5gvb0ovv6p9g'
p4434
tp4435
Rp4436
sg1
((dp4437
I0
I88
sI2
tp4438
Rp4439
g5
(S'-bqdhrlp5abpobhl3nd7tmfk9hs8oc58qhgs34lcl94uq5q1n098'
p4440
tp4441
Rp4442
sg1
((dp4443
I0
I136
sI1
I1
sI2
tp4444
Rp4445
g5
(S'h7t3e1n6c7vmf5hjhiueur2e45tt81asr6a'
p4446
tp4447
Rp4448
sg1
((dp4449
I0
I12
sI1
I1
sI2
tp4450
Rp4451
g5
(S'-22f941gs8mnil8kdhr2hptihlbt9hi95ns7iu00000'
p4452
tp4453
Rp4454
sg1
((dp4455
I0
I11
sI1
I5
sI2
tp4456
Rp4457
g5
(S'-cg7mqc452duonc'
p4458
tp4459
Rp4460
sg1
((dp4461
I0
I134
sI2
tp4462
Rp4463
g5
(S'-20vivck9isqsuvvl18og6jt88r2qjs1nhps0hfj0'
p4464
tp4465
Rp4466
sg1
((dp4467
I0
I35
sI1
I1
sI2
tp4468
Rp4469
g5
(S'-cbo59shu3prm536euha6s0hp5efrig7guu3vvni5ipugtvu8'
p4470
tp4471
Rp4472
sg1
((dp4473
I0
I76
sI1
I4
sI2
tp4474
Rp4475
g5
(S'8783e78tict3i5c72o0kmtbgis'
p4476
tp4477
Rp4478
sg1
((dp4479
I0
I75
sI1
I3
sI2
tp4480
Rp4481
g5
(S'264aj5gh18lht35b05hlj3l8k3seeu3stc6d2htg'
p4482
tp4483
Rp4484
sg1
((dp4485
I0
I54
sI1
I3
sI2
tp4486
Rp4487
g5
(S'-b905n1jg9aehc6e07ic6rjt95s38ekmioqmmav3'
p4488
tp4489
Rp4490
sg1
((dp4491
I0
I81
sI1
I1
sI2
tp4492
Rp4493
g5
(S'-32qdui5sgnokerlfhjk6n4k4jk16vhb7ch7to96upbk13jmauq'
p4494
tp4495
Rp4496
sg1
((dp4497
I0
I42
sI1
I2
sI2
tp4498
Rp4499
g5
(S'-s5mi0q8cn5j0odjo5jrajqvg1ijic7qalgr3bg1ctp8s7fp'
p4500
tp4501
Rp4502
sg1
((dp4503
I0
I57
sI1
I3
sI2
tp4504
Rp4505
g5
(S't2o1vbddp7gcgg3mv16evc80ptqr4ol9m6i5uv2'
p4506
tp4507
Rp4508
sg1
((dp4509
I0
I45
sI1
I2
sI2
tp4510
Rp4511
g5
(S'38tst97ihkv1sm7mftauu8l0bet5qqqf4pv55duspn5btepm'
p4512
tp4513
Rp4514
sg1
((dp4515
I0
I158
sI1
I1
sI2
tp4516
Rp4517
g5
(S'-66adv800i5jatp7slt4pot'
p4518
tp4519
Rp4520
sg1
((dp4521
I0
I33
sI1
I5
sI2
tp4522
Rp4523
g5
(S'qabfjlaigt7jaq0'
p4524
tp4525
Rp4526
sg1
((dp4527
I0
I81
sI2
tp4528
Rp4529
g5
(S'3slosqb6udkr0ir9ichpc6e7np675kgl52nacgns4s7a06vmccso'
p4530
tp4531
Rp4532
sg1
((dp4533
I0
I21
sI1
I4
sI2
tp4534
Rp4535
g5
(S'3q5cc1tomrr5j25eblac06ai4'
p4536
tp4537
Rp4538
sg1
((dp4539
I0
I27
sI1
I2
sI2
tp4540
Rp4541
g5
(S'os8vtn8u4mra4842bfl27geat1sd9as8bef8in6idvjg'
p4542
tp4543
Rp4544
sg1
((dp4545
I0
I98
sI1
I4
sI2
tp4546
Rp4547
g5
(S'-50tl5vhjv4ja7bv6o'
p4548
tp4549
Rp4550
sg1
((dp4551
I0
I127
sI2
tp4552
Rp4553
g5
(S's92lgoashqdsbhkjij2ocpeg98f3aqiohtd3c2e4c0'
p4554
tp4555
Rp4556
sg1
((dp4557
I0
I76
sI1
I3
sI2
tp4558
Rp4559
g5
(S'-19njes7e7dphr1jhbv8rj63v3kuhnt507e1k10m9'
p4560
tp4561
Rp4562
sg1
((dp4563
I0
I103
sI1
I1
sI2
tp4564
Rp4565
g5
(S'19uml4qda5a5hu76qb9dtvk007lc81dvhmpg826u0ogej80'
p4566
tp4567
Rp4568
sg1
((dp4569
I0
I64
sI1
I2
sI2
tp4570
Rp4571
g5
(S'-2rl4pi9v4j9t652ga2j2lc2t20n8s9c152cf0ss8rc49qefsg'
p4572
tp4573
Rp4574
sg1
((dp4575
I0
I79
sI1
I3
sI2
tp4576
Rp4577
g5
(S'-162q44c302g4muti714l86gmev26re230bin2t80'
p4578
tp4579
Rp4580
sg1
((dp4581
I0
I67
sI1
I2
sI2
tp4582
Rp4583
g5
(S'2b5mjre775n2scr6bbh9be8iedfpc8jr3kggc6pi6e41gcl8s'
p4584
tp4585
Rp4586
sg1
((dp4587
I0
I52
sI1
I1
sI2
tp4588
Rp4589
g5
(S'1gvkroab9eh71q0ud9vlnkpc0dpttlqv494is7fjttkhhv6sead'
p4590
tp4591
Rp4592
sg1
((dp4593
I0
I43
sI1
I4
sI2
tp4594
Rp4595
g5
(S'2d131fc1dqn2eevp1r0no3kpb4jo'
p4596
tp4597
Rp4598
sg1
((dp4599
I0
I21
sI1
I1
sI2
tp4600
Rp4601
g5
(S'7phm31ol3inet4hjtfrua92v6dbo37c18leim52t2a000'
p4602
tp4603
Rp4604
sg1
((dp4605
I0
I28
sI2
tp4606
Rp4607
g5
(S'-r9bilm9tbcn1cspev1llkcm7tq33tko2kj88o2m968mk60000'
p4608
tp4609
Rp4610
sg1
((dp4611
I0
I4
sI1
I5
sI2
tp4612
Rp4613
g5
(S'2d293bulci3g'
p4614
tp4615
Rp4616
sg1
((dp4617
I0
I74
sI2
tp4618
Rp4619
g5
(S'-j9f6i7r2jcp5h81n3fh6mprj1e857ja1iiqfi1gkf308of8rgqm0'
p4620
tp4621
Rp4622
sg1
((dp4623
I0
I98
sI1
I3
sI2
tp4624
Rp4625
g5
(S'-1od1b7mlr384kqsdg20ertk83md76rcrjlbr9i2'
p4626
tp4627
Rp4628
sg1
((dp4629
I0
I125
sI1
I1
sI2
tp4630
Rp4631
g5
(S'8m4eu9kmtgpc521ujduiar4ac9t9tnsg1gg0ab9a'
p4632
tp4633
Rp4634
sg1
((dp4635
I0
I86
sI1
I2
sI2
tp4636
Rp4637
g5
(S'-9f53lej8viku54t9ai6cd4iiu3nmk5adlo9lasgjfevg97n'
p4638
tp4639
Rp4640
sg1
((dp4641
I0
I101
sI1
I3
sI2
tp4642
Rp4643
g5
(S'e6prsoa1kbq9s39751b2j5o0i9idpca2mi9cpg'
p4644
tp4645
Rp4646
sg1
((dp4647
I0
I89
sI1
I2
sI2
tp4648
Rp4649
g5
(S'20brkjn6i55dnsn6j56e4ct86o9ebfq0chkbr3c181apg12'
p4650
tp4651
Rp4652
sg1
((dp4653
I0
I120
sI2
tp4654
Rp4655
g5
(S'-2lkehnithd0b34p9mnatimlk05i9can65ucl0mr0qnun8'
p4656
tp4657
Rp4658
sg1
((dp4659
I0
I74
sI1
I1
sI2
tp4660
Rp4661
g5
(S'139h5csr5jt8i4kbhlpg0bhgigrqd6ebd67ldchei5fqqi5bc1b'
p4662
tp4663
Rp4664
sg1
((dp4665
I0
I166
sI2
tp4666
Rp4667
g5
(S'5mm5vv0'
p4668
tp4669
Rp4670
sg1
((dp4671
I0
I65
sI1
I4
sI2
tp4672
Rp4673
g5
(S'1g8qd2sh9b25mepkdnv16q3b8jhs'
p4674
tp4675
Rp4676
sg1
((dp4677
I0
I26
sI1
I5
sI2
tp4678
Rp4679
g5
(S'8huql372dnip7oep'
p4680
tp4681
Rp4682
sg1
((dp4683
I0
I14
sI1
I4
sI2
tp4684
Rp4685
g5
(S'q9rmi8dfgpsaplg47s73puc'
p4686
tp4687
Rp4688
sg1
((dp4689
I0
I21
sI2
tp4690
Rp4691
g5
(S'1qg05iig07i38vv6pspgs2ajd5734qcm9n9chvheac400000'
p4692
tp4693
Rp4694
sg1
((dp4695
I0
I120
sI1
I3
sI2
tp4696
Rp4697
g5
(S'-3uq5o6fitoep8rmp5nvqcue1vd6jafbtti'
p4698
tp4699
Rp4700
sg1
((dp4701
I0
I147
sI1
I1
sI2
tp4702
Rp4703
g5
(S'1cgku1cuq62us36n6s1e5imq2brgc0'
p4704
tp4705
Rp4706
sg1
((dp4707
I0
I108
sI1
I2
sI2
tp4708
Rp4709
g5
(S'-16fbvbebfsl41luhi1vq61rkrbncf5s3bjvkuprvclg'
p4710
tp4711
Rp4712
sg1
((dp4713
I0
I123
sI1
I3
sI2
tp4714
Rp4715
g5
(S'45l5dtqtksqbqq5k1famef3f0cstktsbc'
p4716
tp4717
Rp4718
sg1
((dp4719
I0
I111
sI1
I2
sI2
tp4720
Rp4721
g5
(S'1q5vo6rjvabhg3uibhhcb0h562085psi60uo5l40h0'
p4722
tp4723
Rp4724
sg1
((dp4725
I0
I35
sI2
tp4726
Rp4727
g5
(S'2bhittt8v9240ouq6pm1uas7sgs9r6sqo9pov5th521t80ubg00'
p4728
tp4729
Rp4730
sg1
((dp4731
I0
I96
sI1
I1
sI2
tp4732
Rp4733
g5
(S'-2i0322tal2p3uo8kfi0dha5cfbqtp239gqdp8iciv700t2sl'
p4734
tp4735
Rp4736
sg1
((dp4737
I0
I113
sI2
tp4738
Rp4739
g5
(S'26p8ekkeskn88sd0mpbdark198e4t61khhjgc9k3f827gv0'
p4740
tp4741
Rp4742
sg1
((dp4743
I0
I87
sI1
I4
sI2
tp4744
Rp4745
g5
(S'2am5s67rlfq3uumc4264eqo'
p4746
tp4747
Rp4748
sg1
((dp4749
I0
I43
sI2
tp4750
Rp4751
g5
(S'2e7hgt02gd9qjt0e75nci2tpb5spteb0bo1ilsvv1fam8a346jk0'
p4752
tp4753
Rp4754
sg1
((dp4755
I0
I48
sI1
I5
sI2
tp4756
Rp4757
g5
(S'-8bjp9qnb20bg'
p4758
tp4759
Rp4760
sg1
((dp4761
I0
I66
sI2
tp4762
Rp4763
g5
(S'-1h5igb4vlarbudpo2gmj96fgmop5k023k9nclj7t6usga9q25ugjo'
p4764
tp4765
Rp4766
sg1
((dp4767
I0
I36
sI1
I4
sI2
tp4768
Rp4769
g5
(S'1dh04mukddeb55km1bkpk4d3tssf'
p4770
tp4771
Rp4772
sg1
((dp4773
I0
I159
sI2
tp4774
Rp4775
g5
(S'70nrqqc46j09j8hrql4ona0'
p4776
tp4777
Rp4778
sg1
((dp4779
I0
I142
sI1
I3
sI2
tp4780
Rp4781
g5
(S'-frgs4khj6de46ap3v8m974lh'
p4782
tp4783
Rp4784
sg1
((dp4785
I0
I41
sI1
I1
sI2
tp4786
Rp4787
g5
(S'-nom00umkr520592t4oqpm66kkhd8g619g5rje5gjeek44cgji'
p4788
tp4789
Rp4790
sg1
((dp4791
I0
I130
sI1
I2
sI2
tp4792
Rp4793
g5
(S'-jpoe6qensnq2a7hgm1k7vmnsfj9gs0g0q3'
p4794
tp4795
Rp4796
sg1
((dp4797
I0
I145
sI1
I3
sI2
tp4798
Rp4799
g5
(S'rn281jqpsahr2tije2em3a'
p4800
tp4801
Rp4802
sg1
((dp4803
I0
I133
sI1
I2
sI2
tp4804
Rp4805
g5
(S'44v4qkn6qobosrbg4re6e2q7frb926kmg'
p4806
tp4807
Rp4808
sg1
((dp4809
I0
I118
sI1
I1
sI2
tp4810
Rp4811
g5
(S'-1qs7f63tltttjb7dle16221g2h2roqvs0s0vee4gp3f'
p4812
tp4813
Rp4814
sg1
((dp4815
I0
I6
sI1
I1
sI2
tp4816
Rp4817
g5
(S'-m4vsu7u7bhgpbrnag5lg61od0nf7jhbs000000'
p4818
tp4819
Rp4820
sg1
((dp4821
I0
I35
sI1
I2
sI2
tp4822
Rp4823
g5
(S'fvtpln714qaeliudf8r3l79lnj71lhn2htlr45eanoa07g'
p4824
tp4825
Rp4826
sg1
((dp4827
I0
I109
sI1
I4
sI2
tp4828
Rp4829
g5
(S'4h0mpc'
p4830
tp4831
Rp4832
sg1
((dp4833
I0
I60
sI2
tp4834
Rp4835
g5
(S'-1kq88frepinkf3to9h3g00v4sodvh7s9o98imrbvbgld3lglkjbtg'
p4836
tp4837
Rp4838
sg1
((dp4839
I0
I58
sI1
I4
sI2
tp4840
Rp4841
g5
(S'74iun5r7l63569e911f9ki6oqobg'
p4842
tp4843
Rp4844
sg1
((dp4845
I0
I106
sI2
tp4846
Rp4847
g5
(S'-imntgtos9mr0u71hbhot4oa2vvpgj7hjhjtamadvf1f28bk0'
p4848
tp4849
Rp4850
sg1
((dp4851
I0
I164
sI1
I3
sI2
tp4852
Rp4853
g5
(S'-8h9ff'
p4854
tp4855
Rp4856
sg1
((dp4857
I0
I63
sI1
I1
sI2
tp4858
Rp4859
g5
(S'-4tb8eeddpslukffd8natc1nkcs7espbpq0s12d7upb03ohlqfe0'
p4860
tp4861
Rp4862
sg1
((dp4863
I0
I152
sI1
I2
sI2
tp4864
Rp4865
g5
(S'-1s92jrgv4q8k68lldc0f721'
p4866
tp4867
Rp4868
sg1
((dp4869
I0
I39
sI1
I3
sI2
tp4870
Rp4871
g5
(S'2vnrbkvsi2qn1k8apjmdeb7on0h8ac7igju5d8'
p4872
tp4873
Rp4874
sg1
((dp4875
I0
I33
sI2
tp4876
Rp4877
g5
(S'obdup9ed8e2td1cmddljelg7javifl79sq5la8l83koclmn000'
p4878
tp4879
Rp4880
sg1
((dp4881
I0
I155
sI1
I2
sI2
tp4882
Rp4883
g5
(S'2tua56885stas2ta9h9g'
p4884
tp4885
Rp4886
sg1
((dp4887
I0
I152
sI2
tp4888
Rp4889
g5
(S'-1a8cp6anbhj23s1ocem9rpokgvtf7o'
p4890
tp4891
Rp4892
sg1
((dp4893
I0
I140
sI1
I1
sI2
tp4894
Rp4895
g5
(S'e83qrhni5cutu2jucdsa87vnng6nk24qc'
p4896
tp4897
Rp4898
sg1
((dp4899
I0
I15
sI1
I5
sI2
tp4900
Rp4901
g5
(S'7s31b5smbphmvig'
p4902
tp4903
Rp4904
sg1
((dp4905
I0
I3
sI1
I4
sI2
tp4906
Rp4907
g5
(S'4bfm8bavbnpg1ilca00'
p4908
tp4909
Rp4910
sg1
((dp4911
I0
I7
sI2
tp4912
Rp4913
g5
(S'33e7if2tua38jjh2r537htf27oasdooes000000000'
p4914
tp4915
Rp4916
sg1
((dp4917
I0
I18
sI1
I2
sI2
tp4918
Rp4919
g5
(S'-qn6nirvc6s76ci5klqhmeick5e31v1cv0j5otqt80'
p4920
tp4921
Rp4922
sg1
((dp4923
I0
I80
sI1
I4
sI2
tp4924
Rp4925
g5
(S'6rr74d0cfg9sffs4olp12q974'
p4926
tp4927
Rp4928
sg1
((dp4929
I0
I53
sI2
tp4930
Rp4931
g5
(S'rskcuv8lk8vit0k3ei2f8nbmjdgram58sslb5b87hkjj0k6d4to8'
p4932
tp4933
Rp4934
sg1
((dp4935
I0
I33
sI1
I3
sI2
tp4936
Rp4937
g5
(S'-2ad55nbmp15enll0rub0en6uoal8notk31fgs'
p4938
tp4939
Rp4940
sg1
((dp4941
I0
I58
sI1
I3
sI2
tp4942
Rp4943
g5
(S'-rlbmd5nsokhsbnag9kbd6omiff7g0g0iahc1ehp'
p4944
tp4945
Rp4946
sg1
((dp4947
I0
I85
sI1
I1
sI2
tp4948
Rp4949
g5
(S'-bg82l306n8mlv8v21fhohqdkgkhbfludo5dk3lurrcbdfvico'
p4950
tp4951
Rp4952
sg1
((dp4953
I0
I46
sI1
I2
sI2
tp4954
Rp4955
g5
(S'-4qeu7ggnrmvehfjnm6cpct2218031qesh853gsbeitqefg73'
p4956
tp4957
Rp4958
sg1
((dp4959
I0
I61
sI1
I3
sI2
tp4960
Rp4961
g5
(S'-frgd8fr7mrf7bo2052tauotrt5doc2fogp0ntqg'
p4962
tp4963
Rp4964
sg1
((dp4965
I0
I49
sI1
I2
sI2
tp4966
Rp4967
g5
(S'd89pd6ikhr1qujseq6guelue8rdjgv2vt379tikhsl31nac0'
p4968
tp4969
Rp4970
sg1
((dp4971
I0
I99
sI2
tp4972
Rp4973
g5
(S'1p01psuui7od62knjtajpbv9ci8rao0pg00iksuq57mknem7tg'
p4974
tp4975
Rp4976
sg1
((dp4977
I0
I75
sI1
I4
sI2
tp4978
Rp4979
g5
(S'-fcn993df2c4db7dg9vmhcift94'
p4980
tp4981
Rp4982
sg1
((dp4983
I0
I37
sI1
I5
sI2
tp4984
Rp4985
g5
(S'-1agsoinu5t5oajpm'
p4986
tp4987
Rp4988
sg1
((dp4989
I0
I145
sI2
tp4990
Rp4991
g5
(S'bb7m5agv7fttgl27141dhq79peobbbhmfo'
p4992
tp4993
Rp4994
sg1
((dp4995
I0
I25
sI1
I4
sI2
tp4996
Rp4997
g5
(S'-9acmqh1qfm5dh1kh6bq137066k'
p4998
tp4999
Rp5000
sg1
((dp5001
I0
I102
sI1
I4
sI2
tp5002
Rp5003
g5
(S'hg455u5po25qdc'
p5004
tp5005
Rp5006
sg1
((dp5007
I0
I7
sI1
I1
sI2
tp5008
Rp5009
g5
(S'6a2lurl6icuv6r1cprrgrdf2rs3et4jh8000000'
p5010
tp5011
Rp5012
s.